
 Start         Length     Name                   Class
 0000:00000000 000100000H ROM                    CODE
 0000:00000000 00000BFFFH RAM                    


  Address         Publics by Value

 0000:00000000       off_0
 0000:00002000       dCalId
 0000:00002038       aPf_24uh4tVer1_
 0000:00002058       aObd_23vh6nVer_
 0000:000020AC       sPull2DFloat
 0000:00002160       sPull3DFloat
 0000:00004E66       nullsub_5
 0000:00004E6A       nullsub_1
 0000:00004E6E       nullsub_6
 0000:00005052       nullsub_2
 0000:00005094       nullsub_7
 0000:000050AA       nullsub_3
 0000:000050AE       nullsub_8
 0000:000050CA       nullsub_9
 0000:000051B2       nullsub_4
 0000:000051B6       nullsub_10
 0000:00005226       nullsub_11
 0000:000055FA       aFrcatqPmftoFkc
 0000:0000658C       nullsub_12
 0000:000083D0       sMafCalc
 0000:0000842C       hMafCalc
 0000:0000DCEC       hMemoryReset
 0000:0000FA30       sMemoryReset
 0000:00012454       hMemoryResetLimit
 0000:000127A8       aOJCJC
 0000:00014F24       hWgdc
 0000:00015030       aCoCNcBDuCDuBDu
 0000:00015063       aC_0
 0000:00015069       aB_2
 0000:0001506F       aC_1
 0000:00015075       aBDuC
 0000:00015081       aBDuC_0
 0000:00015130       aCORcNcPb
 0000:00015141       aPc
 0000:00015147       aOb
 0000:0001514D       aOc
 0000:00015153       aNb
 0000:00015159       aNc
 0000:0001515F       aMb
 0000:00015165       aMc
 0000:0001516B       aLb
 0000:00015171       aLc
 0000:00015177       aKb
 0000:0001517D       aKc
 0000:00015398       hRevLimDelete
 0000:00017658       sWgdc
 0000:00017C50       sWgdc0
 0000:00018070       Max_Wastegate_Duty_Limit_PostCompensation
 0000:000253D8       sLoadCalcs
 0000:00025890       Engine_Load_Limit_Maximum
 0000:000270F8       Front_Oxygen_Sensor_Rich_Limit
 0000:0002D204       nullsub_15
 0000:0002D208       nullsub_17
 0000:0002DD76       aEEcF0D0
 0000:0002F640       aCoCr0A
 0000:00037174       sRevLimStart
 0000:00037186       RevLimBitMask_0x01
 0000:000371A4       sRevLimEnd
 0000:0003A2BC       aCoE0EXp
 0000:0003D2EC       aCO@n0FbA
 0000:0004186C       aCOCF
 0000:00051034       aDEcp0dqaadrabd
 0000:0005136C       SsmGet_Engine_Load_Relative_P1
 0000:00051372       SsmGet_Coolant_Temperature_P2
 0000:00051380       SsmGet_AF_Correction_1_P3
 0000:0005139C       SsmGet_AF_Learning_1_P4
 0000:000513AC       SsmGet_Switches_168_169_170_171_172_x_x_x
 0000:000513B2       SsmGet_Manifold_Absolute_Pressure_P7
 0000:000513C0       SsmGet_Engine_Speed_P8
 0000:000513EE       SsmGet_Vehicle_Speed_P9
 0000:000513FA       SsmGet_Ignition_Total_Timing_P10
 0000:0005140A       SsmGet_Intake_Air_Temperature_P11
 0000:00051418       SsmGet_Mass_Airflow_P12
 0000:00051446       SsmGet_Throttle_Opening_Angle_P13
 0000:00051454       SsmGet_Rear_O2_Sensor_P15
 0000:00051482       SsmGet_Battery_Voltage_P17
 0000:00051490       SsmGet_Mass_Airflow_Sensor_Voltage_P18
 0000:000514B4       SsmGet_Throttle_Sensor_Voltage_P19
 0000:000514D8       SsmGet_Fuel_Injector_1_Pulse_Width_P21
 0000:000514EC       SsmGet_Atmospheric_Pressure_P24
 0000:00051504       SsmGet_Manifold_Relative_Pressure_P25
 0000:00051522       SsmGet_Fuel_Tank_Pressure_P27
 0000:00051530       SsmGet_Learned_Ignition_Timing_P29
 0000:00051546       SsmGet_Accelerator_Pedal_Angle_P30
 0000:00051620       SsmGet_Fuel_Temperature_P31
 0000:0005162C       SsmGet_Fuel_Level_P35
 0000:0005163A       SsmGet_Primary_Wastegate_Duty_Cycle_P36
 0000:00051648       SsmGet_CPC_Valve_Duty_Ratio_P38
 0000:00051660       SsmGet_Tumble_Valve_Position_Sensor_Right_P39
 0000:00051684       SsmGet_Tumble_Valve_Position_Sensor_Left_P40
 0000:000516A8       SsmGet_Idle_Speed_Control_Valve_Duty_Ratio_P41
 0000:000516BA       SsmGet_Alternator_Duty_P46
 0000:000516C6       SsmGet_Fuel_Pump_Duty_P47
 0000:000516D4       SsmGet_Intake_VVT_Advance_Angle_Right_P48
 0000:000516E2       SsmGet_Intake_VVT_Advance_Angle_Left_P49
 0000:000516F0       SsmGet_Intake_OCV_Duty_Right_P50
 0000:000516FE       SsmGet_Intake_OCV_Duty_Left_P51
 0000:0005170C       SsmGet_Intake_OCV_Current_Right_P52
 0000:0005171A       SsmGet_Intake_OCV_Current_Left_P53
 0000:00051728       SsmGet_AF_Sensor_1_Current_P54
 0000:00051738       SsmGet_AF_Sensor_1_Resistance_P56
 0000:00051744       SsmGet_AF_Sensor_1_P58
 0000:0005175C       SsmGet_Switches_x_1_2_3_x_69_70_71
 0000:000518DC       SsmGet_Switches_4_5_x_6_7_8_9_x
 0000:0005199E       SsmGet_Switches_10_11_12_13_14_15_16_17
 0000:00051A4C       SsmGet_Switches_18_19_20_21_22_23_24_25
 0000:00051B9C       SsmGet_Switches_26_27_28_29_30_31_32_33
 0000:00051C26       SsmGet_Switches_34_35_36_37_38_39_40_41
 0000:00051CAA       SsmGet_Switches_42_43_44_45_46_47_48_49
 0000:00051CC2       SsmGet_Switches_72_73_74_75_50_51_52_53
 0000:00051D94       SsmGet_Switches_54_55_56_57_58_59_60_61
 0000:00051DC2       SsmGet_Switches_x_x_x_x_x_x_82_x
 0000:00051E20       SsmGet_Switches_108_x_x_x_x_x_x_x
 0000:00051F06       SsmGet_Roughness_Monitor_Cylinder_1_P63
 0000:00051F0C       SsmGet_Roughness_Monitor_Cylinder_2_P64
 0000:00051F12       SsmGet_AF_Correction_3_32bit_ECU_P89
 0000:00051F22       SsmGet_AF_Learning_3_P66
 0000:0005200C       SsmGet_Switches_148_149_x_150_151_152_153_154
 0000:0005210A       SsmGet_Roughness_Monitor_Cylinder_3_P69
 0000:00052110       SsmGet_Roughness_Monitor_Cylinder_4_P70
 0000:00052306       SsmGet_Learned_Ignition_Timing_Correction_P153
 0000:00052314       SsmGet_Throttle_Motor_Duty_P71
 0000:00052324       SsmGet_Throttle_Motor_Voltage_P72
 0000:00052332       SsmGet_Sub_Throttle_Sensor_P73
 0000:00052356       SsmGet_Main_Throttle_Sensor_P74
 0000:0005237A       SsmGet_Sub_Accelerator_Sensor_P75
 0000:0005239E       SsmGet_Main_Accelerator_Sensor_P76
 0000:000523C2       SsmGet_Exhaust_Gas_Temperature_P79
 0000:000523D0       SsmGet_Cold_Start_Injector_Air_Pump_P80
 0000:000523DE       SsmGet_Memorised_Cruise_Speed_P82
 0000:000523EA       SsmGet_Fuel_Level_Sensor_Resistance_P119
 0000:000523F8       SsmGet_Estimated_odometer_P120
 0000:0005241A       SsmGet_Exhaust_VVT_Advance_Angle_Right_P83
 0000:00052426       SsmGet_Exhaust_VVT_Advance_Angle_Left_P84
 0000:00052432       SsmGet_Exhaust_OCV_Duty_Right_P85
 0000:00052444       SsmGet_Exhaust_OCV_Duty_Left_P86
 0000:00052456       SsmGet_Exhaust_OCV_Current_Right_P87
 0000:00052464       SsmGet_Exhaust_OCV_Current_Left_P88
 0000:00052472       SsmGet_Switches_130_62_131_x_x_x_x_x
 0000:0005260E       SsmGet_Switches_63_64_65_66_67_132_68_133
 0000:0005263C       ClutchBitMask_0x01
 0000:0005267A       CoastBitMask_0x01
 0000:00052698       ResumeBitMask_0x01
 0000:000526B8       BrakeBitMask_0x01
 0000:00052826       SsmGet_Switches_155_156_157_x_x_x_x_x
 0000:000528FE       SsmGet_Fine_Learning_Knock_Correction_P91
 0000:0005290E       SsmGet_Fuel_Tank_Pressure_P154
 0000:00052B4C       aOC1CF
 0000:00058396       nullsub_16
 0000:00059A6C       PtrSsmGet_Engine_Load_Relative_P1
 0000:00059A70       PtrSsmGet_Coolant_Temperature_P2
 0000:00059A74       PtrSsmGet_AF_Correction_1_P3
 0000:00059A78       PtrSsmGet_AF_Learning_1_P4
 0000:00059A7C       PtrSsmGet_AF_Correction_2_P5
 0000:00059A80       PtrSsmGet_AF_Learning_2_P6
 0000:00059A84       PtrSsmGet_Manifold_Absolute_Pressure_P7
 0000:00059A88       PtrSsmGet_Engine_Speed_P8
 0000:00059A90       PtrSsmGet_Vehicle_Speed_P9
 0000:00059A94       PtrSsmGet_Ignition_Total_Timing_P10
 0000:00059A98       PtrSsmGet_Intake_Air_Temperature_P11
 0000:00059A9C       PtrSsmGet_Mass_Airflow_P12
 0000:00059AA4       PtrSsmGet_Throttle_Opening_Angle_P13
 0000:00059AA8       PtrSsmGet_Front_O2_Sensor_1_P14
 0000:00059AB0       PtrSsmGet_Rear_O2_Sensor_P15
 0000:00059AB8       PtrSsmGet_Front_O2_Sensor_2_P16
 0000:00059AC0       PtrSsmGet_Battery_Voltage_P17
 0000:00059AC4       PtrSsmGet_Mass_Airflow_Sensor_Voltage_P18
 0000:00059AC8       PtrSsmGet_Throttle_Sensor_Voltage_P19
 0000:00059ACC       PtrSsmGet_Differential_Pressure_Sensor_Voltage_P20
 0000:00059AD0       PtrSsmGet_Fuel_Injector_1_Pulse_Width_P21
 0000:00059AD4       PtrSsmGet_Fuel_Injector_2_Pulse_Width_P22
 0000:00059AD8       PtrSsmGet_Knock_Correction_Advance_P23
 0000:00059ADC       PtrSsmGet_Atmospheric_Pressure_P24
 0000:00059AE0       PtrSsmGet_Manifold_Relative_Pressure_P25
 0000:00059AE4       PtrSsmGet_Pressure_Differential_Sensor_P26
 0000:00059AE8       PtrSsmGet_Fuel_Tank_Pressure_P27
 0000:00059AEC       PtrSsmGet_CO_Adjustment_P28
 0000:00059AF0       PtrSsmGet_Learned_Ignition_Timing_P29
 0000:00059AF4       PtrSsmGet_Accelerator_Pedal_Angle_P30
 0000:00059AF8       PtrSsmGet_Fuel_Temperature_P31
 0000:00059AFC       PtrSsmGet_Front_O2_Heater_Current_1_P32
 0000:00059B00       PtrSsmGet_Rear_O2_Heater_Current_P33
 0000:00059B04       PtrSsmGet_Front_O2_Heater_Current_2_P34
 0000:00059B08       PtrSsmGet_Fuel_Level_P35
 0000:00059B0C       PtrSsmGet_Radiator_Fan_Control_P92
 0000:00059B10       PtrSsmGet_Primary_Wastegate_Duty_Cycle_P36
 0000:00059B14       PtrSsmGet_Secondary_Wastegate_Duty_Cycle_P37
 0000:00059B18       PtrSsmGet_CPC_Valve_Duty_Ratio_P38
 0000:00059B1C       PtrSsmGet_Tumble_Valve_Position_Sensor_Right_P39
 0000:00059B20       PtrSsmGet_Tumble_Valve_Position_Sensor_Left_P40
 0000:00059B24       PtrSsmGet_Idle_Speed_Control_Valve_Duty_Ratio_P41
 0000:00059B28       PtrSsmGet_AF_Lean_Correction_P42
 0000:00059B2C       PtrSsmGet_AF_Heater_Duty_P43
 0000:00059B30       PtrSsmGet_Idle_Speed_Control_Valve_Step_P44
 0000:00059B34       PtrSsmGet_Number_of_Exh_Gas_Recirc_Steps_P45
 0000:00059B38       PtrSsmGet_Alternator_Duty_P46
 0000:00059B3C       PtrSsmGet_Fuel_Pump_Duty_P47
 0000:00059B40       PtrSsmGet_Intake_VVT_Advance_Angle_Right_P48
 0000:00059B44       PtrSsmGet_Intake_VVT_Advance_Angle_Left_P49
 0000:00059B48       PtrSsmGet_Intake_OCV_Duty_Right_P50
 0000:00059B4C       PtrSsmGet_Intake_OCV_Duty_Left_P51
 0000:00059B50       PtrSsmGet_Intake_OCV_Current_Right_P52
 0000:00059B54       PtrSsmGet_Intake_OCV_Current_Left_P53
 0000:00059B58       PtrSsmGet_AF_Sensor_1_Current_P54
 0000:00059B5C       PtrSsmGet_AF_Sensor_2_Current_P55
 0000:00059B60       PtrSsmGet_AF_Sensor_1_Resistance_P56
 0000:00059B64       PtrSsmGet_AF_Sensor_2_Resistance_P57
 0000:00059B68       PtrSsmGet_AF_Sensor_1_P58
 0000:00059B6C       PtrSsmGet_AF_Sensor_2_P59
 0000:00059B78       PtrSsmGet_Gear_Position_P60
 0000:00059B9C       PtrSsmGet_AF_Sensor_1_Heater_Current_P61
 0000:00059BA0       PtrSsmGet_AF_Sensor_2_Heater_Current_P62
 0000:00059BD4       PtrSsmGet_Switches_x_1_2_3_x_69_70_71
 0000:00059BD8       PtrSsmGet_Switches_4_5_x_6_7_8_9_x
 0000:00059BDC       PtrSsmGet_Switches_10_11_12_13_14_15_16_17
 0000:00059BE0       PtrSsmGet_Switches_18_19_20_21_22_23_24_25
 0000:00059BE4       PtrSsmGet_Switches_26_27_28_29_30_31_32_33
 0000:00059BE8       PtrSsmGet_Switches_34_35_36_37_38_39_40_41
 0000:00059BEC       PtrSsmGet_Switches_42_43_44_45_46_47_48_49
 0000:00059BF0       PtrSsmGet_Switches_72_73_74_75_50_51_52_53
 0000:00059BF4       PtrSsmGet_Switches_54_55_56_57_58_59_60_61
 0000:00059BF8       PtrSsmGet_Switches_x_x_x_x_x_x_82_x
 0000:00059C08       PtrSsmGet_Switches_108_x_x_x_x_x_x_x
 0000:00059D88       PtrSsmGet_Roughness_Monitor_Cylinder_1_P63
 0000:00059D8C       PtrSsmGet_Roughness_Monitor_Cylinder_2_P64
 0000:00059D90       PtrSsmGet_AF_Correction_3_32bit_ECU_P89
 0000:00059D94       PtrSsmGet_AF_Learning_3_P66
 0000:00059D98       PtrSsmGet_Rear_O2_Heater_Voltage_P67
 0000:00059D9C       PtrSsmGet_AF_Adjustment_Voltage_P68
 0000:00059DAC       PtrSsmGet_Switches_148_149_x_150_151_152_153_154
 0000:00059DB0       PtrSsmGet_Roughness_Monitor_Cylinder_3_P69
 0000:00059DB4       PtrSsmGet_Roughness_Monitor_Cylinder_4_P70
 0000:00059E0C       PtrSsmGet_Roughness_Monitor_Cylinder_5_P151
 0000:00059E30       PtrSsmGet_Roughness_Monitor_Cylinder_6_P152
 0000:00059E34       PtrSsmGet_Learned_Ignition_Timing_Correction_P153
 0000:00059E38       PtrSsmGet_Throttle_Motor_Duty_P71
 0000:00059E3C       PtrSsmGet_Throttle_Motor_Voltage_P72
 0000:00059E50       PtrSsmGet_Sub_Throttle_Sensor_P73
 0000:00059E54       PtrSsmGet_Main_Throttle_Sensor_P74
 0000:00059E58       PtrSsmGet_Sub_Accelerator_Sensor_P75
 0000:00059E5C       PtrSsmGet_Main_Accelerator_Sensor_P76
 0000:00059E60       PtrSsmGet_Brake_Booster_Pressure_P77
 0000:00059E64       PtrSsmGet_Fuel_Pressure_High_P78
 0000:00059E68       PtrSsmGet_Exhaust_Gas_Temperature_P79
 0000:00059E6C       PtrSsmGet_Exhaust_Gas_Temperature_2_P116
 0000:00059E70       PtrSsmGet_Cold_Start_Injector_Air_Pump_P80
 0000:00059E74       PtrSsmGet_SCV_Step_P81
 0000:00059E78       PtrSsmGet_Memorised_Cruise_Speed_P82
 0000:00059E7C       PtrSsmGet_AirFuel_Correction_4_P117
 0000:00059E80       PtrSsmGet_AirFuel_Learning_4_P118
 0000:00059E84       PtrSsmGet_Fuel_Level_Sensor_Resistance_P119
 0000:00059E88       PtrSsmGet_Estimated_odometer_P120
 0000:00059E9C       PtrSsmGet_Oil_Temperature_P122
 0000:00059EA0       PtrSsmGet_Oil_Switching_Solenoid_Valve_OSV_Duty_Right_P123
 0000:00059EA4       PtrSsmGet_Oil_Switching_Solenoid_Valve_OSV_Duty_Left_P124
 0000:00059EA8       PtrSsmGet_Oil_Switching_Solenoid_Valve_OSV_Current_Right_P125
 0000:00059EAC       PtrSsmGet_Oil_Switching_Solenoid_Valve_OSV_Current_Left_P126
 0000:00059EB0       PtrSsmGet_Exhaust_VVT_Advance_Angle_Right_P83
 0000:00059EB4       PtrSsmGet_Exhaust_VVT_Advance_Angle_Left_P84
 0000:00059EB8       PtrSsmGet_Exhaust_OCV_Duty_Right_P85
 0000:00059EBC       PtrSsmGet_Exhaust_OCV_Duty_Left_P86
 0000:00059EC0       PtrSsmGet_Exhaust_OCV_Current_Right_P87
 0000:00059EC4       PtrSsmGet_Exhaust_OCV_Current_Left_P88
 0000:00059EC8       PtrSsmGet_VVL_Lift_Mode_P127
 0000:00059ED0       PtrSsmGet_Switches_130_62_131_x_x_x_x_x
 0000:00059ED4       PtrSsmGet_Switches_63_64_65_66_67_132_68_133
 0000:00059FF8       PtrSsmGet_SIDrive_Mode_P114
 0000:00059FFC       PtrSsmGet_Throttle_Sensor_Closed_Voltage_P115
 0000:0005A018       PtrSsmGet_Fuel_Tank_Air_Pressure_P121
 0000:0005A0A8       PtrSsmGet_Switches_155_156_157_x_x_x_x_x
 0000:0005A0AC       PtrSsmGet_Switches_158_159_160_161_162_163_164_165
 0000:0005A0B4       PtrSsmGet_Fine_Learning_Knock_Correction_P91
 0000:0005A0B8       PtrSsmGet_Fuel_Tank_Pressure_P154
 0000:0005A188       PtrSsmGet_Switches_168_169_170_171_172_x_x_x
 0000:0005A1D4       PtrSsmGet_Main_Injection_Period_P155
 0000:0005A1D8       PtrSsmGet_Final_Injection_Amount_P156
 0000:0005A1E0       PtrSsmGet_Number_of_Times_Injected_P157
 0000:0005A1E4       PtrSsmGet_Target_Intake_Manifold_Pressure_P158
 0000:0005A1E8       PtrSsmGet_Target_Intake_Air_Amount_P159
 0000:0005A1EC       PtrSsmGet_Air_Mass_P160
 0000:0005A1F0       PtrSsmGet_Exhaust_Gas_Recirculation_EGR_Target_Valve_Opening_Angle_P161
 0000:0005A1F4       PtrSsmGet_Exhaust_Gas_Recirculation_EGR_Valve_Opening_Angle_P162
 0000:0005A1F8       PtrSsmGet_Exhaust_Gas_Recirculation_EGR_Duty_P163
 0000:0005A1FC       PtrSsmGet_Common_Rail_Target_Pressure_P164
 0000:0005A200       PtrSsmGet_Common_Rail_Pressure_P165
 0000:0005A204       PtrSsmGet_Intake_Air_Temperature_combined_P166
 0000:0005A208       PtrSsmGet_Target_Engine_Speed_P167
 0000:0005A210       PtrSsmGet_Boost_Pressure_Feedback_P168
 0000:0005A224       PtrSsmGet_Electric_Power_Steering_Current_P169
 0000:0005A228       PtrSsmGet_Fuel_Pump_Suction_Control_Valve_Current_Target_P170
 0000:0005A230       PtrSsmGet_Fuel_Pump_Suction_Control_Valve_Current_Actual_P175
 0000:0005A238       PtrSsmGet_Mileage_after_Injector_Learning_P176
 0000:0005A260       PtrSsmGet_Mileage_after_Injector_Replacement_P177
 0000:0005A2CC       PtrSsmGet_Actual_Common_Rail_Pressure_Time_Synchronized_P204
 0000:0005A30C       PtrSsmGet_PreInjection_Amount_P234
 0000:0005A314       PtrSsmGet_PreInjection_Interval_P235
 0000:0005A318       PtrSsmGet_Final_Initial_Torque_P238
 0000:0005A330       PtrSsmGet_Individual_Pump_Difference_Learning_Value_P228
 0000:0005A344       PtrSsmGet_MicroQuantityInjection_Final_Learning_Value_11_P208
 0000:0005A348       PtrSsmGet_MicroQuantityInjection_Final_Learning_Value_12_P209
 0000:0005A34C       PtrSsmGet_MicroQuantityInjection_Final_Learning_Value_13_P210
 0000:0005A350       PtrSsmGet_MicroQuantityInjection_Final_Learning_Value_14_P211
 0000:0005A354       PtrSsmGet_MicroQuantityInjection_Final_Learning_Value_21_P212
 0000:0005A358       PtrSsmGet_MicroQuantityInjection_Final_Learning_Value_22_P213
 0000:0005A35C       PtrSsmGet_MicroQuantityInjection_Final_Learning_Value_23_P214
 0000:0005A360       PtrSsmGet_MicroQuantityInjection_Final_Learning_Value_24_P215
 0000:0005A364       PtrSsmGet_MicroQuantityInjection_Final_Learning_Value_31_P216
 0000:0005A368       PtrSsmGet_MicroQuantityInjection_Final_Learning_Value_32_P217
 0000:0005A36C       PtrSsmGet_MicroQuantityInjection_Final_Learning_Value_33_P218
 0000:0005A370       PtrSsmGet_MicroQuantityInjection_Final_Learning_Value_34_P219
 0000:0005A374       PtrSsmGet_MicroQuantityInjection_Final_Learning_Value_41_P220
 0000:0005A378       PtrSsmGet_MicroQuantityInjection_Final_Learning_Value_42_P221
 0000:0005A37C       PtrSsmGet_MicroQuantityInjection_Final_Learning_Value_43_P222
 0000:0005A380       PtrSsmGet_MicroQuantityInjection_Final_Learning_Value_44_P223
 0000:0005A384       PtrSsmGet_MicroQuantityInjection_Final_Learning_Value_51_P224
 0000:0005A388       PtrSsmGet_MicroQuantityInjection_Final_Learning_Value_52_P225
 0000:0005A38C       PtrSsmGet_MicroQuantityInjection_Final_Learning_Value_53_P226
 0000:0005A390       PtrSsmGet_MicroQuantityInjection_Final_Learning_Value_54_P227
 0000:0005A3A4       PtrSsmGet_PreInjection_Final_Period_P233
 0000:0005A3AC       PtrSsmGet_Final_Main_Injection_Period_P229
 0000:0005A3C4       PtrSsmGet_Quantity_Correction_Cylinder_1_P179
 0000:0005A3C8       PtrSsmGet_Quantity_Correction_Cylinder_2_P180
 0000:0005A3CC       PtrSsmGet_Quantity_Correction_Cylinder_3_P181
 0000:0005A3D0       PtrSsmGet_Quantity_Correction_Cylinder_4_P182
 0000:0005A410       PtrSsmGet_Interior_Heater_P178
 0000:0005A414       PtrSsmGet_Battery_Current_P183
 0000:0005A418       PtrSsmGet_Alternator_Control_Mode_P185
 0000:0005A41C       PtrSsmGet_Battery_Temperature_P184
 0000:0005A424       PtrSsmGet_Cumulative_Ash_Ratio_P186
 0000:0005A428       PtrSsmGet_Pressure_Difference_between_Diesel_Particulate_Filter_DPF_Inlet_and_Outlet_P187
 0000:0005A42C       PtrSsmGet_Exhaust_Gas_Temperature_at_Catalyst_Inlet_P188
 0000:0005A430       PtrSsmGet_Exhaust_Gas_Temperature_at_Diesel_Particulate_Filter_DPF_Inlet_P189
 0000:0005A434       PtrSsmGet_Estimated_Catalyst_Temperature_P190
 0000:0005A438       PtrSsmGet_Estimated_Temperature_of_the_Diesel_Particulate_Filter_DPF_P191
 0000:0005A43C       PtrSsmGet_Soot_Accumulation_Ratio_P192
 0000:0005A440       PtrSsmGet_Oil_Dilution_Ratio_P193
 0000:0005A4B0       PtrSsmGet_Accumulated_Count_of_Overspeed_Instances_Very_High_RPM_P198
 0000:0005A4B4       PtrSsmGet_Accumulated_Count_of_Overspeed_Instances_High_RPM_P199
 0000:0005A4B8       PtrSsmGet_Estimated_Distance_to_Oil_Change_P205
 0000:0005A4BC       PtrSsmGet_Running_Distance_since_last_Diesel_Particulate_Filter_DPF_Regeneration_P206
 0000:0005A4C4       PtrSsmGet_Diesel_Particulate_Filter_DPF_Regeneration_Count_P207
 0000:0005A4D8       PtrSsmGet_Cumulative_oil_diesel_entry_P236
 0000:0005B5A4       a34512345
 0000:00068A64       aCOXZCZ
 0000:00069EC2       aCOF0
 0000:0006D0FA       aCoTDscm3P
 0000:0006D3C0       aCoDstCm3P
 0000:00074E20       aCoMd0MdlHp
 0000:0007B2C8       P0335_CRANKSHAFT_POS_SENSOR_A_MALFUNCTION
 0000:0007B2CC       P0604_CONTROL_MODULE_RAM_ERROR
 0000:0007B2CD       P0102_MAF_SENSOR_LOW_INPUT
 0000:0007B2CE       P0103_MAF_SENSOR_HIGH_INPUT
 0000:0007B2CF       P0500_VEHICLE_SPEED_SENSOR_A
 0000:0007B2D2       P0327_KNOCK_SENSOR_1_LOW_INPUT
 0000:0007B2D3       P0328_KNOCK_SENSOR_1_HIGH_INPUT
 0000:0007B2D4       P0122_TPS_A_LOW_INPUT
 0000:0007B2D5       P0123_TPS_A_HIGH_INPUT
 0000:0007B2D6       P0117_COOLANT_TEMP_SENSOR_LOW_INPUT
 0000:0007B2D7       P0118_COOLANT_TEMP_SENSOR_HIGH_INPUT
 0000:0007B2D9       P0125_INSUFFICIENT_COOLANT_TEMP_FUELING
 0000:0007B2DA       P0462_FUEL_LEVEL_SENSOR_LOW_INPUT
 0000:0007B2DB       P0463_FUEL_LEVEL_SENSOR_HIGH_INPUT
 0000:0007B2DE       P1518_STARTER_SWITCH_LOW_INPUT
 0000:0007B2DF       P0512_STARTER_REQUEST_CIRCUIT
 0000:0007B2E3       P0851_NEUTRAL_SWITCH_INPUT_LOW
 0000:0007B2E7       P0852_NEUTRAL_SWITCH_INPUT_HIGH
 0000:0007B2F2       P0691_RADIATOR_FAN_CIRCUIT_LOW
 0000:0007B2F3       P0692_RADIATOR_FAN_CIRCUIT_HIGH
 0000:0007B2F5       P0011_CAMSHAFT_POS__TIMING_OVERADVANCED_1
 0000:0007B2F6       P0021_CAMSHAFT_POS__TIMING_OVERADVANCED_2
 0000:0007B2F9       P0458_EVAP_PURGE_VALVE_CIRCUIT_LOW
 0000:0007B2FA       P0459_EVAP_PURGE_VALVE_CIRCUIT_HIGH
 0000:0007B2FE       P0133_FRONT_O2_SENSOR_SLOW_RESPONSE
 0000:0007B304       P0420_CAT_EFFICIENCY_BELOW_THRESHOLD
 0000:0007B308       P0171_SYSTEM_TOO_LEAN
 0000:0007B309       P0172_SYSTEM_TOO_RICH
 0000:0007B30A       P0301_MISFIRE_CYLINDER_1
 0000:0007B30B       P0302_MISFIRE_CYLINDER_2
 0000:0007B30C       P0303_MISFIRE_CYLINDER_3
 0000:0007B30D       P0304_MISFIRE_CYLINDER_4
 0000:0007B311       P0000_PASS_CODE_NO_DTC_DETECTED
 0000:0007B312       P0000_PASS_CODE_NO_DTC_DETECTED_
 0000:0007B314       P0131_FRONT_O2_SENSOR_LOW_INPUT
 0000:0007B316       P0132_FRONT_O2_SENSOR_HIGH_INPUT
 0000:0007B31A       P0112_IAT_SENSOR_LOW_INPUT
 0000:0007B31B       P0113_IAT_SENSOR_HIGH_INPUT
 0000:0007B31D       P0038_REAR_O2_SENSOR_HIGH_INPUT
 0000:0007B31E       P0032_FRONT_O2_SENSOR_HIGH_INPUT
 0000:0007B31F       P0037_REAR_O2_SENSOR_LOW_INPUT
 0000:0007B320       P0031_FRONT_O2_SENSOR_LOW_INPUT
 0000:0007B321       P0107_MAP_SENSOR_LOW_INPUT
 0000:0007B322       P0108_MAP_SENSOR_HIGH_INPUT
 0000:0007B329       P1560_BACKUP_VOLTAGE_MALFUNCTION
 0000:0007B32C       P0245_WASTEGATE_SOLENOID_A_LOW
 0000:0007B32D       P0246_WASTEGATE_SOLENOID_A_HIGH
 0000:0007B32E       P0244_WASTEGATE_SOLENOID_A_RANGEPERF
 0000:0007B338       P0230_FUEL_PUMP_PRIMARY_CIRCUIT
 0000:0007B33A       P0519_IDLE_CONTROL_MALFUNCTION_FAILSAFE
 0000:0007B33D       P0134_FRONT_O2_SENSOR_NO_ACTIVITY
 0000:0007B33F       P0030_FRONT_O2_SENSOR_RANGEPERF
 0000:0007B346       P2109_TPS_A_MINIMUM_STOP_PERF
 0000:0007B347       P0222_TPS_B_LOW_INPUT
 0000:0007B348       P0223_TPS_B_HIGH_INPUT
 0000:0007B349       P1160_ABNORMAL_RETURN_SPRING
 0000:0007B34A       P2102_THROTTLE_ACTUATOR_CIRCUIT_LOW
 0000:0007B34B       P2103_THROTTLE_ACTUATOR_CIRCUIT_HIGH
 0000:0007B34C       P2101_THROTTLE_ACTUATOR_CIRCUIT_RANGEPERF
 0000:0007B34E       P0638_THROTTLE_ACTUATOR_RANGEPERF
 0000:0007B34F       P0607_CONTROL_MODULE_PERFORMANCE
 0000:0007B350       P2138_TPS_DE_VOLTAGE
 0000:0007B351       P2127_TPS_E_CIRCUIT_LOW_INPUT
 0000:0007B352       P2128_TPS_E_CIRCUIT_HIGH_INPUT
 0000:0007B353       P2122_TPS_D_CIRCUIT_LOW_INPUT
 0000:0007B354       P2123_TPS_D_CIRCUIT_HIGH_INPUT
 0000:0007B355       P2135_TPS_AB_VOLTAGE
 0000:0007B357       P0600_SERIAL_COMMUNICATION_LINK
 0000:0007B35A       P0345_CAMSHAFT_POS_SENSOR_A_BANK_2
 0000:0007B35B       P0340_CAMSHAFT_POS_SENSOR_A_MALFUNCTION
 0000:0007B35C       P0605_CONTROL_MODULE_ROM_ERROR
 0000:0007B361       P2093_OCV_SOLENOID_A2_CIRCUIT_SHORT
 0000:0007B362       P2092_OCV_SOLENOID_A2_CIRCUIT_OPEN
 0000:0007B363       P2089_OCV_SOLENOID_A1_CIRCUIT_SHORT
 0000:0007B364       P2088_OCV_SOLENOID_A1_CIRCUIT_OPEN
 0000:0007B368       P0700_TRANSMISSION_CONTROL_SYSTEM
 0000:0007B371       P2504_CHARGING_SYSTEM_VOLTAGE_HIGH
 0000:0007B372       P2503_CHARGING_SYSTEM_VOLTAGE_LOW
 0000:0007B373       P2004_TGV__INTAKE_MANIFOLD_RUNNER_1_STUCK_OPEN
 0000:0007B374       P2006_TGV__INTAKE_MANIFOLD_RUNNER_1_STUCK_CLOSED
 0000:0007B375       P2005_TGV__INTAKE_MANIFOLD_RUNNER_2_STUCK_OPEN
 0000:0007B376       P2007_TGV__INTAKE_MANIFOLD_RUNNER_2_STUCK_CLOSED
 0000:0007B37B       P2016_TGV__INTAKE_MANIFOLD_RUNNER_1_POS_SENSOR_LOW
 0000:0007B37C       P2017_TGV__INTAKE_MANIFOLD_RUNNER_1_POS_SENSOR_HIGH
 0000:0007B37D       P2021_TGV__INTAKE_MANIFOLD_RUNNER_2_POS_SENSOR_LOW
 0000:0007B37E       P2022_TGV__INTAKE_MANIFOLD_RUNNER_2_POS_SENSOR_HIGH
 0000:0007B37F       P2009_TGV__INTAKE_MANIFOLD_RUNNER_1_CIRCUIT_LOW
 0000:0007B380       P2012_TGV__INTAKE_MANIFOLD_RUNNER_2_CIRCUIT_LOW
 0000:0007B381       P2008_TGV__INTAKE_MANIFOLD_RUNNER_1_CIRCUIT_OPEN
 0000:0007B382       P2011_TGV__INTAKE_MANIFOLD_RUNNER_2_CIRCUIT_OPEN
 0000:0007B383       P2444_SECONDARY_AIR_PUMP_1_STUCK_ON_B1
 0000:0007B385       P0410_SECONDARY_AIR_PUMP_SYSTEM
 0000:0007B387       P2433_SECONDARY_AIR_PUMP_CIRCUIT_HIGH
 0000:0007B388       P2432_SECONDARY_AIR_PUMP_CIRCUIT_LOW
 0000:0007B389       P0413_SECONDARY_AIR_PUMP_A_OPEN
 0000:0007B38A       P0418_SECONDARY_AIR_PUMP_RELAY_A
 0000:0007B38B       P0140_REAR_O2_SENSOR_NO_ACTIVITY
 0000:0007B38E       P0414_SECONDARY_AIR_PUMP_A_SHORTED
 0000:0007B38F       P1418_SECONDARY_AIR_PUMP_CIRCUIT_SHORTED
 0000:0007B390       P0018_CRANKSHAFTCAMSHAFT_CORRELATION_2A
 0000:0007B391       P0016_CRANKSHAFTCAMSHAFT_CORRELATION_1A
 0000:0007B392       P1410_SECONDARY_AIR_PUMP_VALVE_STUCK_OPEN
 0000:0007B395       P2441_SECONDARY_AIR_PUMP_VALVE_1_STUCK_CLOSED
 0000:0007B396       P2440_SECONDARY_AIR_PUMP_VALVE_1_STUCK_OPEN
 0000:0007B39A       P2419_EVAP_SWITCHING_VALVE_LOW
 0000:0007B39B       P2420_EVAP_SWITCHING_VALVE_HIGH
 0000:0007E736       nullsub_13
 0000:0007E73A       nullsub_14
 0000:0007EA90       sCelTrigger
 0000:0007EBA8       hCelSignal
 0000:0007ECCC       aCJCJs
 0000:00086032       aBBF
 0000:0008717A       Force_Pass_Readiness_Monitors
 0000:0008AE08       Table_InitialMax_Wastegate_Duty_Compensation_IAT
 0000:0008AE58       Table_InitialMax_Wastegate_Duty_Compensation_ECT
 0000:0008AE6C       Table_TD_Proportional_Compensation_IAT
 0000:0008AE80       Table_TD_Integral_Negative_Compensation_IAT
 0000:0008AE94       Table_TD_Integral_Positive_Compensation_IAT
 0000:0008AEBC       Table_Target_Boost_Compensation_ECT
 0000:0008AED0       Table_Target_Boost_Compensation_Atm_Pressure
 0000:0008AEE4       Table_Turbo_Dynamics_Proportional
 0000:0008AEF8       Table_Turbo_Dynamics_Integral_Negative
 0000:0008AF0C       Table_Turbo_Dynamics_Integral_Positive
 0000:0008AF44       Table_Target_Boost_Compensation_IAT_
 0000:0008AF6C       Table_InitialMax_Wastegate_Duty_Compensation_Atm_Pressure
 0000:0008AFA4       Table_Max_Wastegate_Duty_
 0000:0008AFDC       Table_Initial_Wastegate_Duty_
 0000:0008B014       Table_Target_Boost_
 0000:0008B3E4       Table_Front_Oxygen_Sensor_Compensation_Atm_Pressure
 0000:0008B4A4       Table_MAF_Compensation_IAT
 0000:0008B4C0       Table_Engine_Load_Compensation_MP
 0000:0008BF1C       Table_Cranking_Fuel_IPW_Compensation_Accelerator
 0000:0008BF3C       Table_Min_Primary_Base_Enrich_3_Decay_Delay_A
 0000:0008BF48       Table_Min_Primary_Base_Enrich_3_Decay_Delay_B
 0000:0008C0FC       Table_Primary_Open_Loop_Fueling_Compensation_Timing_Compensation
 0000:0008C110       Table_CL_to_OL_Transition_with_Delay_Throttle
 0000:0008C124       Table_Minimum_Primary_Open_Loop_Enrichment_Throttle
 0000:0008C138       Table_Minimum_Primary_Open_Loop_Enrichment_Accelerator
 0000:0008C200       Table_Tipin_Enrichment_Compensation_Boost_Error
 0000:0008C28C       Table_Cranking_Fuel_Injector_Pulse_Width_A_ECT
 0000:0008C2A0       Table_Cranking_Fuel_Injector_Pulse_Width_B_ECT
 0000:0008C2B4       Table_Cranking_Fuel_Injector_Pulse_Width_C_ECT
 0000:0008C2C8       Table_Cranking_Fuel_Injector_Pulse_Width_D_ECT
 0000:0008C2DC       Table_Cranking_Fuel_Injector_Pulse_Width_E_ECT
 0000:0008C2F0       Table_Cranking_Fuel_Injector_Pulse_Width_F_ECT
 0000:0008C304       Table_Injector_Latency
 0000:0008C310       Table_Min_Primary_Base_Enrich_3_Initial_Start_1A
 0000:0008C324       Table_Min_Primary_Base_Enrich_3_Initial_Start_1B
 0000:0008C338       Table_Min_Primary_Base_Enrich_3_Initial_Start_2A
 0000:0008C34C       Table_Min_Primary_Base_Enrich_3_Initial_Start_2B
 0000:0008C360       Table_Min_Primary_Base_Enrich_2_Initial_Start_1A
 0000:0008C374       Table_Min_Primary_Base_Enrich_2_Initial_Start_1B
 0000:0008C388       Table_Min_Primary_Base_Enrich_2_Initial_Start_2A
 0000:0008C39C       Table_Min_Primary_Base_Enrich_2_Initial_Start_2B
 0000:0008C3B0       Table_Min_Primary_Base_Enrich_2_Decay_Step_1
 0000:0008C3C4       Table_Min_Primary_Base_Enrich_2_Decay_Step_2
 0000:0008C72C       Table_CL_to_OL_Transition_with_Delay_Base_Pulse_Width
 0000:0008C740       Table_CL_to_OL_Transition_Counter_Step_Value_MAF
 0000:0008C764       Table_Primary_Open_Loop_Fueling_Compensation_ECT
 0000:0008C978       Table_Throttle_Tipin_Enrichment
 0000:0008C98C       Table_Tipin_Enrichment_Compensation_ECT
 0000:0008C9C0       Table_Boost_Limit_Fuel_Cut
 0000:0008CA70       Table_Cranking_Fuel_IPW_Compensation_Imm_Cruise_RPM
 0000:0008CAA8       Table_Cranking_Fuel_IPW_Compensation_Imm_NonCruise_RPM
 0000:0008CAFC       Table_Min_Primary_Base_Enrichment_1_NonCruise
 0000:0008CB18       Table_Min_Primary_Base_Enrichment_1_Cruise
 0000:0008CB34       Table_Min_Primary_Base_Enrichment_1_NonPrimary_OL
 0000:0008CBDC       Table_Primary_Open_Loop_Fueling
 0000:0008CBF8       Table_Primary_Open_Loop_Fueling_Failsafe
 0000:0008CC14       Table_Per_Injector_Pulse_Width_Compensation_A
 0000:0008CC30       Table_Per_Injector_Pulse_Width_Compensation_B
 0000:0008CC4C       Table_Per_Injector_Pulse_Width_Compensation_C
 0000:0008CC68       Table_Per_Injector_Pulse_Width_Compensation_D
 0000:0008CD1C       Table_CL_Fueling_Target_Compensation_Imm_Cruise_ECT
 0000:0008CD54       Table_CL_Fueling_Target_Compensation_Imm_NonCruise_ECT
 0000:0008CDA8       Table_CL_Fueling_Target_Compensation_A_Load
 0000:0008CDC4       Table_CL_Fueling_Target_Compensation_B_Load
 0000:0008CF78       Table_Base_Timing_Idle_Minimum
 0000:0008CF8C       Table_Base_Timing_Idle_A_InGear
 0000:0008CFA0       Table_Base_Timing_Idle_B_InGear
 0000:0008CFB4       Table_Base_Timing_Idle_A_Neutral
 0000:0008CFC8       Table_Base_Timing_Idle_B_Neutral
 0000:0008D004       Table_Timing_Compensation_ECT
 0000:0008D018       Table_Timing_Compensation_A_IAT
 0000:0008D20C       Table_Timing_Compensation_B_IAT
 0000:0008D220       Table_Rough_Correction_Learning_Delay_Increasing
 0000:0008D40C       Table_Base_Timing_Primary_Cruise
 0000:0008D428       Table_Base_Timing_Primary_NonCruise
 0000:0008D444       Table_Base_Timing_Reference_Cruise_AVCS_related
 0000:0008D460       Table_Base_Timing_Reference_NonCruise_AVCS_related
 0000:0008D47C       Table_Timing_Compensation_A_IAT_Activation
 0000:0008D578       Table_Timing_Compensation_MRP
 0000:0008D594       Table_Timing_Compensation_Per_Cylinder_A
 0000:0008D5B0       Table_Timing_Compensation_Per_Cylinder_B
 0000:0008D5CC       Table_Timing_Compensation_Per_Cylinder_C
 0000:0008D5E8       Table_Timing_Compensation_Per_Cylinder_D
 0000:0008D658       Table_Knock_Correction_Advance_Max_NonCruise
 0000:0008D674       Table_Knock_Correction_Advance_Max_Cruise
 0000:0008D8E8       Table_Idle_Speed_Target_A
 0000:0008D910       Table_Idle_Speed_Target_B
 0000:0008D938       Table_Idle_Speed_Target_C
 0000:0008DCF4       Table_Requested_Torque_Base_RPM_
 0000:0008DF40       Table_Target_Throttle_Plate_Position_Cruise_Requested_Torque_Ratio
 0000:0008DF5C       Table_Target_Throttle_Plate_Position_NonCruise_Requested_Torque_Ratio
 0000:0008DF78       Table_Target_Throttle_Plate_Position_Maximum_Requested_Torque_Ratio
 0000:0008DF94       Table_Requested_Torque_Accelerator_Pedal_SIDRIVE_Sport
 0000:0008DFB0       Table_Requested_Torque_Accelerator_Pedal_SIDRIVE_Sport_Sharp
 0000:0008DFCC       Table_Requested_Torque_Accelerator_Pedal_SIDRIVE_Intelligent
 0000:0008E0F0       Table_MAF_Sensor_Scaling
 0000:0008E0FC       Table_Front_Oxygen_Sensor_Scaling
 0000:0008E1B4       Table_Coolant_Temp_Sensor_Scaling
 0000:0008E1C0       Table_Intake_Temp_Sensor_Scaling
 0000:0008E508       Table_Intake_Cam_Advance_Angle_Cruise_AVCS
 0000:0008E524       Table_Intake_Cam_Advance_Angle_NonCruise_AVCS
 0000:0008E568       Coolant_Temp_Sensor_Scaling_Y_Axis
 0000:0008E5D8       Coolant_Temp_Sensor_Scaling
 0000:0008E648       Intake_Temp_Sensor_Scaling_Y_Axis
 0000:0008E6C0       Intake_Temp_Sensor_Scaling
 0000:000BE0C8       aCrRMl
 0000:000BF2A4       aMsr_rfcc1_00r1
 0000:000C0000       aA2ug002t
 0000:000C028C       Manifold_Pressure_Sensor_Scaling
 0000:000C07B1       Boost_Control_Disable_Delay_Fine_Correction
 0000:000C07E0       TD_Activation_Thresholds_Target_Boost_
 0000:000C07EC       TD_Integral_Negative_Activation_Boost_Error
 0000:000C07F4       TD_Integral_Positive_Activation_Boost_Error
 0000:000C07F8       TD_Integral_Positive_Activation_Wastegate_Duty
 0000:000C0804       TD_Activation_Thresholds_RPM
 0000:000C080C       TD_Integral_Cumulative_Range_WGDC_Correction
 0000:000C0814       Boost_Control_Disable_Fine_Correction
 0000:000C0818       Boost_Control_Disable_IAM
 0000:000C0824       Target_Boost_Compensation_1st_Gear_Speed_Disable
 0000:000C0828       Target_Boost_Compensation_1st_Gear
 0000:000C0830       InitialMax_Wastegate_Duty_Compensation_ECT_Y_Axis
 0000:000C08C0       InitialMax_Wastegate_Duty_Compensation_IAT_Y_Axis
 0000:000C0900       InitialMax_Wastegate_Duty_Compensation_IAT
 0000:000C09C0       InitialMax_Wastegate_Duty_Compensation_ECT
 0000:000C09D0       TD_Proportional_Compensation_IAT_Y_Axis
 0000:000C0A10       TD_Proportional_Compensation_IAT
 0000:000C0A20       TD_Integral_Negative_Compensation_IAT_Y_Axis
 0000:000C0A60       TD_Integral_Negative_Compensation_IAT
 0000:000C0A70       TD_Integral_Positive_Compensation_IAT_Y_Axis
 0000:000C0AB0       TD_Integral_Positive_Compensation_IAT
 0000:000C0AD0       Target_Boost_Compensation_ECT
 0000:000C0AE0       Target_Boost_Compensation_Atm_Pressure_Y_Axis
 0000:000C0AF8       Target_Boost_Compensation_Atm_Pressure
 0000:000C0B00       Turbo_Dynamics_Proportional_Y_Axis
 0000:000C0B24       Turbo_Dynamics_Proportional
 0000:000C0B38       Turbo_Dynamics_Integral_Negative_Y_Axis
 0000:000C0B5C       Turbo_Dynamics_Integral_Negative
 0000:000C0B70       Turbo_Dynamics_Integral_Positive_Y_Axis
 0000:000C0B94       Turbo_Dynamics_Integral_Positive
 0000:000C0C20       Target_Boost_Compensation_IAT__Y_Axis
 0000:000C0C38       Target_Boost_Compensation_IAT_
 0000:000C0C90       InitialMax_Wastegate_Duty_Compensation_Atm_Pressure_X_Axis
 0000:000C0CA8       InitialMax_Wastegate_Duty_Compensation_Atm_Pressure_Y_Axis
 0000:000C0CB8       InitialMax_Wastegate_Duty_Compensation_Atm_Pressure
 0000:000C0EA4       Max_Wastegate_Duty__X_Axis
 0000:000C0EE0       Max_Wastegate_Duty__Y_Axis
 0000:000C0F10       Max_Wastegate_Duty_
 0000:000C124C       Initial_Wastegate_Duty__X_Axis
 0000:000C1288       Initial_Wastegate_Duty__Y_Axis
 0000:000C12B8       Initial_Wastegate_Duty_
 0000:000C15D4       Target_Boost__X_Axis
 0000:000C1600       Target_Boost__Y_Axis
 0000:000C163C       Target_Boost_
 0000:000C19C8       aLSss?
 0000:000C230C       aLSssCff?
 0000:000C2324       a?a_4
 0000:000C2CE4       aA1?Lla?AkA
 0000:000C2CF8       a@a
 0000:000C2DB0       MAF_Limit_Maximum
 0000:000C2DD0       dLoadSmoothingAlt
 0000:000C2DD4       dLoadSmoothingB
 0000:000C2DD8       dLoadSmoothingA
 0000:000C2DE4       dLoadSmoothingFinal
 0000:000C2F98       Gear_Determination_Thresholds_A
 0000:000C2FAC       Gear_Determination_Thresholds_B
 0000:000C2FC0       Gear_Determination_Thresholds_C
 0000:000C3284       Front_Oxygen_Sensor_Compensation_Atm_Pressure_Y_Axis
 0000:000C3294       Front_Oxygen_Sensor_Compensation_Atm_Pressure
 0000:000C3398       aEMyuxQfOWfa
 0000:000C3528       MAF_Compensation_IAT_X_Axis
 0000:000C353C       MAF_Compensation_IAT_Y_Axis
 0000:000C355C       MAF_Compensation_IAT
 0000:000C3584       Engine_Load_Compensation_MP_X_Axis
 0000:000C35B0       Engine_Load_Compensation_MP_Y_Axis
 0000:000C35E8       Engine_Load_Compensation_MP
 0000:000C3C12       Manifold_Pressure_Sensor_CEL_Delays
 0000:000C3DD8       aAi33axqiazAfQd
 0000:000C441C       aL?sssLAm
 0000:000C4430       aAm
 0000:000C4434       aAp_0
 0000:000C4438       aAp_1
 0000:000C4440       aBr
 0000:000C4444       aB_1
 0000:000C4448       aG
 0000:000C5278       aSssSssSssSssSs
 0000:000C5438       aSssSssSssSss33
 0000:000C5474       aE
 0000:000C5478       aEz
 0000:000C7832       Tipin_Enrichment_Disable_Applied_Counter_Threshold
 0000:000C7833       Tipin_Enrichment_Applied_Counter_Reset
 0000:000C7834       Tipin_Throttle_Cumulative_Reset
 0000:000C787A       CL_Delay_Engine_Load_Counter_Threshold
 0000:000C787C       CL_to_OL_DelaySwitch_SIDRIVE_Intelligent
 0000:000C7882       CL_to_OL_Delay_
 0000:000C7A08       Injector_Flow_Scaling
 0000:000C7A0C       Min_Primary_Base_Enrich_3_Decay_Multiplier
 0000:000C7A2C       aEAUPLL
 0000:000C7A40       a?yssG8qi?a
 0000:000C7AB4       a?yssL?fff?@
 0000:000C7AC8       a?333?s33A
 0000:000C7AD4       a@a_7
 0000:000C7AD8       aB_3
 0000:000C7ADC       a?yss?fff?a
 0000:000C7AE8       a?yss?sss?a
 0000:000C7BC0       AF_Learning_1_Limits
 0000:000C7BD0       AF_Learning_1_Airflow_Ranges
 0000:000C7CA8       Primary_Open_Loop_Fuel_Map_Switch_IAM
 0000:000C7CAC       Minimum_Active_Primary_Open_Loop_Enrichment
 0000:000C7CB0       CL_to_OL_Transition_with_Delay_Throttle_Hysteresis
 0000:000C7CB4       CL_to_OL_Transition_with_Delay_BPW_Hysteresis
 0000:000C7CB8       CL_Delay_Minimum_ECT
 0000:000C7CBC       CL_Delay_Maximum_Engine_Speed_Per_Gear
 0000:000C7D0C       CL_Delay_Maximum_Engine_Speed_Neutral
 0000:000C7D2C       CL_Delay_Maximum_Throttle
 0000:000C7D30       CL_Delay_Maximum_Vehicle_Speed
 0000:000C7D40       CL_Delay_Maximum_Engine_Load
 0000:000C7ED4       Minimum_Tipin_Enrichment_Activation_Throttle
 0000:000C7ED8       Tipin_Enrichment_Disable_Throttle_Cumulative_Threshold
 0000:000C7EDC       Minimum_Tipin_Enrichment_Activation
 0000:000C7F30       Rev_Limit_Fuel_Cut
 0000:000C7F38       Rev_Limit_Fuel_Resume_Boost
 0000:000C7F80       Speed_Limiting_Enable_Fuel_Cut
 0000:000C7F8C       Speed_Limiting_Disable_Fuel_Cut
 0000:000C8004       Min_Primary_Base_Enrich_3_Decay_Delay_B_Y_Axis
 0000:000C8120       Cranking_Fuel_IPW_Compensation_Accelerator_Y_Axis
 0000:000C8138       Cranking_Fuel_IPW_Compensation_Accelerator
 0000:000C814E       Min_Primary_Base_Enrich_3_Decay_Delay_A
 0000:000C815E       Min_Primary_Base_Enrich_3_Decay_Delay_B
 0000:000C8374       aLlllllll333mfa
 0000:000C83F4       Primary_Open_Loop_Fueling_Compensation_Timing_Compensation_Y_Axis
 0000:000C840C       Primary_Open_Loop_Fueling_Compensation_Timing_Compensation
 0000:000C8414       CL_to_OL_Transition_with_Delay_Throttle_Y_Axis
 0000:000C8454       CL_to_OL_Transition_with_Delay_Throttle
 0000:000C8464       Minimum_Primary_Open_Loop_Enrichment_Throttle_Y_Axis
 0000:000C847C       Minimum_Primary_Open_Loop_Enrichment_Throttle
 0000:000C8484       Minimum_Primary_Open_Loop_Enrichment_Accelerator_Y_Axis
 0000:000C849C       Minimum_Primary_Open_Loop_Enrichment_Accelerator
 0000:000C8588       Tipin_Enrichment_Compensation_Boost_Error_Y_Axis
 0000:000C85AC       Tipin_Enrichment_Compensation_Boost_Error
 0000:000C8656       Cranking_Fuel_Injector_Pulse_Width_A_ECT
 0000:000C8676       Cranking_Fuel_Injector_Pulse_Width_B_ECT
 0000:000C8696       Cranking_Fuel_Injector_Pulse_Width_C_ECT
 0000:000C86B6       Cranking_Fuel_Injector_Pulse_Width_D_ECT
 0000:000C86D6       Cranking_Fuel_Injector_Pulse_Width_E_ECT
 0000:000C86F6       Cranking_Fuel_Injector_Pulse_Width_F_ECT
 0000:000C8718       Injector_Latency_Y_Axis
 0000:000C872C       Injector_Latency
 0000:000C8736       Min_Primary_Base_Enrich_3_Initial_Start_1A
 0000:000C8756       Min_Primary_Base_Enrich_3_Initial_Start_1B
 0000:000C8776       Min_Primary_Base_Enrich_3_Initial_Start_2A
 0000:000C8796       Min_Primary_Base_Enrich_3_Initial_Start_2B
 0000:000C87B6       Min_Primary_Base_Enrich_2_Initial_Start_1A
 0000:000C87D6       Min_Primary_Base_Enrich_2_Initial_Start_1B
 0000:000C87F6       Min_Primary_Base_Enrich_2_Initial_Start_2A
 0000:000C8816       Min_Primary_Base_Enrich_2_Initial_Start_2B
 0000:000C8836       Min_Primary_Base_Enrich_2_Decay_Step_1
 0000:000C8856       Min_Primary_Base_Enrich_2_Decay_Step_2
 0000:000C8954       aLSss?l?a
 0000:000C8B68       aM33?
 0000:000C8C44       aPdpdpdpdpdpdpd
 0000:000C8D1C       aSSSSSSSSSSSSSS
 0000:000C8D3E       aA_2
 0000:000C8D40       aA_3
 0000:000C8D42       aA_4
 0000:000C8D44       aYA
 0000:000C8D4A       aA_5
 0000:000C8D4C       aA_6
 0000:000C8D4E       aA_7
 0000:000C8D50       aA_8
 0000:000C8D52       aA_9
 0000:000C8D54       aA_10
 0000:000C8D56       aA_11
 0000:000C8D58       aA_12
 0000:000C8D5A       aA_13
 0000:000C8D5C       a?_4
 0000:000C8F14       CL_to_OL_Transition_with_Delay_Base_Pulse_Width_Y_Axis
 0000:000C8F54       CL_to_OL_Transition_with_Delay_Base_Pulse_Width
 0000:000C8F74       CL_to_OL_Transition_Counter_Step_Value_MAF_Y_Axis
 0000:000C8F9C       CL_to_OL_Transition_Counter_Step_Value_MAF
 0000:000C9028       Primary_Open_Loop_Fueling_Compensation_ECT
 0000:000C9030       a1KDzgoqYA
 0000:000C9040       aA_14
 0000:000C9042       aA_15
 0000:000C9044       aA_16
 0000:000C9046       aA_17
 0000:000C90A8       aG3g3g3g3g3g3g3
 0000:000C90D4       aA_18
 0000:000C90D6       aA_19
 0000:000C90D8       aA_20
 0000:000C90DA       aA_21
 0000:000C90DC       aA_22
 0000:000C90DE       aA_23
 0000:000C90E0       aLSss?_0
 0000:000C90EC       a?333?fff?m?jff
 0000:000C91C6       aG3g3g3g3g3g3_0
 0000:000C9520       Throttle_Tipin_Enrichment_Y_Axis
 0000:000C9568       Throttle_Tipin_Enrichment
 0000:000C958C       Tipin_Enrichment_Compensation_ECT
 0000:000C95FC       Boost_Limit_Fuel_Cut_Y_Axis
 0000:000C9614       Boost_Limit_Fuel_Cut
 0000:000C981C       Cranking_Fuel_IPW_Compensation_Imm_Cruise_RPM_X_Axis
 0000:000C9830       Cranking_Fuel_IPW_Compensation_Imm_Cruise_RPM_Y_Axis
 0000:000C984C       Cranking_Fuel_IPW_Compensation_Imm_Cruise_RPM
 0000:000C98C4       Cranking_Fuel_IPW_Compensation_Imm_NonCruise_RPM_X_Axis
 0000:000C98D8       Cranking_Fuel_IPW_Compensation_Imm_NonCruise_RPM_Y_Axis
 0000:000C98F4       Cranking_Fuel_IPW_Compensation_Imm_NonCruise_RPM
 0000:000C9988       Min_Primary_Base_Enrichment_1_NonCruise_Y_Axis
 0000:000C99A8       Min_Primary_Base_Enrichment_1_NonCruise
 0000:000C9A28       Min_Primary_Base_Enrichment_1_Cruise_Y_Axis
 0000:000C9A4C       Min_Primary_Base_Enrichment_1_Cruise
 0000:000C9ADC       Min_Primary_Base_Enrichment_1_NonPrimary_OL_X_Axis
 0000:000C9B04       Min_Primary_Base_Enrichment_1_NonPrimary_OL_Y_Axis
 0000:000C9B10       Min_Primary_Base_Enrichment_1_NonPrimary_OL
 0000:000CA228       Primary_Open_Loop_Fueling_X_Axis
 0000:000CA264       Primary_Open_Loop_Fueling_Y_Axis
 0000:000CA2AC       Primary_Open_Loop_Fueling
 0000:000CA3BC       Primary_Open_Loop_Fueling_Failsafe_X_Axis
 0000:000CA3F8       Primary_Open_Loop_Fueling_Failsafe_Y_Axis
 0000:000CA440       Primary_Open_Loop_Fueling_Failsafe
 0000:000CA550       Per_Injector_Pulse_Width_Compensation_A_X_Axis
 0000:000CA594       Per_Injector_Pulse_Width_Compensation_A_Y_Axis
 0000:000CA5D8       Per_Injector_Pulse_Width_Compensation_A
 0000:000CA6FC       Per_Injector_Pulse_Width_Compensation_B_X_Axis
 0000:000CA740       Per_Injector_Pulse_Width_Compensation_B_Y_Axis
 0000:000CA784       Per_Injector_Pulse_Width_Compensation_B
 0000:000CA8A8       Per_Injector_Pulse_Width_Compensation_C_X_Axis
 0000:000CA8EC       Per_Injector_Pulse_Width_Compensation_C_Y_Axis
 0000:000CA930       Per_Injector_Pulse_Width_Compensation_C
 0000:000CAA54       Per_Injector_Pulse_Width_Compensation_D_X_Axis
 0000:000CAA98       Per_Injector_Pulse_Width_Compensation_D_Y_Axis
 0000:000CAADC       Per_Injector_Pulse_Width_Compensation_D
 0000:000CAFE0       CL_Fueling_Target_Compensation_Imm_Cruise_ECT_Y_Axis
 0000:000CAFEC       CL_Fueling_Target_Compensation_Imm_Cruise_ECT
 0000:000CAFFE       aA_24
 0000:000CB000       aA_25
 0000:000CB002       aA_26
 0000:000CB004       aA_27
 0000:000CB006       aA_28
 0000:000CB008       aA_29
 0000:000CB00A       aA_30
 0000:000CB00C       aSSSMJfsSMA
 0000:000CB01E       aA_31
 0000:000CB020       aA_32
 0000:000CB022       aA_33
 0000:000CB024       aA_34
 0000:000CB026       aA_35
 0000:000CB028       aA_36
 0000:000CB02A       aA_37
 0000:000CB02C       aJfjfjfsJfsSMA
 0000:000CB03E       aA_38
 0000:000CB040       aA_39
 0000:000CB042       aA_40
 0000:000CB044       aA_41
 0000:000CB046       aA_42
 0000:000CB048       aA_43
 0000:000CB04A       aA_44
 0000:000CB04C       a?m?
 0000:000CB054       a?SssSSSSSMA
 0000:000CB068       aA_45
 0000:000CB06A       aA_46
 0000:000CB06C       aA_47
 0000:000CB06E       aA_48
 0000:000CB070       aA_49
 0000:000CB072       aA_50
 0000:000CB074       aA_51
 0000:000CB076       aA_52
 0000:000CB078       aJfjfjfjfsSSSSA
 0000:000CB08C       aA_53
 0000:000CB08E       aA_54
 0000:000CB090       aA_55
 0000:000CB092       aA_56
 0000:000CB094       aA_57
 0000:000CB096       aA_58
 0000:000CB098       aJfjfjfjfjfjfjf
 0000:000CB0B2       aA_59
 0000:000CB0B4       aA_60
 0000:000CB0B6       aA_61
 0000:000CB0B8       CL_Fueling_Target_Compensation_Imm_NonCruise_ECT_Y_Axis
 0000:000CB0C4       CL_Fueling_Target_Compensation_Imm_NonCruise_ECT
 0000:000CB0D4       aA_62
 0000:000CB0D6       aA_63
 0000:000CB0D8       aA_64
 0000:000CB0DA       aA_65
 0000:000CB0DC       aA_66
 0000:000CB0DE       aA_67
 0000:000CB0E0       aA_68
 0000:000CB0E2       aA_69
 0000:000CB0E4       aJfjfjfjfsSSS_0
 0000:000CB0F8       aA_70
 0000:000CB0FA       aA_71
 0000:000CB0FC       aA_72
 0000:000CB0FE       aA_73
 0000:000CB100       aA_74
 0000:000CB102       aA_75
 0000:000CB104       aJfjfjfjfjfjf_0
 0000:000CB11E       aA_76
 0000:000CB120       aA_77
 0000:000CB122       aA_78
 0000:000CB124       aLSss?_1
 0000:000CB384       CL_Fueling_Target_Compensation_A_Load_X_Axis
 0000:000CB3B0       CL_Fueling_Target_Compensation_A_Load_Y_Axis
 0000:000CB3DC       CL_Fueling_Target_Compensation_A_Load
 0000:000CB4D0       CL_Fueling_Target_Compensation_B_Load_X_Axis
 0000:000CB4FC       CL_Fueling_Target_Compensation_B_Load_Y_Axis
 0000:000CB528       CL_Fueling_Target_Compensation_B_Load
 0000:000CBEA0       Feedback_Correction_Negative_Advance_Delay
 0000:000CBEB0       Fine_Correction_Advance_Delay
 0000:000CBF0C       a?333?333?333?3
 0000:000CBF98       Base_Timing_Idle_Minimum_Vehicle_Speed_Enable
 0000:000CC0AC       aLLLA
 0000:000CC0C0       aAp
 0000:000CC0C4       aA@
 0000:000CC0E0       Timing_Compensation_B_IAT_Max_Additive
 0000:000CC0FC       Timing_Compensation_B_IAT_IAM_Activation
 0000:000CC100       Timing_Comp_Maximum_RPM_Per_Cylinder
 0000:000CC104       Timing_Comp_Minimum_Load_Per_Cylinder
 0000:000CC108       Timing_Comp_Minimum_Coolant_Temp_Per_Cylinder
 0000:000CC10C       Feedback_Correction_Minimum_Load
 0000:000CC114       Feedback_Correction_Range_RPM
 0000:000CC130       Feedback_Correction_Retard_Limit
 0000:000CC134       Feedback_Correction_Retard_Value
 0000:000CC138       Feedback_Correction_Negative_Advance_Value
 0000:000CC140       Extended_Feedback_Correction_High_RPM_Compensation
 0000:000CC150       Fine_Correction_Minimum_RPM
 0000:000CC20C       Rough_Correction_Range_RPM
 0000:000CC21C       Rough_Correction_Range_Load
 0000:000CC22C       Rough_Correction_Minimum_KC_Advance_Map_Value
 0000:000CC230       Advance_Multiplier_Initial
 0000:000CC234       Advance_Multiplier_Step_Value
 0000:000CC25C       Fine_Correction_Columns_Load
 0000:000CC26C       Fine_Correction_Rows_RPM
 0000:000CC290       Fine_Correction_Advance_Limit
 0000:000CC294       Fine_Correction_Advance_Value
 0000:000CC298       Fine_Correction_Retard_Limit
 0000:000CC29C       Fine_Correction_Retard_Value
 0000:000CC2A0       Fine_Correction_Maximum_RPM
 0000:000CC2A8       Fine_Correction_Range_Load
 0000:000CC2AC       a?jff@33@Ffdta
 0000:000CC2BC       aCc
 0000:000CC2C0       aBc
 0000:000CC2C4       a?@
 0000:000CC2C8       aDz
 0000:000CC2CC       a?_2
 0000:000CC2D0       aR
 0000:000CC2D4       a@a_6
 0000:000CC2DC       a?_3
 0000:000CC2E4       Timing_Compensation_ECT_Y_Axis
 0000:000CC374       aRrrrrrrrdug
 0000:000CC478       Base_Timing_Idle_Minimum_Y_Axis
 0000:000CC49C       Base_Timing_Idle_Minimum
 0000:000CC4A5       Base_Timing_Idle_A_InGear
 0000:000CC4B5       Base_Timing_Idle_B_InGear
 0000:000CC4C5       Base_Timing_Idle_A_Neutral
 0000:000CC4D5       Base_Timing_Idle_B_Neutral
 0000:000CC505       Timing_Compensation_ECT
 0000:000CC518       Timing_Compensation_A_IAT_Y_Axis
 0000:000CC558       Timing_Compensation_A_IAT
 0000:000CC69C       a99guuuuu
 0000:000CC6EC       a9uuuuuuu
 0000:000CC73C       a9gdddddd
 0000:000CC78C       a9gdddddd_0
 0000:000CC7DC       a9uuuuuuu_0
 0000:000CC854       Timing_Compensation_B_IAT_Y_Axis
 0000:000CC894       Timing_Compensation_B_IAT
 0000:000CC8A4       Rough_Correction_Learning_Delay_Increasing_Y_Axis
 0000:000CC8CC       Rough_Correction_Learning_Delay_Increasing
 0000:000CCAE0       aIIU0wfrRNS
 0000:000CCB00       aIIPnwfrRNS
 0000:000CCF50       Base_Timing_Primary_Cruise_X_Axis
 0000:000CCF8C       Base_Timing_Primary_Cruise_Y_Axis
 0000:000CCFD4       Base_Timing_Primary_Cruise
 0000:000CD0E4       Base_Timing_Primary_NonCruise_X_Axis
 0000:000CD120       Base_Timing_Primary_NonCruise_Y_Axis
 0000:000CD168       Base_Timing_Primary_NonCruise
 0000:000CD278       Base_Timing_Reference_Cruise_AVCS_related_X_Axis
 0000:000CD2B4       Base_Timing_Reference_Cruise_AVCS_related_Y_Axis
 0000:000CD2FC       Base_Timing_Reference_Cruise_AVCS_related
 0000:000CD40C       Base_Timing_Reference_NonCruise_AVCS_related_X_Axis
 0000:000CD448       Base_Timing_Reference_NonCruise_AVCS_related_Y_Axis
 0000:000CD490       Base_Timing_Reference_NonCruise_AVCS_related
 0000:000CD5A0       Timing_Compensation_A_IAT_Activation_X_Axis
 0000:000CD5C0       Timing_Compensation_A_IAT_Activation_Y_Axis
 0000:000CD5E0       Timing_Compensation_A_IAT_Activation
 0000:000CD5F0       aAaaaaaaaaaaa_1
 0000:000CD7F0       Timing_Compensation_MRP_X_Axis
 0000:000CD804       Timing_Compensation_MRP_Y_Axis
 0000:000CD810       Timing_Compensation_MRP
 0000:000CD820       Timing_Compensation_Per_Cylinder_A_X_Axis
 0000:000CD858       Timing_Compensation_Per_Cylinder_A_Y_Axis
 0000:000CD86C       Timing_Compensation_Per_Cylinder_A
 0000:000CD8B4       Timing_Compensation_Per_Cylinder_B_X_Axis
 0000:000CD8EC       Timing_Compensation_Per_Cylinder_B_Y_Axis
 0000:000CD900       Timing_Compensation_Per_Cylinder_B
 0000:000CD948       Timing_Compensation_Per_Cylinder_C_X_Axis
 0000:000CD980       Timing_Compensation_Per_Cylinder_C_Y_Axis
 0000:000CD994       Timing_Compensation_Per_Cylinder_C
 0000:000CD9DC       Timing_Compensation_Per_Cylinder_D_X_Axis
 0000:000CDA14       Timing_Compensation_Per_Cylinder_D_Y_Axis
 0000:000CDA2C       Timing_Compensation_Per_Cylinder_D
 0000:000CDC48       Knock_Correction_Advance_Max_NonCruise_X_Axis
 0000:000CDC84       Knock_Correction_Advance_Max_NonCruise_Y_Axis
 0000:000CDCCC       Knock_Correction_Advance_Max_NonCruise
 0000:000CDDDC       Knock_Correction_Advance_Max_Cruise_X_Axis
 0000:000CDE18       Knock_Correction_Advance_Max_Cruise_Y_Axis
 0000:000CDE60       Knock_Correction_Advance_Max_Cruise
 0000:000CE1B8       a??l?sss?jff?a
 0000:000CE1CC       a??l?a
 0000:000CE1D8       a?jff?jff?333?f
 0000:000CE1EC       a?jff?a
 0000:000CE1F4       a?a
 0000:000CE1F8       a?
 0000:000CE1FC       a@0
 0000:000CE200       a@@
 0000:000CE204       a@a_0
 0000:000CE208       a@@_0
 0000:000CE20C       aB
 0000:000CE210       a@a_1
 0000:000CE21C       a@a_2
 0000:000CE554       aP
 0000:000CE568       a@
 0000:000CE570       aBa
 0000:000CE574       aL
 0000:000CE580       aBh
 0000:000CE584       aB_0
 0000:000CE588       aC
 0000:000CE58C       aA
 0000:000CE590       a@a_3
 0000:000CE594       a@_0
 0000:000CE648       Idle_Speed_Target_C_Y_Axis
 0000:000CE7CC       aAaaaaaaaaaaaaa
 0000:000CEB1C       Idle_Speed_Target_A
 0000:000CEB5C       Idle_Speed_Target_B
 0000:000CEB9C       Idle_Speed_Target_C
 0000:000CF2F4       aAjffbFfbyssbjf
 0000:000CF380       aDsiieatEgEs0
 0000:000CF390       aEjQeEpe
 0000:000CF3CC       Requested_Torque_Base_RPM__Y_Axis
 0000:000CF40C       Requested_Torque_Base_RPM_
 0000:000CF46C       aDh
 0000:000CF52C       a?333?l?jff?jff
 0000:000D0274       Manifold_Pressure_Sensor_Limits_CEL
 0000:000D02C8       a_ffboff@c1S
 0000:000D0614       MAF_Sensor_Scaling_Y_Axis
 0000:000D06EC       MAF_Sensor_Scaling
 0000:000D07C4       Front_Oxygen_Sensor_Scaling_Y_Axis
 0000:000D07F8       Front_Oxygen_Sensor_Scaling
 0000:000D0880       a@fff@fff@fff@c
 0000:000D0894       a@c33@fff@iss@i
 0000:000D0D48       aSssSss?fff?
 0000:000D0F7C       Radiator_Fan_Modes_A_ECT
 0000:000D0F8C       Radiator_Fan_Modes_B_ECT
 0000:000D0F9C       Radiator_Fan_Modes_Veh_Speed
 0000:000D1528       dEcuId
 0000:000D1AF8       a?La33bs33b
 0000:000D1B0C       aA_0
 0000:000D1B10       a@a_4
 0000:000D1B14       aA_1
 0000:000D1B18       a@a_5
 0000:000D1B1C       a?a_0
 0000:000D1B20       a?a_1
 0000:000D1B24       a?_0
 0000:000D1B28       a?_1
 0000:000D1B2C       a?a_2
 0000:000D1B30       a?a_3
 0000:000D225C       Intake_Cam_Advance_Angle_Cruise_AVCS_X_Axis
 0000:000D2298       Intake_Cam_Advance_Angle_Cruise_AVCS_Y_Axis
 0000:000D22D8       Intake_Cam_Advance_Angle_Cruise_AVCS
 0000:000D24B8       Intake_Cam_Advance_Angle_NonCruise_AVCS_X_Axis
 0000:000D24F4       Intake_Cam_Advance_Angle_NonCruise_AVCS_Y_Axis
 0000:000D2534       Intake_Cam_Advance_Angle_NonCruise_AVCS
 0000:000DB844       Speed_Limiting_A_Throttle_SIDRIVE_SportSport_Sharp
 0000:000DB850       Speed_Limiting_Throttle_SIDRIVE_Intelligent
 0000:000DB85C       Speed_Limiting_B_Throttle_SIDRIVE_SportSport_Sharp
 0000:000DBD24       aAaaaaaaaaaaa_0
 0000:000DBDE4       Target_Throttle_Plate_Position_Cruise_Requested_Torque_Ratio_X_Axis
 0000:000DBDE8       aLLSss?
 0000:000DBE24       Target_Throttle_Plate_Position_Cruise_Requested_Torque_Ratio_Y_Axis
 0000:000DBE64       Target_Throttle_Plate_Position_Cruise_Requested_Torque_Ratio
 0000:000DC064       Target_Throttle_Plate_Position_NonCruise_Requested_Torque_Ratio_X_Axis
 0000:000DC068       aLLSss?_0
 0000:000DC0A4       Target_Throttle_Plate_Position_NonCruise_Requested_Torque_Ratio_Y_Axis
 0000:000DC0E4       Target_Throttle_Plate_Position_NonCruise_Requested_Torque_Ratio
 0000:000DC2E4       Target_Throttle_Plate_Position_Maximum_Requested_Torque_Ratio_X_Axis
 0000:000DC2E8       aLLSss?_1
 0000:000DC324       Target_Throttle_Plate_Position_Maximum_Requested_Torque_Ratio_Y_Axis
 0000:000DC364       Target_Throttle_Plate_Position_Maximum_Requested_Torque_Ratio
 0000:000DC564       Requested_Torque_Accelerator_Pedal_SIDRIVE_Sport_X_Axis
 0000:000DC5A0       Requested_Torque_Accelerator_Pedal_SIDRIVE_Sport_Y_Axis
 0000:000DC5E4       Requested_Torque_Accelerator_Pedal_SIDRIVE_Sport
 0000:000DC7E4       Requested_Torque_Accelerator_Pedal_SIDRIVE_Sport_Sharp_X_Axis
 0000:000DC820       Requested_Torque_Accelerator_Pedal_SIDRIVE_Sport_Sharp_Y_Axis
 0000:000DC864       Requested_Torque_Accelerator_Pedal_SIDRIVE_Sport_Sharp
 0000:000DCA64       Requested_Torque_Accelerator_Pedal_SIDRIVE_Intelligent_X_Axis
 0000:000DCAA0       Requested_Torque_Accelerator_Pedal_SIDRIVE_Intelligent_Y_Axis
 0000:000DCAE4       Requested_Torque_Accelerator_Pedal_SIDRIVE_Intelligent
 0000:000E1000       dRomHOleStart
 0000:000FFB80       Checksum_Fix
 0000:FFFF2BAC       E_AF_Learning_1_A_StoredExt_E44
 0000:FFFF2BB4       E_AF_Learning_1_B_StoredExt_E45
 0000:FFFF2BBC       E_AF_Learning_1_C_StoredExt_E46
 0000:FFFF2BC4       E_AF_Learning_1_D_StoredExt_E47
 0000:FFFF2C30       E_IAM_4byteExt_E31
 0000:FFFF5C02       pMafSensorVoltage
 0000:FFFF5CA4       pIntakeAirTemp
 0000:FFFF5CB4       pCoolantTemp
 0000:FFFF5CD8       pMassAirFlow
 0000:FFFF5F10       pAf1Res
 0000:FFFF6428       E_Boost_ErrorExt_E35
 0000:FFFF642C       E_Target_Boost_4byteExt_E36
 0000:FFFF6430       E_Turbo_Dynamics_Proportional_4byteExt_E37
 0000:FFFF6434       E_Turbo_Dynamics_Integral_4byteExt_E34
 0000:FFFF6450       E_Primary_Wastegate_Duty_MaximumExt_4byteExt__E77
 0000:FFFF6474       E_Target_Boost_Relative_4byteExt_E120
 0000:FFFF66F6       pCoastFlags
 0000:FFFF66F7       pResumeFlags
 0000:FFFF66F8       pBrakeFlags
 0000:FFFF6970       E_Manifold_Relative_Sea_Level_Pressure_4byteExt_E52
 0000:FFFF6974       E_Manifold_Relative_Pressure_4byteExt_E113
 0000:FFFF6A10       E_Throttle_Plate_Opening_Angle_4byteExt_E38
 0000:FFFF6A20       E_Tipin_ThrottleExt_E54
 0000:FFFF6B30       E_Engine_Load_4ByteExt_E32
 0000:FFFF6C68       E_AF_Sensor_1_4byteExt_E91
 0000:FFFF6CE5       pClutchFlags
 0000:FFFF6D08       pVehicleSpeed
 0000:FFFF6D34       pEngineSpeed
 0000:FFFF6F09       E_Gear_CalculatedExt_E59
 0000:FFFF6F1C       E_Primary_Wastegate_Duty_MaximumExt_2byteExtExt_E78
 0000:FFFF6F1E       E_Turbo_Dynamics_Integral_2byteExtExt_E79
 0000:FFFF6F20       E_Turbo_Dynamics_Proportional_2byteExtExt_E80
 0000:FFFF6F24       E_AF_Correction_1_2byteExtExt_E82
 0000:FFFF6F28       E_AF_Learning_1_2byteExtExt_E83
 0000:FFFF6F2A       E_Primary_Open_Loop_Map_Enrichment_2byteExtExt_E85
 0000:FFFF6F2E       E_Final_Fueling_Base_2byteExt_E124
 0000:FFFF6F30       E_Engine_Load_2byteExtExt_E87
 0000:FFFF6F3E       E_Manifold_Relative_Sea_Level_Pressure_2byteExtExt_E89
 0000:FFFF6F42       E_Target_Boost_2byteExtExt_E90
 0000:FFFF6F44       E_AF_Sensor_1_2byteExtExt_E92
 0000:FFFF6F4A       E_Closed_Loop_Fueling_Target_2byteExt_E122
 0000:FFFF6F4C       E_Throttle_Plate_Opening_Angle_2byteExtExt_E93
 0000:FFFF6F56       E_Feedback_Knock_Correction_1byteExtExt_E94
 0000:FFFF6F59       E_Fine_Learning_Knock_Correction_1byteExtExt_E95
 0000:FFFF6F5B       E_IAM_1byteExtExt_E96
 0000:FFFF6F70       pAtmoPress
 0000:FFFF7204       E_Final_Fueling_Base_4byteExt_E123
 0000:FFFF7234       E_Primary_Enrichment_Final_4byteExt_E115
 0000:FFFF72BC       E_AF_Correction_1_4byteExt_E81
 0000:FFFF72CC       E_Closed_Loop_Fueling_Target_4byteExt_E121
 0000:FFFF75A4       E_AF_Learning_1_4byteExt_E48
 0000:FFFF75AD       E_AF_Learning_Airflow_Range_CurrentExt_E61
 0000:FFFF7690       E_Primary_Open_Loop_Map_Enrichment_4byteExt_E84
 0000:FFFF781C       E_Tipin_Enrichment_Last_CalculatedExt_E55
 0000:FFFF7890       pFlagsRevLim
 0000:FFFF793C       E_Fuel_Injector_1_Pulse_Width_4byteExt_E60
 0000:FFFF7950       E_Fuel_Injector_1_Latency_4byteExt_E50
 0000:FFFF7A8C       E_Ignition_Base_TimingExt_E53
 0000:FFFF7C18       E_Knock_SumExt_E114
 0000:FFFF7C3C       E_Knock_Correction_Advance_4byteExt_E43
 0000:FFFF7C40       E_Feedback_Knock_Correction_4byteExt_E39
 0000:FFFF7C9C       E_Knock_Correction_Advance_Max_PrimaryExt_E118
 0000:FFFF7CA4       E_Knock_Correction_Advance_IAM_onlyExt_E40
 0000:FFFF7CC4       E_Fine_Learning_Knock_Correction_4byteExt_E41
 0000:FFFF7CCA       E_Fine_Learning_Table_OffsetExt_E58
 0000:FFFF7F34       E_Target_Throttle_Plate_PositionExt_E57
 0000:FFFF7F4C       E_Requested_TorqueExt_E56
 0000:FFFF82E0       E_Idle_Speed_Map_SelectionExt_E49
 0000:FFFF981E       sCelSignalOem
 0000:FFFF99ED       E_CLOL_FuelingExt_E33
 0000:FFFFA570       pRamHoleStart
 0000:FFFFBF7F       pRamHoleEnd
 0000:FFFFBFBB       pMemoryResetLimit
