
 Start         Length     Name                   Class
 0000:00000000 000100000H ROM                    CODE
 0000:00000000 00000FFFFH RAM                    


  Address         Publics by Value

 0000:00000000       off_0
 0000:00002000       dCalId
 0000:00002001       a2wc412i
 0000:00002038       aPf_21zh4t_ft_5
 0000:00002058       a21zcom1_10
 0000:0000209C       sPull2DFloat
 0000:00002150       sPull3DFloat
 0000:00004D5C       nullsub_5
 0000:00004D60       nullsub_1
 0000:00004D64       nullsub_6
 0000:00004F32       nullsub_2
 0000:00004F7C       nullsub_7
 0000:00004F92       nullsub_3
 0000:00004F96       nullsub_8
 0000:00004FB2       nullsub_9
 0000:00004FB6       nullsub_4
 0000:00004FBA       nullsub_10
 0000:00005002       nullsub_11
 0000:000055B4       aOFocatnCF
 0000:000055E0       aFCatCF4cat6CF_
 0000:00005CFA       aOFucatCA
 0000:000079A8       sMafCalc
 0000:00007A04       hMafCalc
 0000:0000D324       hMemoryReset
 0000:0000F404       aCuE0f@
 0000:0000F928       sMemoryReset
 0000:0000FF84       aGlu73nFEltEEE
 0000:0000FFF8       hMemoryResetLimit
 0000:000121E4       hTargetBoost
 0000:000121E8       hWgdc
 0000:00012370       aCoCNcBDuCDuBDu
 0000:00012391       aB_3
 0000:00012397       aC_0
 0000:0001239D       aBDuC
 0000:000123A9       aBDu9c
 0000:000124A8       aCORcNcPb
 0000:000124B9       aPc
 0000:000124BF       aOb
 0000:000124C5       aOc
 0000:000124CB       aNb
 0000:000124D1       aNc
 0000:000124D7       aMb
 0000:000124DD       aMc
 0000:000124E3       aLb
 0000:00012710       hRevLimDelete
 0000:000147C8       sWgdc
 0000:00014A6E       sTargetBoost
 0000:0001500C       hPullWgdc
 0000:000152BC       Max_Wastegate_Duty_Limit_PostCompensation
 0000:000168D0       CoastBitMask_0x02
 0000:000168E0       sResumeCheck
 0000:0001690C       BrakeBitMask_0x08
 0000:00018BE2       ResumeBitMask_0x04
 0000:0001A4AC       aCJCJoQC
 0000:0001F1A8       sLoadCalcs
 0000:0001F654       Engine_Load_Limit_Maximum
 0000:0002157C       Front_Oxygen_Sensor_Rich_Limit
 0000:00022326       ClutchBitMask_0x80
 0000:00028818       hInjectorScaling
 0000:0002F714       sRevLimStart
 0000:0002F746       RevLimitBitMask_0x80
 0000:0002F74A       sRevLimEnd
 0000:00030F1C       aCO8AU
 0000:00038EF4       aCOBcF
 0000:00046AB0       aOT5c0f1@
 0000:0004795A       SsmGet_Learned_Ignition_Timing_Correction_P153
 0000:00047960       SsmGet_Coolant_Temperature_P2
 0000:0004796E       SsmGet_AF_Correction_1_P3
 0000:0004798A       SsmGet_AF_Learning_1_P4
 0000:0004799A       SsmGet_Manifold_Absolute_Pressure_P7
 0000:000479A8       SsmGet_Engine_Speed_P8
 0000:000479D6       SsmGet_Vehicle_Speed_P9
 0000:000479E2       SsmGet_Ignition_Total_Timing_P10
 0000:000479F2       SsmGet_Intake_Air_Temperature_P11
 0000:00047A00       SsmGet_Mass_Airflow_P12
 0000:00047A2E       SsmGet_Throttle_Opening_Angle_P13
 0000:00047A3C       SsmGet_Rear_O2_Sensor_P15
 0000:00047A6A       SsmGet_Battery_Voltage_P17
 0000:00047A78       SsmGet_Mass_Airflow_Sensor_Voltage_P18
 0000:00047A9C       SsmGet_Throttle_Sensor_Voltage_P19
 0000:00047AC0       SsmGet_Fuel_Injector_1_Pulse_Width_P21
 0000:00047AD4       SsmGet_Knock_Correction_Advance_P23
 0000:00047AE4       SsmGet_Atmospheric_Pressure_P24
 0000:00047BB4       SsmGet_Manifold_Relative_Pressure_P25
 0000:00047BD2       SsmGet_Fuel_Tank_Pressure_P27
 0000:00047BE2       SsmGet_Accelerator_Pedal_Angle_P30
 0000:00047BF0       SsmGet_Fuel_Temperature_P31
 0000:00047BFE       SsmGet_Fuel_Level_P35
 0000:00047C0C       SsmGet_Primary_Wastegate_Duty_Cycle_P36
 0000:00047C1A       SsmGet_CPC_Valve_Duty_Ratio_P38
 0000:00047C32       SsmGet_Tumble_Valve_Position_Sensor_Right_P39
 0000:00047C56       SsmGet_Tumble_Valve_Position_Sensor_Left_P40
 0000:00047C7A       SsmGet_Idle_Speed_Control_Valve_Duty_Ratio_P41
 0000:00047C8C       SsmGet_Alternator_Duty_P46
 0000:00047C9C       SsmGet_Fuel_Pump_Duty_P47
 0000:00047CAA       SsmGet_Intake_VVT_Advance_Angle_Right_P48
 0000:00047CB8       SsmGet_Intake_VVT_Advance_Angle_Left_P49
 0000:00047CC6       SsmGet_Intake_OCV_Duty_Right_P50
 0000:00047CD4       SsmGet_Intake_OCV_Duty_Left_P51
 0000:00047CE2       SsmGet_Intake_OCV_Current_Right_P52
 0000:00047CF0       SsmGet_Intake_OCV_Current_Left_P53
 0000:00047CFE       SsmGet_AF_Sensor_1_Current_P54
 0000:00047D0E       SsmGet_AF_Sensor_1_Resistance_P56
 0000:00047D1A       SsmGet_AF_Sensor_1_P58
 0000:00047D32       SsmGet_Switches_x_1_2_3_x_69_70_71
 0000:00047EB0       SsmGet_Switches_4_5_x_6_7_8_9_x
 0000:00047F88       SsmGet_Switches_10_11_12_13_14_15_16_17
 0000:0004803A       SsmGet_Switches_18_19_20_21_22_23_24_25
 0000:000481A2       SsmGet_Switches_26_27_28_29_30_31_32_33
 0000:00048254       SsmGet_Switches_34_35_36_37_38_39_40_41
 0000:00048312       SsmGet_Switches_42_43_44_45_46_47_48_49
 0000:00048322       SsmGet_Switches_72_73_74_75_50_51_52_53
 0000:0004840C       SsmGet_Switches_54_55_56_57_58_59_60_61
 0000:00048444       SsmGet_Switches_76_77_78_79_80_81_82_83
 0000:00048454       SsmGet_Switches_84_85_86_87_88_89_90_91
 0000:00048464       SsmGet_Switches_92_93_94_95_96_97_98_99
 0000:00048474       SsmGet_Switches_100_101_102_103_104_105_106_107
 0000:00048484       SsmGet_Switches_108_109_110_111_112_113_114_115
 0000:00048532       SsmGet_Roughness_Monitor_Cylinder_1_P63
 0000:00048538       SsmGet_Roughness_Monitor_Cylinder_2_P64
 0000:00048588       SsmGet_AF_Correction_3_32bit_ECU_P89
 0000:00048598       SsmGet_Switches_116_117_118_119_120_121_122_123
 0000:000485A8       SsmGet_Switches_x_x_124_125_126_127_128_129
 0000:0004861A       SsmGet_Switches_142_143_144_145_146_147_x_x
 0000:0004862A       SsmGet_Switches_148_149_x_150_151_152_153_154
 0000:000486B6       SsmGet_Roughness_Monitor_Cylinder_3_P69
 0000:000486BC       SsmGet_Roughness_Monitor_Cylinder_4_P70
 0000:00048976       SsmGet_Throttle_Motor_Duty_P71
 0000:00048986       SsmGet_Throttle_Motor_Voltage_P72
 0000:00048994       SsmGet_Sub_Throttle_Sensor_P73
 0000:000489B8       SsmGet_Main_Throttle_Sensor_P74
 0000:000489DC       SsmGet_Sub_Accelerator_Sensor_P75
 0000:00048A00       SsmGet_Main_Accelerator_Sensor_P76
 0000:00048A24       SsmGet_Exhaust_Gas_Temperature_P79
 0000:00048A34       SsmGet_Memorised_Cruise_Speed_P82
 0000:00048A40       SsmGet_Fuel_Level_Sensor_Resistance_P119
 0000:00048A52       SsmGet_Estimated_odometer_P120
 0000:00048A74       SsmGet_Exhaust_VVT_Advance_Angle_Right_P83
 0000:00048A80       SsmGet_Exhaust_VVT_Advance_Angle_Left_P84
 0000:00048A8C       SsmGet_Exhaust_OCV_Duty_Right_P85
 0000:00048B34       SsmGet_Exhaust_OCV_Duty_Left_P86
 0000:00048B46       SsmGet_Exhaust_OCV_Current_Right_P87
 0000:00048B54       SsmGet_Exhaust_OCV_Current_Left_P88
 0000:00048B62       SsmGet_Switches_130_62_131_x_x_x_x_x
 0000:00048C66       SsmGet_Switches_63_64_65_66_67_132_68_133
 0000:00048D96       SsmGet_Switches_134_135_136_137_138_139_140_141
 0000:00048E3A       SsmGet_Switches_168_169_170_171_172_x_x_x
 0000:00048E3E       SsmGet_Boost_Pressure_Feedback_P168
 0000:00048EBE       SsmGet_Interior_Heater_P178
 0000:00048ECC       SsmGet_Battery_Current_P183
 0000:00048EF0       SsmGet_Alternator_Control_Mode_P185
 0000:00048EF6       SsmGet_Battery_Temperature_P184
 0000:00048F02       SsmGet_Exhaust_Gas_Temperature_at_Diesel_Particulate_Filter_DPF_Inlet_P189
 0000:0004D6F0       SSM_BASE
 0000:0004D70C       PtrSsmGet_Engine_Load_Relative_P1
 0000:0004D710       PtrSsmGet_Coolant_Temperature_P2
 0000:0004D714       PtrSsmGet_AF_Correction_1_P3
 0000:0004D718       PtrSsmGet_AF_Learning_1_P4
 0000:0004D71C       PtrSsmGet_AF_Correction_2_P5
 0000:0004D720       PtrSsmGet_AF_Learning_2_P6
 0000:0004D724       PtrSsmGet_Manifold_Absolute_Pressure_P7
 0000:0004D728       PtrSsmGet_Engine_Speed_P8
 0000:0004D730       PtrSsmGet_Vehicle_Speed_P9
 0000:0004D734       PtrSsmGet_Ignition_Total_Timing_P10
 0000:0004D738       PtrSsmGet_Intake_Air_Temperature_P11
 0000:0004D73C       PtrSsmGet_Mass_Airflow_P12
 0000:0004D744       PtrSsmGet_Throttle_Opening_Angle_P13
 0000:0004D748       PtrSsmGet_Front_O2_Sensor_1_P14
 0000:0004D750       PtrSsmGet_Rear_O2_Sensor_P15
 0000:0004D758       PtrSsmGet_Front_O2_Sensor_2_P16
 0000:0004D760       PtrSsmGet_Battery_Voltage_P17
 0000:0004D764       PtrSsmGet_Mass_Airflow_Sensor_Voltage_P18
 0000:0004D768       PtrSsmGet_Throttle_Sensor_Voltage_P19
 0000:0004D76C       PtrSsmGet_Differential_Pressure_Sensor_Voltage_P20
 0000:0004D770       PtrSsmGet_Fuel_Injector_1_Pulse_Width_P21
 0000:0004D774       PtrSsmGet_Fuel_Injector_2_Pulse_Width_P22
 0000:0004D778       PtrSsmGet_Knock_Correction_Advance_P23
 0000:0004D77C       PtrSsmGet_Atmospheric_Pressure_P24
 0000:0004D780       PtrSsmGet_Manifold_Relative_Pressure_P25
 0000:0004D784       PtrSsmGet_Pressure_Differential_Sensor_P26
 0000:0004D788       PtrSsmGet_Fuel_Tank_Pressure_P27
 0000:0004D78C       PtrSsmGet_CO_Adjustment_P28
 0000:0004D790       PtrSsmGet_Learned_Ignition_Timing_P29
 0000:0004D794       PtrSsmGet_Accelerator_Pedal_Angle_P30
 0000:0004D798       PtrSsmGet_Fuel_Temperature_P31
 0000:0004D79C       PtrSsmGet_Front_O2_Heater_Current_1_P32
 0000:0004D7A0       PtrSsmGet_Rear_O2_Heater_Current_P33
 0000:0004D7A4       PtrSsmGet_Front_O2_Heater_Current_2_P34
 0000:0004D7A8       PtrSsmGet_Fuel_Level_P35
 0000:0004D7AC       PtrSsmGet_Radiator_Fan_Control_P92
 0000:0004D7B0       PtrSsmGet_Primary_Wastegate_Duty_Cycle_P36
 0000:0004D7B4       PtrSsmGet_Secondary_Wastegate_Duty_Cycle_P37
 0000:0004D7B8       PtrSsmGet_CPC_Valve_Duty_Ratio_P38
 0000:0004D7BC       PtrSsmGet_Tumble_Valve_Position_Sensor_Right_P39
 0000:0004D7C0       PtrSsmGet_Tumble_Valve_Position_Sensor_Left_P40
 0000:0004D7C4       PtrSsmGet_Idle_Speed_Control_Valve_Duty_Ratio_P41
 0000:0004D7C8       PtrSsmGet_AF_Lean_Correction_P42
 0000:0004D7CC       PtrSsmGet_AF_Heater_Duty_P43
 0000:0004D7D0       PtrSsmGet_Idle_Speed_Control_Valve_Step_P44
 0000:0004D7D4       PtrSsmGet_Number_of_Exh_Gas_Recirc_Steps_P45
 0000:0004D7D8       PtrSsmGet_Alternator_Duty_P46
 0000:0004D7DC       PtrSsmGet_Fuel_Pump_Duty_P47
 0000:0004D7E0       PtrSsmGet_Intake_VVT_Advance_Angle_Right_P48
 0000:0004D7E4       PtrSsmGet_Intake_VVT_Advance_Angle_Left_P49
 0000:0004D7E8       PtrSsmGet_Intake_OCV_Duty_Right_P50
 0000:0004D7EC       PtrSsmGet_Intake_OCV_Duty_Left_P51
 0000:0004D7F0       PtrSsmGet_Intake_OCV_Current_Right_P52
 0000:0004D7F4       PtrSsmGet_Intake_OCV_Current_Left_P53
 0000:0004D7F8       PtrSsmGet_AF_Sensor_1_Current_P54
 0000:0004D7FC       PtrSsmGet_AF_Sensor_2_Current_P55
 0000:0004D800       PtrSsmGet_AF_Sensor_1_Resistance_P56
 0000:0004D804       PtrSsmGet_AF_Sensor_2_Resistance_P57
 0000:0004D808       PtrSsmGet_AF_Sensor_1_P58
 0000:0004D80C       PtrSsmGet_AF_Sensor_2_P59
 0000:0004D810       PtrSsmGet_Front_Wheel_Speed_P93
 0000:0004D814       PtrSsmGet_ATF_Temperature_P94
 0000:0004D818       PtrSsmGet_Gear_Position_P60
 0000:0004D81C       PtrSsmGet_Line_Pressure_Duty_Ratio_P95
 0000:0004D820       PtrSsmGet_Lock_Up_Duty_Ratio_P96
 0000:0004D824       PtrSsmGet_Transfer_Duty_Ratio_P97
 0000:0004D828       PtrSsmGet_Throttle_Sensor_Voltage_P98
 0000:0004D82C       PtrSsmGet_Turbine_Revolution_Speed_P99
 0000:0004D830       PtrSsmGet_Brake_Clutch_Duty_Ratio_P100
 0000:0004D834       PtrSsmGet_Rear_Wheel_Speed_P101
 0000:0004D838       PtrSsmGet_Manifold_Pressure_Sensor_Voltage_P102
 0000:0004D83C       PtrSsmGet_AF_Sensor_1_Heater_Current_P61
 0000:0004D840       PtrSsmGet_AF_Sensor_2_Heater_Current_P62
 0000:0004D844       PtrSsmGet_Lateral_G_Sensor_Voltage_P103
 0000:0004D848       PtrSsmGet_ATF_Temperature_P104
 0000:0004D84C       PtrSsmGet_Low_Clutch_Duty_P105
 0000:0004D850       PtrSsmGet_High_Clutch_Duty_P106
 0000:0004D854       PtrSsmGet_Load_and_Reverse_Brake_L_and_RB_Duty_P107
 0000:0004D858       PtrSsmGet_ATF_Temperature_2_P108
 0000:0004D85C       PtrSsmGet_Voltage_Center_Differential_Switch_P109
 0000:0004D860       PtrSsmGet_AT_Turbine_Speed_1_P110
 0000:0004D864       PtrSsmGet_AT_Turbine_Speed_2_P111
 0000:0004D868       PtrSsmGet_Center_Differential_Real_Current_P112
 0000:0004D86C       PtrSsmGet_Center_Differential_Indicate_Current_P113
 0000:0004D874       PtrSsmGet_Switches_x_1_2_3_x_69_70_71
 0000:0004D878       PtrSsmGet_Switches_4_5_x_6_7_8_9_x
 0000:0004D87C       PtrSsmGet_Switches_10_11_12_13_14_15_16_17
 0000:0004D880       PtrSsmGet_Switches_18_19_20_21_22_23_24_25
 0000:0004D884       PtrSsmGet_Switches_26_27_28_29_30_31_32_33
 0000:0004D888       PtrSsmGet_Switches_34_35_36_37_38_39_40_41
 0000:0004D88C       PtrSsmGet_Switches_42_43_44_45_46_47_48_49
 0000:0004D890       PtrSsmGet_Switches_72_73_74_75_50_51_52_53
 0000:0004D894       PtrSsmGet_Switches_54_55_56_57_58_59_60_61
 0000:0004D898       PtrSsmGet_Switches_76_77_78_79_80_81_82_83
 0000:0004D89C       PtrSsmGet_Switches_84_85_86_87_88_89_90_91
 0000:0004D8A0       PtrSsmGet_Switches_92_93_94_95_96_97_98_99
 0000:0004D8A4       PtrSsmGet_Switches_100_101_102_103_104_105_106_107
 0000:0004D8A8       PtrSsmGet_Switches_108_109_110_111_112_113_114_115
 0000:0004DA28       PtrSsmGet_Roughness_Monitor_Cylinder_1_P63
 0000:0004DA2C       PtrSsmGet_Roughness_Monitor_Cylinder_2_P64
 0000:0004DA30       PtrSsmGet_AF_Correction_3_32bit_ECU_P89
 0000:0004DA34       PtrSsmGet_AF_Learning_3_P66
 0000:0004DA38       PtrSsmGet_Rear_O2_Heater_Voltage_P67
 0000:0004DA3C       PtrSsmGet_AF_Adjustment_Voltage_P68
 0000:0004DA40       PtrSsmGet_Switches_116_117_118_119_120_121_122_123
 0000:0004DA44       PtrSsmGet_Switches_x_x_124_125_126_127_128_129
 0000:0004DA48       PtrSsmGet_Switches_142_143_144_145_146_147_x_x
 0000:0004DA4C       PtrSsmGet_Switches_148_149_x_150_151_152_153_154
 0000:0004DA50       PtrSsmGet_Roughness_Monitor_Cylinder_3_P69
 0000:0004DA54       PtrSsmGet_Roughness_Monitor_Cylinder_4_P70
 0000:0004DAAC       PtrSsmGet_Roughness_Monitor_Cylinder_5_P151
 0000:0004DAD0       PtrSsmGet_Roughness_Monitor_Cylinder_6_P152
 0000:0004DAD4       PtrSsmGet_Learned_Ignition_Timing_Correction_P153
 0000:0004DAD8       PtrSsmGet_Throttle_Motor_Duty_P71
 0000:0004DADC       PtrSsmGet_Throttle_Motor_Voltage_P72
 0000:0004DAF0       PtrSsmGet_Sub_Throttle_Sensor_P73
 0000:0004DAF4       PtrSsmGet_Main_Throttle_Sensor_P74
 0000:0004DAF8       PtrSsmGet_Sub_Accelerator_Sensor_P75
 0000:0004DAFC       PtrSsmGet_Main_Accelerator_Sensor_P76
 0000:0004DB00       PtrSsmGet_Brake_Booster_Pressure_P77
 0000:0004DB04       PtrSsmGet_Fuel_Pressure_High_P78
 0000:0004DB08       PtrSsmGet_Exhaust_Gas_Temperature_P79
 0000:0004DB0C       PtrSsmGet_Exhaust_Gas_Temperature_2_P116
 0000:0004DB10       PtrSsmGet_Cold_Start_Injector_Air_Pump_P80
 0000:0004DB14       PtrSsmGet_SCV_Step_P81
 0000:0004DB18       PtrSsmGet_Memorised_Cruise_Speed_P82
 0000:0004DB1C       PtrSsmGet_AirFuel_Correction_4_P117
 0000:0004DB20       PtrSsmGet_AirFuel_Learning_4_P118
 0000:0004DB24       PtrSsmGet_Fuel_Level_Sensor_Resistance_P119
 0000:0004DB28       PtrSsmGet_Estimated_odometer_P120
 0000:0004DB3C       PtrSsmGet_Oil_Temperature_P122
 0000:0004DB40       PtrSsmGet_Oil_Switching_Solenoid_Valve_OSV_Duty_Right_P123
 0000:0004DB44       PtrSsmGet_Oil_Switching_Solenoid_Valve_OSV_Duty_Left_P124
 0000:0004DB48       PtrSsmGet_Oil_Switching_Solenoid_Valve_OSV_Current_Right_P125
 0000:0004DB4C       PtrSsmGet_Oil_Switching_Solenoid_Valve_OSV_Current_Left_P126
 0000:0004DB50       PtrSsmGet_Exhaust_VVT_Advance_Angle_Right_P83
 0000:0004DB54       PtrSsmGet_Exhaust_VVT_Advance_Angle_Left_P84
 0000:0004DB58       PtrSsmGet_Exhaust_OCV_Duty_Right_P85
 0000:0004DB5C       PtrSsmGet_Exhaust_OCV_Duty_Left_P86
 0000:0004DB60       PtrSsmGet_Exhaust_OCV_Current_Right_P87
 0000:0004DB64       PtrSsmGet_Exhaust_OCV_Current_Left_P88
 0000:0004DB68       PtrSsmGet_VVL_Lift_Mode_P127
 0000:0004DB70       PtrSsmGet_Switches_130_62_131_x_x_x_x_x
 0000:0004DB74       PtrSsmGet_Switches_63_64_65_66_67_132_68_133
 0000:0004DB78       PtrSsmGet_Switches_134_135_136_137_138_139_140_141
 0000:0004DBE0       PtrSsmGet_Wheel_Speed_Front_Right_P144
 0000:0004DBE4       PtrSsmGet_Wheel_Speed_Front_Left_P145
 0000:0004DBE8       PtrSsmGet_Wheel_Speed_Rear_Right_P146
 0000:0004DBEC       PtrSsmGet_Wheel_Speed_Rear_Left_P147
 0000:0004DBF0       PtrSsmGet_H_and_LRC_Solenoid_Valve_Current_P128
 0000:0004DBF4       PtrSsmGet_DC_Solenoid_Valve_Current_P129
 0000:0004DBF8       PtrSsmGet_FB_Solenoid_Valve_Current_P130
 0000:0004DBFC       PtrSsmGet_IC_Solenoid_Valve_Current_P131
 0000:0004DC00       PtrSsmGet_PL_Solenoid_Valve_Current_P132
 0000:0004DC04       PtrSsmGet_LU_Solenoid_Valve_Current_P133
 0000:0004DC08       PtrSsmGet_AWD_Solenoid_Valve_Current_P134
 0000:0004DC0C       PtrSsmGet_Yaw_Rate_Sensor_Voltage_P135
 0000:0004DC10       PtrSsmGet_H_and_LRC_Solenoid_Valve_Pressure_P136
 0000:0004DC14       PtrSsmGet_DC_Solenoid_Valve_Pressure_P137
 0000:0004DC18       PtrSsmGet_FB_Solenoid_Valve_Pressure_P138
 0000:0004DC1C       PtrSsmGet_IC_Solenoid_Valve_Pressure_P139
 0000:0004DC20       PtrSsmGet_PL_Solenoid_Valve_Pressure_P140
 0000:0004DC24       PtrSsmGet_LU_Solenoid_Valve_Pressure_P141
 0000:0004DC28       PtrSsmGet_AWD_Solenoid_Valve_Pressure_P142
 0000:0004DC2C       PtrSsmGet_Yaw_Rate_and__G_Sensor_Reference_Voltage_P143
 0000:0004DC58       PtrSsmGet_Steering_Angle_Sensor_P148
 0000:0004DC98       PtrSsmGet_SIDrive_Mode_P114
 0000:0004DC9C       PtrSsmGet_Throttle_Sensor_Closed_Voltage_P115
 0000:0004DCB8       PtrSsmGet_Fuel_Tank_Air_Pressure_P121
 0000:0004DD04       PtrSsmGet_FwdB_Solenoid_Valve_Current_P149
 0000:0004DD08       PtrSsmGet_FwdB_Solenoid_Valve_Target_Pressure_P150
 0000:0004DD48       PtrSsmGet_Switches_155_156_157_x_x_x_x_x
 0000:0004DD4C       PtrSsmGet_Switches_158_159_160_161_162_163_164_165
 0000:0004DD54       PtrSsmGet_Fine_Learning_Knock_Correction_P91
 0000:0004DD58       PtrSsmGet_Fuel_Tank_Pressure_P154
 0000:0004DE24       PtrSsmGet_Switches_166_167_x_x_x_x_x_x
 0000:0004DE28       PtrSsmGet_Switches_168_169_170_171_172_x_x_x
 0000:0004DE74       PtrSsmGet_Main_Injection_Period_P155
 0000:0004DE78       PtrSsmGet_Final_Injection_Amount_P156
 0000:0004DE80       PtrSsmGet_Number_of_Times_Injected_P157
 0000:0004DE84       PtrSsmGet_Target_Intake_Manifold_Pressure_P158
 0000:0004DE88       PtrSsmGet_Target_Intake_Air_Amount_P159
 0000:0004DE8C       PtrSsmGet_Air_Mass_P160
 0000:0004DE90       PtrSsmGet_Exhaust_Gas_Recirculation_EGR_Target_Valve_Opening_Angle_P161
 0000:0004DE94       PtrSsmGet_Exhaust_Gas_Recirculation_EGR_Valve_Opening_Angle_P162
 0000:0004DE98       PtrSsmGet_Exhaust_Gas_Recirculation_EGR_Duty_P163
 0000:0004DE9C       PtrSsmGet_Common_Rail_Target_Pressure_P164
 0000:0004DEA0       PtrSsmGet_Common_Rail_Pressure_P165
 0000:0004DEA4       PtrSsmGet_Intake_Air_Temperature_combined_P166
 0000:0004DEA8       PtrSsmGet_Target_Engine_Speed_P167
 0000:0004DEB0       PtrSsmGet_Boost_Pressure_Feedback_P168
 0000:0004DEB4       PtrSsmGet_Yaw_Rate_P171
 0000:0004DEB8       PtrSsmGet_Lateral_G_P172
 0000:0004DEBC       PtrSsmGet_Drivers_Control_Center_Differential_DCCD_Torque_Allocation_P173
 0000:0004DEC0       PtrSsmGet_Drivers_Control_Center_Differential_DCCD_Mode_P174
 0000:0004DEC4       PtrSsmGet_Electric_Power_Steering_Current_P169
 0000:0004DEC8       PtrSsmGet_Fuel_Pump_Suction_Control_Valve_Current_Target_P170
 0000:0004DED0       PtrSsmGet_Fuel_Pump_Suction_Control_Valve_Current_Actual_P175
 0000:0004DED8       PtrSsmGet_Mileage_after_Injector_Learning_P176
 0000:0004DF00       PtrSsmGet_Mileage_after_Injector_Replacement_P177
 0000:0004DF6C       PtrSsmGet_Actual_Common_Rail_Pressure_Time_Synchronized_P204
 0000:0004DFAC       PtrSsmGet_PreInjection_Amount_P234
 0000:0004DFB4       PtrSsmGet_PreInjection_Interval_P235
 0000:0004DFB8       PtrSsmGet_Final_Initial_Torque_P238
 0000:0004DFD0       PtrSsmGet_Individual_Pump_Difference_Learning_Value_P228
 0000:0004DFE4       PtrSsmGet_MicroQuantityInjection_Final_Learning_Value_11_P208
 0000:0004DFE8       PtrSsmGet_MicroQuantityInjection_Final_Learning_Value_12_P209
 0000:0004DFEC       PtrSsmGet_MicroQuantityInjection_Final_Learning_Value_13_P210
 0000:0004DFF0       PtrSsmGet_MicroQuantityInjection_Final_Learning_Value_14_P211
 0000:0004DFF4       PtrSsmGet_MicroQuantityInjection_Final_Learning_Value_21_P212
 0000:0004DFF8       PtrSsmGet_MicroQuantityInjection_Final_Learning_Value_22_P213
 0000:0004DFFC       PtrSsmGet_MicroQuantityInjection_Final_Learning_Value_23_P214
 0000:0004E000       PtrSsmGet_MicroQuantityInjection_Final_Learning_Value_24_P215
 0000:0004E004       PtrSsmGet_MicroQuantityInjection_Final_Learning_Value_31_P216
 0000:0004E008       PtrSsmGet_MicroQuantityInjection_Final_Learning_Value_32_P217
 0000:0004E00C       PtrSsmGet_MicroQuantityInjection_Final_Learning_Value_33_P218
 0000:0004E010       PtrSsmGet_MicroQuantityInjection_Final_Learning_Value_34_P219
 0000:0004E014       PtrSsmGet_MicroQuantityInjection_Final_Learning_Value_41_P220
 0000:0004E018       PtrSsmGet_MicroQuantityInjection_Final_Learning_Value_42_P221
 0000:0004E01C       PtrSsmGet_MicroQuantityInjection_Final_Learning_Value_43_P222
 0000:0004E020       PtrSsmGet_MicroQuantityInjection_Final_Learning_Value_44_P223
 0000:0004E024       PtrSsmGet_MicroQuantityInjection_Final_Learning_Value_51_P224
 0000:0004E028       PtrSsmGet_MicroQuantityInjection_Final_Learning_Value_52_P225
 0000:0004E02C       PtrSsmGet_MicroQuantityInjection_Final_Learning_Value_53_P226
 0000:0004E030       PtrSsmGet_MicroQuantityInjection_Final_Learning_Value_54_P227
 0000:0004E044       PtrSsmGet_PreInjection_Final_Period_P233
 0000:0004E04C       PtrSsmGet_Final_Main_Injection_Period_P229
 0000:0004E064       PtrSsmGet_Quantity_Correction_Cylinder_1_P179
 0000:0004E068       PtrSsmGet_Quantity_Correction_Cylinder_2_P180
 0000:0004E06C       PtrSsmGet_Quantity_Correction_Cylinder_3_P181
 0000:0004E070       PtrSsmGet_Quantity_Correction_Cylinder_4_P182
 0000:0004E0B0       PtrSsmGet_Interior_Heater_P178
 0000:0004E0B4       PtrSsmGet_Battery_Current_P183
 0000:0004E0B8       PtrSsmGet_Alternator_Control_Mode_P185
 0000:0004E0BC       PtrSsmGet_Battery_Temperature_P184
 0000:0004E0C4       PtrSsmGet_Cumulative_Ash_Ratio_P186
 0000:0004E0C8       PtrSsmGet_Pressure_Difference_between_Diesel_Particulate_Filter_DPF_Inlet_and_Outlet_P187
 0000:0004E0CC       PtrSsmGet_Exhaust_Gas_Temperature_at_Catalyst_Inlet_P188
 0000:0004E0D0       PtrSsmGet_Exhaust_Gas_Temperature_at_Diesel_Particulate_Filter_DPF_Inlet_P189
 0000:0004E0D4       PtrSsmGet_Estimated_Catalyst_Temperature_P190
 0000:0004E0D8       PtrSsmGet_Estimated_Temperature_of_the_Diesel_Particulate_Filter_DPF_P191
 0000:0004E0DC       PtrSsmGet_Soot_Accumulation_Ratio_P192
 0000:0004E0E0       PtrSsmGet_Oil_Dilution_Ratio_P193
 0000:0004E13C       PtrSsmGet_FrontRear_Wheel_Rotation_Ratio_P194
 0000:0004E140       PtrSsmGet_ABSVDC_Front_Wheel_Mean_Wheel_Speed_P195
 0000:0004E144       PtrSsmGet_ABSVDC_Rear_Wheel_Mean_Wheel_Speed_P196
 0000:0004E148       PtrSsmGet_Automatic_Transmission_Fluid_ATF_Deterioration_Degree_P197
 0000:0004E150       PtrSsmGet_Accumulated_Count_of_Overspeed_Instances_Very_High_RPM_P198
 0000:0004E154       PtrSsmGet_Accumulated_Count_of_Overspeed_Instances_High_RPM_P199
 0000:0004E158       PtrSsmGet_Estimated_Distance_to_Oil_Change_P205
 0000:0004E15C       PtrSsmGet_Running_Distance_since_last_Diesel_Particulate_Filter_DPF_Regeneration_P206
 0000:0004E164       PtrSsmGet_Diesel_Particulate_Filter_DPF_Regeneration_Count_P207
 0000:0004E178       PtrSsmGet_Cumulative_oil_diesel_entry_P236
 0000:0004E444       a34512345
 0000:00058B12       aCJCJoWW
 0000:000641C0       aCoDstbcm3P
 0000:000644AA       aCoTcdscm3P
 0000:00073CA0       P0335_CRANKSHAFT_POS_SENSOR_A_MALFUNCTION
 0000:00073CA1       P0336_CRANKSHAFT_POS_SENSOR_A_RANGEPERF
 0000:00073CA4       P0604_CONTROL_MODULE_RAM_ERROR
 0000:00073CA5       P0102_MAF_SENSOR_LOW_INPUT
 0000:00073CA6       P0103_MAF_SENSOR_HIGH_INPUT
 0000:00073CA8       P0327_KNOCK_SENSOR_1_LOW_INPUT
 0000:00073CA9       P0328_KNOCK_SENSOR_1_HIGH_INPUT
 0000:00073CAA       P0122_TPS_A_LOW_INPUT
 0000:00073CAB       P0123_TPS_A_HIGH_INPUT
 0000:00073CAD       P0117_COOLANT_TEMP_SENSOR_LOW_INPUT
 0000:00073CAE       P0118_COOLANT_TEMP_SENSOR_HIGH_INPUT
 0000:00073CAF       P0464_FUEL_LEVEL_SENSOR_INTERMITTENT
 0000:00073CB0       P0125_INSUFFICIENT_COOLANT_TEMP_FUELING
 0000:00073CB1       P0462_FUEL_LEVEL_SENSOR_LOW_INPUT
 0000:00073CB2       P0463_FUEL_LEVEL_SENSOR_HIGH_INPUT
 0000:00073CB3       P0461_FUEL_LEVEL_SENSOR_RANGEPERF
 0000:00073CB5       P1518_STARTER_SWITCH_LOW_INPUT
 0000:00073CB6       P0512_STARTER_REQUEST_CIRCUIT
 0000:00073CB7       P0452_EVAP_PRESSURE_SENSOR_LOW_INPUT
 0000:00073CB8       P0453_EVAP_PRESSURE_SENSOR_HIGH_INPUT
 0000:00073CB9       P0451_EVAP_PRESSURE_SENSOR_RANGEPERF
 0000:00073CBA       P0851_NEUTRAL_SWITCH_INPUT_LOW
 0000:00073CBB       P0182_FUEL_TEMP_SENSOR_A_LOW_INPUT
 0000:00073CBC       P0183_FUEL_TEMP_SENSOR_A_HIGH_INPUT
 0000:00073CBD       P0181_FUEL_TEMP_SENSOR_A_RANGEPERF
 0000:00073CBE       P0852_NEUTRAL_SWITCH_INPUT_HIGH
 0000:00073CC1       P0506_IDLE_CONTROL_RPM_LOWER_THAN_EXPECTED
 0000:00073CC2       P0507_IDLE_CONTROL_RPM_HIGH_THAN_EXPECTED
 0000:00073CC3       P0691_RADIATOR_FAN_CIRCUIT_LOW
 0000:00073CC4       P0692_RADIATOR_FAN_CIRCUIT_HIGH
 0000:00073CC5       P0483_RADIATOR_FAN_RATIONALITY_CHECK
 0000:00073CC9       P0011_CAMSHAFT_POS__TIMING_OVERADVANCED_1
 0000:00073CCA       P0021_CAMSHAFT_POS__TIMING_OVERADVANCED_2
 0000:00073CCB       P1400_FUEL_TANK_PRESSURE_SOL_LOW
 0000:00073CCC       P1420_FUEL_TANK_PRESSURE_SOL_HIGH_INPUT
 0000:00073CCD       P0458_EVAP_PURGE_VALVE_CIRCUIT_LOW
 0000:00073CCE       P0459_EVAP_PURGE_VALVE_CIRCUIT_HIGH
 0000:00073CD1       P1443_VENT_CONTROL_SOLENOID_FUNCTION_PROBLEM
 0000:00073CD2       P0447_EVAP_VENT_CONTROL_CIRCUIT_OPEN
 0000:00073CD3       P0448_EVAP_VENT_CONTROL_CIRCUIT_SHORTED
 0000:00073CD4       P0133_FRONT_O2_SENSOR_SLOW_RESPONSE
 0000:00073CD5       P0139_REAR_O2_SENSOR_SLOW_RESPONSE
 0000:00073CD6       P1152_FRONT_O2_SENSOR_RANGEPERF_LOW_B1_S1
 0000:00073CD7       P1153_FRONT_O2_SENSOR_RANGEPERF_HIGH_B1_S1
 0000:00073CD8       P0420_CAT_EFFICIENCY_BELOW_THRESHOLD
 0000:00073CD9       P0442_EVAP_LEAK_DETECTED_SMALL
 0000:00073CDA       P0456_EVAP_LEAK_DETECTED_VERY_SMALL
 0000:00073CDB       P0171_SYSTEM_TOO_LEAN
 0000:00073CDC       P0172_SYSTEM_TOO_RICH
 0000:00073CDD       P0301_MISFIRE_CYLINDER_1
 0000:00073CDE       P0302_MISFIRE_CYLINDER_2
 0000:00073CDF       P0303_MISFIRE_CYLINDER_3
 0000:00073CE0       P0304_MISFIRE_CYLINDER_4
 0000:00073CE1       P1301_MISFIRE_HIGH_TEMP_EXHAUST_GAS
 0000:00073CE2       P0457_EVAP_LEAK_DETECTED_FUEL_CAP
 0000:00073CE3       P0000_PASS_CODE_NO_DTC_DETECTED
 0000:00073CE4       P0000_PASS_CODE_NO_DTC_DETECTED_
 0000:00073CE5       P0137_REAR_O2_SENSOR_LOW_VOLTAGE
 0000:00073CE6       P0131_FRONT_O2_SENSOR_LOW_INPUT
 0000:00073CE7       P0132_FRONT_O2_SENSOR_HIGH_INPUT
 0000:00073CE8       P0138_REAR_O2_SENSOR_HIGH_VOLTAGE
 0000:00073CE9       P0112_IAT_SENSOR_LOW_INPUT
 0000:00073CEA       P0113_IAT_SENSOR_HIGH_INPUT
 0000:00073CEB       P0111_IAT_SENSOR_RANGEPERF
 0000:00073CEC       P0038_REAR_O2_SENSOR_HIGH_INPUT
 0000:00073CED       P0032_FRONT_O2_SENSOR_HIGH_INPUT
 0000:00073CEE       P0037_REAR_O2_SENSOR_LOW_INPUT
 0000:00073CEF       P0031_FRONT_O2_SENSOR_LOW_INPUT
 0000:00073CF0       P0107_MAP_SENSOR_LOW_INPUT
 0000:00073CF1       P0108_MAP_SENSOR_HIGH_INPUT
 0000:00073CF2       P0128_THERMOSTAT_MALFUNCTION
 0000:00073CF3       P1491_PCV_BLOWBY_FUNCTION_PROBLEM
 0000:00073CF4       P1560_BACKUP_VOLTAGE_MALFUNCTION
 0000:00073CF7       P0245_WASTEGATE_SOLENOID_A_LOW
 0000:00073CF8       P0246_WASTEGATE_SOLENOID_A_HIGH
 0000:00073CF9       P0244_WASTEGATE_SOLENOID_A_RANGEPERF
 0000:00073CFE       P0545_EGT_SENSOR_CIRCUIT_LOW
 0000:00073CFF       P0546_EGT_SENSOR_CIRCUIT_HIGH
 0000:00073D00       P1312_EGT_SENSOR_MALFUNCTION
 0000:00073D01       P1544_EGT_TOO_HIGH
 0000:00073D02       P0502_VEHICLE_SPEED_SENSOR_LOW_INPUT
 0000:00073D03       P0230_FUEL_PUMP_PRIMARY_CIRCUIT
 0000:00073D04       P0068_MAP_SENSOR_RANGEPERF
 0000:00073D05       P0519_IDLE_CONTROL_MALFUNCTION_FAILSAFE
 0000:00073D06       P0101_MAF_SENSOR_RANGEPERF
 0000:00073D07       P0134_FRONT_O2_SENSOR_NO_ACTIVITY
 0000:00073D08       P0030_FRONT_O2_SENSOR_RANGEPERF
 0000:00073D09       P0503_VEHICLE_SPEED_SENSOR_INTERMITTENT
 0000:00073D0A       P2109_TPS_A_MINIMUM_STOP_PERF
 0000:00073D0B       P0222_TPS_B_LOW_INPUT
 0000:00073D0C       P0223_TPS_B_HIGH_INPUT
 0000:00073D0D       P1160_ABNORMAL_RETURN_SPRING
 0000:00073D0E       P2102_THROTTLE_ACTUATOR_CIRCUIT_LOW
 0000:00073D0F       P2103_THROTTLE_ACTUATOR_CIRCUIT_HIGH
 0000:00073D10       P2101_THROTTLE_ACTUATOR_CIRCUIT_RANGEPERF
 0000:00073D11       P2096_POST_CATALYST_TOO_LEAN_B1
 0000:00073D12       P0638_THROTTLE_ACTUATOR_RANGEPERF
 0000:00073D13       P0607_CONTROL_MODULE_PERFORMANCE
 0000:00073D14       P2138_TPS_DE_VOLTAGE
 0000:00073D15       P2127_TPS_E_CIRCUIT_LOW_INPUT
 0000:00073D16       P2128_TPS_E_CIRCUIT_HIGH_INPUT
 0000:00073D17       P2122_TPS_D_CIRCUIT_LOW_INPUT
 0000:00073D18       P2123_TPS_D_CIRCUIT_HIGH_INPUT
 0000:00073D19       P2135_TPS_AB_VOLTAGE
 0000:00073D1A       P2097_POST_CATALYST_TOO_RICH_B1
 0000:00073D1B       P0600_SERIAL_COMMUNICATION_LINK
 0000:00073D1E       P0345_CAMSHAFT_POS_SENSOR_A_BANK_2
 0000:00073D1F       P0340_CAMSHAFT_POS_SENSOR_A_MALFUNCTION_
 0000:00073D20       P0605_CONTROL_MODULE_ROM_ERROR
 0000:00073D25       P2093_OCV_SOLENOID_A2_CIRCUIT_SHORT
 0000:00073D26       P2092_OCV_SOLENOID_A2_CIRCUIT_OPEN
 0000:00073D27       P2089_OCV_SOLENOID_A1_CIRCUIT_SHORT
 0000:00073D28       P2088_OCV_SOLENOID_A1_CIRCUIT_OPEN
 0000:00073D29       P0700_TRANSMISSION_CONTROL_SYSTEM
 0000:00073D2C       P2004_TGV__INTAKE_MANIFOLD_RUNNER_1_STUCK_OPEN
 0000:00073D2D       P2006_TGV__INTAKE_MANIFOLD_RUNNER_1_STUCK_CLOSED
 0000:00073D2E       P2005_TGV__INTAKE_MANIFOLD_RUNNER_2_STUCK_OPEN
 0000:00073D2F       P2007_TGV__INTAKE_MANIFOLD_RUNNER_2_STUCK_CLOSED
 0000:00073D30       P2227_BARO_PRESSURE_CIRCUIT_RANGEPERF
 0000:00073D31       P0126_INSUFFICIENT_COOLANT_TEMP_OPERATION
 0000:00073D32       P2229_BARO_PRESSURE_CIRCUIT_HIGH_INPUT
 0000:00073D33       P2228_BARO_PRESSURE_CIRCUIT_LOW_INPUT
 0000:00073D34       P2016_TGV__INTAKE_MANIFOLD_RUNNER_1_POS_SENSOR_LOW
 0000:00073D35       P2017_TGV__INTAKE_MANIFOLD_RUNNER_1_POS_SENSOR_HIGH
 0000:00073D36       P2021_TGV__INTAKE_MANIFOLD_RUNNER_2_POS_SENSOR_LOW
 0000:00073D37       P2022_TGV__INTAKE_MANIFOLD_RUNNER_2_POS_SENSOR_HIGH
 0000:00073D38       P2009_TGV__INTAKE_MANIFOLD_RUNNER_1_CIRCUIT_LOW
 0000:00073D39       P2012_TGV__INTAKE_MANIFOLD_RUNNER_2_CIRCUIT_LOW
 0000:00073D3A       P2008_TGV__INTAKE_MANIFOLD_RUNNER_1_CIRCUIT_OPEN
 0000:00073D3B       P2011_TGV__INTAKE_MANIFOLD_RUNNER_2_CIRCUIT_OPEN
 0000:00076F92       Force_Pass_Readiness_Monitors
 0000:000795B0       aBBF
 0000:0007973C       sCelMaster
 0000:000799FE       nullsub_12
 0000:00079A02       nullsub_13
 0000:00079D5C       sCelTrigger
 0000:00079E74       hCelTrigger
 0000:0007EE72       aCOCClF
 0000:000818E8       Table_InitialMax_Wastegate_Duty_Compensation_IAT
 0000:00081910       Table_InitialMax_Wastegate_Duty_Compensation_ECT
 0000:00081938       Table_Target_Boost_Compensation_ECT
 0000:00081960       Table_Target_Boost_Compensation_Atm_Pressure_Multiplier_Offset
 0000:00081974       Table_Turbo_Dynamics_Proportional
 0000:00081988       Table_Turbo_Dynamics_Integral_Negative
 0000:0008199C       Table_Turbo_Dynamics_Integral_Positive
 0000:000819C4       Table_Target_Boost_Compensation_Atm_Pressure_Multiplier
 0000:00081A18       Table_InitialMax_Wastegate_Duty_Compensation_Atm_Pressure
 0000:00081A88       Table_Initial_Wastegate_Duty
 0000:00081AC0       Table_Max_Wastegate_Duty
 0000:00081B30       Table_Target_Boost
 0000:00081F54       Table_Front_Oxygen_Sensor_Compensation_Atm_Pressure
 0000:0008207C       Table_Engine_Load_Compensation_MP
 0000:00082098       Table_MAF_Compensation_IAT
 0000:0008288C       Table_Cranking_Fuel_IPW_Compensation_Accelerator
 0000:000828AC       Table_Min_Primary_Base_Enrich_3_Decay_Delay_A
 0000:000828B8       Table_Min_Primary_Base_Enrich_3_Decay_Delay_B
 0000:000828EC       Table_Min_Primary_Base_Enrichment_1
 0000:000829A8       Table_CL_to_OL_Transition_with_Delay_A_Throttle
 0000:000829BC       Table_CL_to_OL_Transition_with_Delay_B_Throttle
 0000:000829D0       Table_CL_to_OL_Transition_with_Delay_C_Throttle
 0000:000829E4       Table_Minimum_Primary_Open_Loop_Enrichment_Throttle
 0000:000829F8       Table_Primary_Open_Loop_Fueling_Compensation_Timing_Compensation_
 0000:00082A5C       Table_Tipin_Enrichment_Compensation_Boost_Error
 0000:00082AC0       Table_Cranking_Fuel_Injector_Pulse_Width_A_ECT
 0000:00082AD4       Table_Cranking_Fuel_Injector_Pulse_Width_B_ECT
 0000:00082AE8       Table_Cranking_Fuel_Injector_Pulse_Width_C_ECT
 0000:00082AFC       Table_Cranking_Fuel_Injector_Pulse_Width_D_ECT
 0000:00082B10       Table_Min_Primary_Base_Enrich_3_Initial_Start_1A
 0000:00082B24       Table_Min_Primary_Base_Enrich_3_Initial_Start_1B
 0000:00082B38       Table_Min_Primary_Base_Enrich_3_Initial_Start_2A
 0000:00082B4C       Table_Min_Primary_Base_Enrich_3_Initial_Start_2B
 0000:00082B60       Table_Min_Primary_Base_Enrich_2_Initial_Start_1A
 0000:00082B74       Table_Min_Primary_Base_Enrich_2_Initial_Start_2A
 0000:00082B88       Table_Min_Primary_Base_Enrich_2_Initial_Start_1B
 0000:00082B9C       Table_Min_Primary_Base_Enrich_2_Initial_Start_2B
 0000:00082BB0       Table_Min_Primary_Base_Enrich_2_Decay_Step_1
 0000:00082BC4       Table_Min_Primary_Base_Enrich_2_Decay_Step_2
 0000:00082D84       Table_CL_to_OL_Transition_with_Delay_A_Base_Pulse_Width
 0000:00082D98       Table_CL_to_OL_Transition_with_Delay_B_Base_Pulse_Width
 0000:00082DAC       Table_CL_to_OL_Transition_with_Delay_C_Base_Pulse_Width
 0000:00082DC0       Table_Primary_Open_Loop_Fueling_Compensation_ECT
 0000:00082E10       Table_Throttle_Tipin_Enrichment
 0000:00082E24       Table_Tipin_Enrichment_Compensation_ECT
 0000:00082E58       Table_Boost_Limit_Fuel_Cut
 0000:00082EEC       Table_Cranking_Fuel_IPW_Compensation_RPM
 0000:00082F78       Table_Min_Primary_Base_Enrichment_1_NonPrimary_OL
 0000:00082FB0       Table_Primary_Open_Loop_Fueling
 0000:00082FE8       Table_Primary_Open_Loop_Fueling_Failsafe
 0000:00083004       Table_Per_Injector_Primary_Fuel_Offset_Compensation_A
 0000:00083020       Table_Per_Injector_Primary_Fuel_Offset_Compensation_B
 0000:0008303C       Table_Per_Injector_Primary_Fuel_Offset_Compensation_C
 0000:00083058       Table_Per_Injector_Primary_Fuel_Offset_Compensation_D
 0000:000830C0       Table_CL_Fueling_Target_Compensation_A_ECT
 0000:000830F8       Table_CL_Fueling_Target_Compensation_B_ECT
 0000:00083130       Table_CL_Fueling_Target_Compensation_Load
 0000:00083230       Table_Base_Timing_Idle_Minimum
 0000:00083244       Table_Base_Timing_Idle
 0000:0008326C       Table_Timing_Compensation_ECT
 0000:00083280       Table_Timing_Compensation_IAT
 0000:00083488       Table_Timing_Compensation_Per_Cylinder_A__
 0000:0008349C       Table_Timing_Compensation_Per_Cylinder_B__
 0000:000834B0       Table_Timing_Compensation_Per_Cylinder_C__
 0000:000834C4       Table_Timing_Compensation_Per_Cylinder_D__
 0000:000834D8       Table_Rough_Correction_Learning_Delay_Increasing
 0000:00083610       Table_Base_Timing
 0000:0008362C       Table_Timing_Compensation_IAT_Activation
 0000:0008370C       Table_Knock_Correction_Advance_Max
 0000:00083744       Table_Timing_Compensation_MRP
 0000:00083A98       Table_Idle_Speed_Target_A
 0000:00083AC0       Table_Idle_Speed_Target_B
 0000:00083AE8       Table_Idle_Speed_Target_C
 0000:00083E68       Table_Target_Throttle_Plate_Position_Requested_Torque
 0000:00083E84       Table_Requested_Torque_Accelerator_Pedal
 0000:00083F7C       Table_Injector_Latency
 0000:00083FD4       Table_Fuel_Temp_Sensor_Scaling
 0000:00083FE0       Table_MAF_Sensor_Scaling
 0000:00083FEC       Table_EGT_Sensor_Scaling
 0000:00083FF8       Table_Front_Oxygen_Sensor_Scaling
 0000:000840B0       Table_Coolant_Temp_Sensor_Scaling
 0000:000840BC       Table_Intake_Temp_Sensor_Scaling
 0000:00084368       Table_Intake_Cam_Advance_Angle_AVCS
 0000:000843AC       Coolant_Temp_Sensor_Scaling_Y_Axis
 0000:0008441C       Coolant_Temp_Sensor_Scaling
 0000:0008448C       Intake_Temp_Sensor_Scaling_Y_Axis
 0000:00084504       Intake_Temp_Sensor_Scaling
 0000:000C0070       Atmospheric_Pressure_Sensor_Scaling
 0000:000C00C4       Manifold_Pressure_Sensor_Scaling
 0000:000C03E9       Boost_Control_Disable_Delay_Fine_Correction
 0000:000C03FC       TD_Activation_Thresholds_Target_Boost
 0000:000C0408       TD_Integral_Negative_Activation_Boost_Error
 0000:000C0410       TD_Integral_Positive_Activation_Boost_Error
 0000:000C0414       TD_Integral_Positive_Activation_Wastegate_Duty
 0000:000C0428       TD_Activation_Thresholds_RPM
 0000:000C0430       TD_Integral_Cumulative_Range_WGDC_Correction
 0000:000C043C       Boost_Control_Disable_Fine_Correction
 0000:000C0440       Boost_Control_Disable_IAM
 0000:000C0458       Target_Boost_Compensation_1st_Gear_Speed_Disable
 0000:000C0460       Target_Boost_Compensation_1st_Gear
 0000:000C0464       InitialMax_Wastegate_Duty_Compensation_ECT_Y_Axis
 0000:000C04B0       InitialMax_Wastegate_Duty_Compensation_IAT_Y_Axis
 0000:000C04F0       InitialMax_Wastegate_Duty_Compensation_IAT
 0000:000C0510       InitialMax_Wastegate_Duty_Compensation_ECT
 0000:000C0530       Target_Boost_Compensation_ECT
 0000:000C0554       Target_Boost_Compensation_Atm_Pressure_Multiplier_Offset_Y_Axis
 0000:000C0564       Target_Boost_Compensation_Atm_Pressure_Multiplier_Offset
 0000:000C0568       Turbo_Dynamics_Proportional_Y_Axis
 0000:000C058C       Turbo_Dynamics_Proportional
 0000:000C05A0       Turbo_Dynamics_Integral_Negative_Y_Axis
 0000:000C05C4       Turbo_Dynamics_Integral_Negative
 0000:000C05D8       Turbo_Dynamics_Integral_Positive_Y_Axis
 0000:000C05FC       Turbo_Dynamics_Integral_Positive
 0000:000C0628       Target_Boost_Compensation_Atm_Pressure_Multiplier_Y_Axis
 0000:000C0638       Target_Boost_Compensation_Atm_Pressure_Multiplier
 0000:000C06CC       InitialMax_Wastegate_Duty_Compensation_Atm_Pressure_X_Axis
 0000:000C06E4       InitialMax_Wastegate_Duty_Compensation_Atm_Pressure_Y_Axis
 0000:000C06F4       InitialMax_Wastegate_Duty_Compensation_Atm_Pressure
 0000:000C0754       Initial_Wastegate_Duty_X_Axis
 0000:000C0774       Initial_Wastegate_Duty_Y_Axis
 0000:000C07A4       Initial_Wastegate_Duty
 0000:000C087C       Max_Wastegate_Duty_X_Axis
 0000:000C089C       Max_Wastegate_Duty_Y_Axis
 0000:000C08BC       Max_Wastegate_Duty
 0000:000C0984       Target_Boost_X_Axis
 0000:000C09A4       Target_Boost_Y_Axis
 0000:000C09D4       Target_Boost
 0000:000C1F98       dLoadSmoothingAlt
 0000:000C1FAC       MAF_Limit_Maximum
 0000:000C1FB0       dLoadSmoothingA
 0000:000C1FB4       dLoadSmoothingB
 0000:000C1FB8       dLoadSmoothingFinal
 0000:000C21E0       Gear_Determination_Thresholds
 0000:000C228C       Speed_Limiting_Throttle
 0000:000C2418       Front_Oxygen_Sensor_Compensation_Atm_Pressure_Y_Axis
 0000:000C2428       Front_Oxygen_Sensor_Compensation_Atm_Pressure
 0000:000C2714       Engine_Load_Compensation_MP_X_Axis
 0000:000C2740       Engine_Load_Compensation_MP_Y_Axis
 0000:000C2770       Engine_Load_Compensation_MP
 0000:000C27F4       MAF_Compensation_IAT_X_Axis
 0000:000C2808       MAF_Compensation_IAT_Y_Axis
 0000:000C2828       MAF_Compensation_IAT
 0000:000C2D53       Manifold_Pressure_Sensor_CEL_Delays
 0000:000C5FBD       Tipin_Enrichment_Disable_Applied_Counter_Threshold
 0000:000C5FBE       Tipin_Enrichment_Applied_Counter_Reset
 0000:000C5FBF       Tipin_Throttle_Cumulative_Reset
 0000:000C5FF6       CL_to_OL_Delay
 0000:000C6124       dInjectorScaling
 0000:000C6128       Min_Primary_Base_Enrich_3_Decay_Multiplier
 0000:000C6140       aLLUtUP?a
 0000:000C6154       aLG8qi@
 0000:000C61CC       aL?fff?333?s33
 0000:000C6244       a5NuM4a
 0000:000C6260       aPRJlZqaITKdL6z
 0000:000C6354       AF_Learning_1_Limits
 0000:000C6360       AF_Learning_1_Airflow_Ranges
 0000:000C63A8       Minimum_Active_Primary_Open_Loop_Enrichment
 0000:000C63AC       CL_to_OL_Transition_with_Delay_Throttle_Hysteresis
 0000:000C63B0       CL_to_OL_Transition_with_Delay_BPW_Hysteresis
 0000:000C63B4       CL_Delay_Minimum_ECT
 0000:000C63E0       CL_Delay_Maximum_Engine_Speed_Per_Gear
 0000:000C6408       CL_Delay_Maximum_Engine_Speed_Neutral
 0000:000C6420       CL_Delay_Maximum_Throttle
 0000:000C6424       CL_Delay_Maximum_Vehicle_Speed
 0000:000C642C       CL_Delay_Maximum_EGT
 0000:000C6444       Primary_Open_Loop_Fuel_Map_Switch_IAM
 0000:000C6550       Minimum_Tipin_Enrichment_Activation_Throttle
 0000:000C6554       Minimum_Tipin_Enrichment_Activation
 0000:000C6558       Tipin_Enrichment_Disable_Throttle_Cumulative_Threshold
 0000:000C65A8       Rev_Limit_Fuel_Cut
 0000:000C65B0       Rev_Limit_Fuel_Resume_Boost
 0000:000C65F8       Speed_Limiting_Enable_Fuel_Cut
 0000:000C6600       Speed_Limiting_Disable_Fuel_Cut
 0000:000C66D0       Min_Primary_Base_Enrich_3_Decay_Delay_B_Y_Axis
 0000:000C6760       Cranking_Fuel_IPW_Compensation_Accelerator_Y_Axis
 0000:000C6778       Cranking_Fuel_IPW_Compensation_Accelerator
 0000:000C678E       Min_Primary_Base_Enrich_3_Decay_Delay_A
 0000:000C679E       Min_Primary_Base_Enrich_3_Decay_Delay_B
 0000:000C67CE       Min_Primary_Base_Enrichment_1
 0000:000C694C       CL_to_OL_Transition_with_Delay_A_Throttle_Y_Axis
 0000:000C698C       CL_to_OL_Transition_with_Delay_A_Throttle
 0000:000C699C       CL_to_OL_Transition_with_Delay_B_Throttle_Y_Axis
 0000:000C69DC       CL_to_OL_Transition_with_Delay_B_Throttle
 0000:000C69EC       CL_to_OL_Transition_with_Delay_C_Throttle_Y_Axis
 0000:000C6A2C       CL_to_OL_Transition_with_Delay_C_Throttle
 0000:000C6A3C       Minimum_Primary_Open_Loop_Enrichment_Throttle_Y_Axis
 0000:000C6A54       Minimum_Primary_Open_Loop_Enrichment_Throttle
 0000:000C6A5C       Primary_Open_Loop_Fueling_Compensation_Timing_Compensation__Y_Axis
 0000:000C6A74       Primary_Open_Loop_Fueling_Compensation_Timing_Compensation_
 0000:000C6AD4       Tipin_Enrichment_Compensation_Boost_Error_Y_Axis
 0000:000C6AF8       Tipin_Enrichment_Compensation_Boost_Error
 0000:000C6B82       Cranking_Fuel_Injector_Pulse_Width_A_ECT
 0000:000C6BA2       Cranking_Fuel_Injector_Pulse_Width_B_ECT
 0000:000C6BC2       Cranking_Fuel_Injector_Pulse_Width_C_ECT
 0000:000C6BE2       Cranking_Fuel_Injector_Pulse_Width_D_ECT
 0000:000C6C02       Min_Primary_Base_Enrich_3_Initial_Start_1A
 0000:000C6C22       Min_Primary_Base_Enrich_3_Initial_Start_1B
 0000:000C6C42       Min_Primary_Base_Enrich_3_Initial_Start_2A
 0000:000C6C62       Min_Primary_Base_Enrich_3_Initial_Start_2B
 0000:000C6C82       Min_Primary_Base_Enrich_2_Initial_Start_1A
 0000:000C6CA2       Min_Primary_Base_Enrich_2_Initial_Start_2A
 0000:000C6CC2       Min_Primary_Base_Enrich_2_Initial_Start_1B
 0000:000C6CE2       Min_Primary_Base_Enrich_2_Initial_Start_2B
 0000:000C6D02       Min_Primary_Base_Enrich_2_Decay_Step_1
 0000:000C6D22       Min_Primary_Base_Enrich_2_Decay_Step_2
 0000:000C7118       CL_to_OL_Transition_with_Delay_A_Base_Pulse_Width_Y_Axis
 0000:000C7158       CL_to_OL_Transition_with_Delay_A_Base_Pulse_Width
 0000:000C7178       CL_to_OL_Transition_with_Delay_B_Base_Pulse_Width_Y_Axis
 0000:000C71B8       CL_to_OL_Transition_with_Delay_B_Base_Pulse_Width
 0000:000C71D8       CL_to_OL_Transition_with_Delay_C_Base_Pulse_Width_Y_Axis
 0000:000C7218       CL_to_OL_Transition_with_Delay_C_Base_Pulse_Width
 0000:000C7238       Primary_Open_Loop_Fueling_Compensation_ECT
 0000:000C7240       a1KDzgoqYA
 0000:000C7250       aA_4
 0000:000C7252       aA_5
 0000:000C7254       aA_6
 0000:000C7256       aA_7
 0000:000C72F8       Throttle_Tipin_Enrichment_Y_Axis
 0000:000C7340       Throttle_Tipin_Enrichment
 0000:000C7364       Tipin_Enrichment_Compensation_ECT
 0000:000C73D4       Boost_Limit_Fuel_Cut_Y_Axis
 0000:000C73EC       Boost_Limit_Fuel_Cut
 0000:000C7574       Cranking_Fuel_IPW_Compensation_RPM_X_Axis
 0000:000C7588       Cranking_Fuel_IPW_Compensation_RPM_Y_Axis
 0000:000C75A4       Cranking_Fuel_IPW_Compensation_RPM
 0000:000C7690       Min_Primary_Base_Enrichment_1_NonPrimary_OL_X_Axis
 0000:000C76B8       Min_Primary_Base_Enrichment_1_NonPrimary_OL_Y_Axis
 0000:000C76C4       Min_Primary_Base_Enrichment_1_NonPrimary_OL
 0000:000C76F8       Primary_Open_Loop_Fueling_X_Axis
 0000:000C7734       Primary_Open_Loop_Fueling_Y_Axis
 0000:000C777C       Primary_Open_Loop_Fueling
 0000:000C78A0       Primary_Open_Loop_Fueling_Failsafe_X_Axis
 0000:000C78DC       Primary_Open_Loop_Fueling_Failsafe_Y_Axis
 0000:000C7924       Primary_Open_Loop_Fueling_Failsafe
 0000:000C7A34       Per_Injector_Primary_Fuel_Offset_Compensation_A_X_Axis
 0000:000C7A78       Per_Injector_Primary_Fuel_Offset_Compensation_A_Y_Axis
 0000:000C7AB0       Per_Injector_Primary_Fuel_Offset_Compensation_A
 0000:000C7BA0       Per_Injector_Primary_Fuel_Offset_Compensation_B_X_Axis
 0000:000C7BE4       Per_Injector_Primary_Fuel_Offset_Compensation_B_Y_Axis
 0000:000C7C1C       Per_Injector_Primary_Fuel_Offset_Compensation_B
 0000:000C7D0C       Per_Injector_Primary_Fuel_Offset_Compensation_C_X_Axis
 0000:000C7D50       Per_Injector_Primary_Fuel_Offset_Compensation_C_Y_Axis
 0000:000C7D88       Per_Injector_Primary_Fuel_Offset_Compensation_C
 0000:000C7E78       Per_Injector_Primary_Fuel_Offset_Compensation_D_X_Axis
 0000:000C7EBC       Per_Injector_Primary_Fuel_Offset_Compensation_D_Y_Axis
 0000:000C7EF4       Per_Injector_Primary_Fuel_Offset_Compensation_D
 0000:000C813C       CL_Fueling_Target_Compensation_A_ECT_Y_Axis
 0000:000C8148       CL_Fueling_Target_Compensation_A_ECT
 0000:000C81F0       CL_Fueling_Target_Compensation_B_ECT_Y_Axis
 0000:000C81FC       CL_Fueling_Target_Compensation_B_ECT
 0000:000C8248       aJfjfjfsSMAdada
 0000:000C8274       CL_Fueling_Target_Compensation_Load_X_Axis
 0000:000C82A0       CL_Fueling_Target_Compensation_Load_Y_Axis
 0000:000C82C8       CL_Fueling_Target_Compensation_Load
 0000:000C83B4       a33333333
 0000:000C8402       Feedback_Correction_Negative_Advance_Delay
 0000:000C8410       Fine_Correction_Advance_Delay
 0000:000C8474       a?333?333?333?3
 0000:000C84D8       Base_Timing_Idle_Minimum_Vehicle_Speed_Enable
 0000:000C860C       Timing_Comp_Maximum_RPM_Per_Cylinder
 0000:000C8610       Timing_Comp_Minimum_Load_Per_Cylinder
 0000:000C8614       Timing_Comp_Minimum_Coolant_Temp_Per_Cylinder
 0000:000C8624       Feedback_Correction_Retard_Limit
 0000:000C8628       Feedback_Correction_Retard_Value
 0000:000C8630       Feedback_Correction_Negative_Advance_Value
 0000:000C8648       Feedback_Correction_Range_RPM
 0000:000C8658       Feedback_Correction_Minimum_Load
 0000:000C8660       Extended_Feedback_Correction_High_RPM_Compensation
 0000:000C86D4       Advance_Multiplier_Initial
 0000:000C86D8       Rough_Correction_Range_RPM
 0000:000C86E8       Rough_Correction_Range_Load
 0000:000C86F8       Rough_Correction_Minimum_KC_Advance_Map_Value
 0000:000C86FC       Advance_Multiplier_Step_Value
 0000:000C8734       Fine_Correction_Advance_Limit
 0000:000C8738       Fine_Correction_Retard_Limit
 0000:000C873C       Fine_Correction_Advance_Value
 0000:000C8740       Fine_Correction_Range_RPM
 0000:000C8750       Fine_Correction_Range_Load
 0000:000C8760       Fine_Correction_Columns_Load
 0000:000C8770       Fine_Correction_Rows_RPM
 0000:000C8788       Fine_Correction_Retard_Value
 0000:000C87B8       Timing_Compensation_ECT_Y_Axis
 0000:000C88A0       aAgggg
 0000:000C88E8       Base_Timing_Idle_Minimum_Y_Axis
 0000:000C890C       Base_Timing_Idle_Minimum
 0000:000C8915       Base_Timing_Idle
 0000:000C8935       Timing_Compensation_ECT
 0000:000C8948       Timing_Compensation_IAT_Y_Axis
 0000:000C8988       Timing_Compensation_IAT
 0000:000C8B90       a999ggggg
 0000:000C8C30       a99999999
 0000:000C8C80       aUuggg999
 0000:000C8CD0       aUuggg999_0
 0000:000C8D48       Timing_Compensation_Per_Cylinder_A___Y_Axis
 0000:000C8D80       Timing_Compensation_Per_Cylinder_A__
 0000:000C8D90       Timing_Compensation_Per_Cylinder_B___Y_Axis
 0000:000C8DC8       Timing_Compensation_Per_Cylinder_B__
 0000:000C8DD8       Timing_Compensation_Per_Cylinder_C___Y_Axis
 0000:000C8E10       Timing_Compensation_Per_Cylinder_C__
 0000:000C8E20       Timing_Compensation_Per_Cylinder_D___Y_Axis
 0000:000C8E58       Timing_Compensation_Per_Cylinder_D__
 0000:000C8E68       Rough_Correction_Learning_Delay_Increasing_Y_Axis
 0000:000C8E90       Rough_Correction_Learning_Delay_Increasing
 0000:000C91C0       Base_Timing_X_Axis
 0000:000C91FC       Base_Timing_Y_Axis
 0000:000C9244       Base_Timing
 0000:000C9354       Timing_Compensation_IAT_Activation_X_Axis
 0000:000C9374       Timing_Compensation_IAT_Activation_Y_Axis
 0000:000C9394       Timing_Compensation_IAT_Activation
 0000:000C93A4       aAaaaaaaaaaaa_0
 0000:000C9510       Knock_Correction_Advance_Max_X_Axis
 0000:000C9550       Knock_Correction_Advance_Max_Y_Axis
 0000:000C9598       Knock_Correction_Advance_Max
 0000:000C96CC       Timing_Compensation_MRP_X_Axis
 0000:000C96E0       Timing_Compensation_MRP_Y_Axis
 0000:000C96EC       Timing_Compensation_MRP
 0000:000C9BE0       aUPLCffSss
 0000:000C9BF4       a@@
 0000:000C9BFC       aA_0
 0000:000C9C80       aP
 0000:000C9C94       a@333
 0000:000C9C9C       aBa
 0000:000C9CA0       aL
 0000:000C9CAC       aBh
 0000:000C9CB0       aB
 0000:000C9CB4       aC
 0000:000C9CB8       aA
 0000:000C9CBC       a@a
 0000:000C9CC0       Idle_Speed_Target_C_Y_Axis
 0000:000C9EEC       aAaaaaaaaaaaaaa
 0000:000CA294       Idle_Speed_Target_A
 0000:000CA2D4       Idle_Speed_Target_B
 0000:000CA314       Idle_Speed_Target_C
 0000:000CA868       aAjffbFfbyssbjf
 0000:000CAC98       Target_Throttle_Plate_Position_Requested_Torque_X_Axis
 0000:000CACDC       Target_Throttle_Plate_Position_Requested_Torque_Y_Axis
 0000:000CAD1C       Target_Throttle_Plate_Position_Requested_Torque
 0000:000CAF3C       Requested_Torque_Accelerator_Pedal_X_Axis
 0000:000CAF78       Requested_Torque_Accelerator_Pedal_Y_Axis
 0000:000CAFB4       Requested_Torque_Accelerator_Pedal
 0000:000CB480       aA33a_ffac33as3
 0000:000CB498       aAFfaz33ap33ass
 0000:000CB8E6       Manifold_Pressure_Sensor_Limits_CEL
 0000:000CB924       a@33@33?Zs?Goez
 0000:000CB938       a@p
 0000:000CB98C       a_ffboff@aSCx
 0000:000CB9C4       Injector_Latency_Y_Axis
 0000:000CB9D8       Injector_Latency
 0000:000CBB94       Fuel_Temp_Sensor_Scaling_Y_Axis
 0000:000CBC0C       Fuel_Temp_Sensor_Scaling
 0000:000CBC84       MAF_Sensor_Scaling_Y_Axis
 0000:000CBD44       MAF_Sensor_Scaling
 0000:000CBE04       EGT_Sensor_Scaling_Y_Axis
 0000:000CBE7C       EGT_Sensor_Scaling
 0000:000CBEF4       Front_Oxygen_Sensor_Scaling_Y_Axis
 0000:000CBF28       Front_Oxygen_Sensor_Scaling
 0000:000CC478       aSssSss?fff?
 0000:000CC6A4       Radiator_Fan_Modes_ECT
 0000:000CC6B4       Radiator_Fan_Modes_Veh_Speed
 0000:000CC6F0       dEcuId
 0000:000CD234       Intake_Cam_Advance_Angle_AVCS_X_Axis
 0000:000CD26C       Intake_Cam_Advance_Angle_AVCS_Y_Axis
 0000:000CD2B4       Intake_Cam_Advance_Angle_AVCS
 0000:000E1400       dRomHoleStart
 0000:000FFB80       Checksum_Fix
 0000:FFFF203C       pObdVinDirect
 0000:FFFF2620       E_AF_Learning_1_A_StoredExt__E44
 0000:FFFF2628       E_AF_Learning_1_B_StoredExt__E45
 0000:FFFF2630       E_AF_Learning_1_C_StoredExt__E46
 0000:FFFF2638       E_AF_Learning_1_D_StoredExt__E47
 0000:FFFF267C       pIam4
 0000:FFFF2D22       pMafSensorVoltage
 0000:FFFF2DB8       pIntakeAirTemp
 0000:FFFF2DF4       pMassAirFlow
 0000:FFFF2E34       pAtmoPress
 0000:FFFF4A54       pAf1Res
 0000:FFFF4BD8       pWgdc4
 0000:FFFF4BE0       E_Boost_ErrorExt__E35
 0000:FFFF4BE4       E_Target_Boost_4byteExt__E36
 0000:FFFF4BE8       E_Turbo_Dynamics_Proportional_4byteExt__E37
 0000:FFFF4BEC       E_Turbo_Dynamics_Integral_4byteExt__E34
 0000:FFFF4C08       E_Primary_Wastegate_Duty_MaximumExt_4byteExt___E77
 0000:FFFF4CD8       pCruiseFlags
 0000:FFFF4EB0       pManifoldAbsolutePressure
 0000:FFFF4EB4       E_Manifold_Relative_Pressure_4byteExt__E113
 0000:FFFF4F40       pThrottlePlate
 0000:FFFF4F44       E_Tipin_ThrottleExt__E54
 0000:FFFF4FB0       pCoolantTemp
 0000:FFFF5030       pEngineLoad
 0000:FFFF5118       E_AF_Sensor_1_4byteExt__E91
 0000:FFFF5139       pClutchFlags
 0000:FFFF5158       pVehicleSpeed
 0000:FFFF5168       pEngineSpeed
 0000:FFFF5269       pCurrentGear
 0000:FFFF5278       E_Primary_Wastegate_Duty_MaximumExt_2byteExtExt_E78
 0000:FFFF527A       E_Turbo_Dynamics_Integral_2byteExtExt_E79
 0000:FFFF527C       E_Turbo_Dynamics_Proportional_2byteExtExt_E80
 0000:FFFF5280       E_AF_Correction_1_2byteExtExt__E82
 0000:FFFF5284       E_AF_Learning_1_2byteExtExt__E83
 0000:FFFF5286       E_Primary_Open_Loop_Map_Enrichment_2byteExtExt__E85
 0000:FFFF528A       E_Final_Fueling_Base_2byteExt__E124
 0000:FFFF528C       E_Engine_Load_2byteExtExt_E87
 0000:FFFF529A       E_Manifold_Relative_Sea_Level_Pressure_2byteExtExt__E89
 0000:FFFF52A0       E_Target_Boost_2byteExtExt__E90
 0000:FFFF52A2       E_AF_Sensor_1_2byteExtExt__E92
 0000:FFFF52A8       E_Closed_Loop_Fueling_Target_2byteExt__E122
 0000:FFFF52AA       E_Throttle_Plate_Opening_Angle_2byteExtExt__E93
 0000:FFFF52B4       pFbkc1
 0000:FFFF52B7       E_Fine_Learning_Knock_Correction_1byteExtExt__E95
 0000:FFFF52B9       pIam1
 0000:FFFF551C       E_Final_Fueling_Base_4byteExt__E123
 0000:FFFF554C       E_Primary_Enrichment_Final_4byteExt_E115
 0000:FFFF55C8       E_AF_Correction_1_4byteExt__E81
 0000:FFFF5610       E_Closed_Loop_Fueling_Target_4byteExt__E121
 0000:FFFF5710       E_AF_Learning_1_4byteExt__E48
 0000:FFFF5719       E_AF_Learning_Airflow_Range_CurrentExt__E61
 0000:FFFF5780       E_Primary_Open_Loop_Map_Enrichment_4byteExt__E84
 0000:FFFF58D0       E_Tipin_Enrichment_Last_CalculatedExt__E55
 0000:FFFF592C       pFlagsRevLimit
 0000:FFFF59AC       E_Fuel_Injector_1_Pulse_Width_4byteExt__E60
 0000:FFFF59C0       E_Fuel_Injector_1_Latency_4byteExt__E50
 0000:FFFF5AE0       E_Ignition_Base_TimingExt__E53
 0000:FFFF5BF0       E_Knock_SumExt_E114
 0000:FFFF5C18       pFbkc4
 0000:FFFF5C5C       E_Knock_Correction_Advance_IAM_onlyExt__E40
 0000:FFFF5C74       E_Fine_Learning_Knock_Correction_4byteExt__E41
 0000:FFFF5C7A       E_Fine_Learning_Table_OffsetExt__E58
 0000:FFFF5E04       E_Target_Throttle_Plate_PositionExt__E57
 0000:FFFF5E08       pReqTorque
 0000:FFFF5F84       E_Idle_Speed_Map_SelectionExt__E49
 0000:FFFF6514       E_Map_Ratio_PrimaryExt__E42
 0000:FFFF6EA5       E_CLOL_FuelingExt__E33
 0000:FFFF6F06       pCelSignalOem
 0000:FFFF72A0       pRamHoleStart
 0000:FFFFBFFB       pMemoryResetLimit
