
 Start         Length     Name                   Class
 0000:00000000 000080000H ROM                    CODE
 0000:00000000 000007FFFH RAM                    


  Address         Publics by Value

 0000:00000000       off_0
 0000:00002000       aA2zj500i
 0000:0000208C       SBR_PULL2D_208C
 0000:00002140       SBR_PULL3D_2140
 0000:0000414C       nullsub_1
 0000:00004150       nullsub_2
 0000:0000416C       nullsub_3
 0000:00004750       a@@@@@@@@@@@@@@
 0000:00004D44       nullsub_13
 0000:00004D48       nullsub_20
 0000:00004D4C       nullsub_14
 0000:00004F1E       nullsub_21
 0000:00004F68       nullsub_15
 0000:00004F7E       nullsub_22
 0000:00004F82       nullsub_16
 0000:00004F9E       nullsub_17
 0000:00004FA2       nullsub_23
 0000:00004FA6       nullsub_18
 0000:00004FEE       nullsub_19
 0000:00005578       aOFocatnCF
 0000:000055A4       aFCatCF4cat6CF_
 0000:00005CBE       aOFucatCA
 0000:000077E4       SBR_MAF_CALC_77E4
 0000:0000C6AA       aCNcoAwCEu9
 0000:0000CAE4       nullsub_4
 0000:0000D37C       nullsub_5
 0000:0000E96C       aCuE0f@
 0000:0000F054       nullsub_6
 0000:000108BE       nullsub_25
 0000:00011624       nullsub_30
 0000:00012E84       aT8dC7Iu2elXp
 0000:0001335E       SBR_Target_Boost_Pull
 0000:00013AA4       Max_Wastegate_Duty_Limit_PostCompensation
 0000:000150A4       SBR_Coast_Swget
 0000:000150B8       SBR_Resume_Swget
 0000:0001883C       aCJCJoFsC
 0000:0001D410       SBR_Load_Calcs
 0000:0001D754       Engine_Load_Limit_Maximum
 0000:0001F5EC       Front_Oxygen_Sensor_Rich_Limit
 0000:000202B0       SBR_Clutch_SwGet
 0000:00022E24       nullsub_28
 0000:00022E28       nullsub_7
 0000:00022E2C       nullsub_8
 0000:00022E30       nullsub_9
 0000:0002327C       nullsub_31
 0000:00023284       nullsub_33
 0000:0002540C       aCoCrA0_
 0000:00029CE4       aAAfl@
 0000:0002A498       SBR_REVLIM_2A498
 0000:0002BC08       aCOAe6U
 0000:00033020       nullsub_32
 0000:0003BF4C       aOXTC0f5@
 0000:0003CD2A       SsmGet_Learned_Ignition_Timing_Correction_P153
 0000:0003CD30       SsmGet_Coolant_Temperature_P2
 0000:0003CD3E       SsmGet_AF_Correction_1_P3
 0000:0003CD5A       SsmGet_AF_Learning_1_P4
 0000:0003CD6A       SsmGet_Boost_Pressure_actual_P7
 0000:0003CD78       SsmGet_Engine_Speed_P8
 0000:0003CDA6       SsmGet_Vehicle_Speed_P9
 0000:0003CDB2       SsmGet_Ignition_Total_Timing_P10
 0000:0003CE1C       SsmGet_Intake_Air_Temperature_P11
 0000:0003CE2A       SsmGet_Mass_Airflow_P12
 0000:0003CE58       SsmGet_Throttle_Opening_Angle_P13
 0000:0003CE66       SsmGet_Rear_O2_Sensor_P15
 0000:0003CE94       SsmGet_Battery_Voltage_P17
 0000:0003CEA2       SsmGet_Mass_Airflow_Sensor_Voltage_P18
 0000:0003CEC6       SsmGet_Throttle_Sensor_Voltage_P19
 0000:0003CEEA       SsmGet_Fuel_Injector_1_Pulse_Width_P21
 0000:0003CEFE       SsmGet_Knock_Correction_Advance_P23
 0000:0003CF0E       SsmGet_Atmospheric_Pressure_P24
 0000:0003CF7C       SsmGet_Manifold_Relative_Pressure_P25
 0000:0003CF9A       SsmGet_Fuel_Tank_Pressure_P27
 0000:0003CFAA       SsmGet_Accelerator_Pedal_Angle_P30
 0000:0003CFB8       SsmGet_Fuel_Temperature_P31
 0000:0003CFC6       SsmGet_Fuel_Level_P35
 0000:0003CFD4       SsmGet_Primary_Wastegate_Duty_Cycle_P36
 0000:0003CFE2       SsmGet_CPC_Valve_Duty_Ratio_P38
 0000:0003CFFA       SsmGet_Tumble_Valve_Position_Sensor_Right_P39
 0000:0003D01E       SsmGet_Tumble_Valve_Position_Sensor_Left_P40
 0000:0003D042       SsmGet_Idle_Speed_Control_Valve_Duty_Ratio_P41
 0000:0003D054       SsmGet_Alternator_Duty_P46
 0000:0003D064       SsmGet_Fuel_Pump_Duty_P47
 0000:0003D072       SsmGet_Intake_VVT_Advance_Angle_Right_P48
 0000:0003D080       SsmGet_Intake_VVT_Advance_Angle_Left_P49
 0000:0003D0F0       SsmGet_Intake_OCV_Duty_Right_P50
 0000:0003D0FE       SsmGet_Intake_OCV_Duty_Left_P51
 0000:0003D10C       SsmGet_Intake_OCV_Current_Right_P52
 0000:0003D11A       SsmGet_Intake_OCV_Current_Left_P53
 0000:0003D128       SsmGet_AF_Sensor_1_Current_P54
 0000:0003D138       SsmGet_AF_Sensor_1_Resistance_P56
 0000:0003D144       SsmGet_AF_Sensor_1_P58
 0000:0003D15C       SsmGet_Switches_69_70_71
 0000:0003D266       SsmGet_Switches_4_5_6_7_8_9
 0000:0003D33E       SsmGet_Switches_10_11_12_13_14_15_16_17
 0000:0003D414       SsmGet_Switches_18_19_20_21_22_23_24_25
 0000:0003D554       SsmGet_Switches_26_27_28_29_30_31_32_33
 0000:0003D606       SsmGet_Switches_34_35_36_37_38_39_40_41
 0000:0003D6EC       SsmGet_Switches_42_43_44_45_46_47_48_49
 0000:0003D724       SsmGet_Switches_50_51_52_53
 0000:0003D7D6       SsmGet_Switches_54_55_56_57_58_59_60_61
 0000:0003D914       SsmGet_Roughness_Monitor_Cylinder_1_P63
 0000:0003D91A       SsmGet_Roughness_Monitor_Cylinder_2_P64
 0000:0003D920       SsmGet_AF_Correction_3_32bit_ECU_P89
 0000:0003DA88       SsmGet_Roughness_Monitor_Cylinder_3_P69
 0000:0003DA8E       SsmGet_Roughness_Monitor_Cylinder_4_P70
 0000:0003DC0A       SsmGet_Throttle_Motor_Duty_P71
 0000:0003DC1A       SsmGet_Throttle_Motor_Voltage_P72
 0000:0003DC28       SsmGet_Sub_Throttle_Sensor_P73
 0000:0003DC4C       SsmGet_Main_Throttle_Sensor_P74
 0000:0003DCA0       SsmGet_Sub_Accelerator_Sensor_P75
 0000:0003DCC4       SsmGet_Main_Accelerator_Sensor_P76
 0000:0003DCE8       SsmGet_Exhaust_Gas_Temperature_P79
 0000:0003DCF8       SsmGet_Memorised_Cruise_Speed_P82
 0000:0003DD04       SsmGet_Estimated_odometer_P120
 0000:0003DD1E       SsmGet_Exhaust_VVT_Advance_Angle_Right_P83
 0000:0003DD2A       SsmGet_Exhaust_VVT_Advance_Angle_Left_P84
 0000:0003DD36       SsmGet_Exhaust_OCV_Duty_Right_P85
 0000:0003DD48       SsmGet_Exhaust_OCV_Duty_Left_P86
 0000:0003DD5A       SsmGet_Exhaust_OCV_Current_Right_P87
 0000:0003DD68       SsmGet_Exhaust_OCV_Current_Left_P88
 0000:0003DD76       SsmGet_Switches_62
 0000:0003DECE       SsmGet_Switches_63_64_65_66_67_68
 0000:0003E068       SsmGet_Accumulated_Count_of_Overspeed_Instances_High_RPM_P199
 0000:0003E06C       SsmGet_Boost_Pressure_Feedback_P168
 0000:0003E0D0       SsmGet_Interior_Heater_P178
 0000:0003E0DE       SsmGet_Battery_Current_P183
 0000:0003E102       SsmGet_Alternator_Control_Mode_P185
 0000:0003E108       SsmGet_Battery_Temperature_P184
 0000:0003E114       SsmGet_Exhaust_Gas_Temperature_at_Diesel_Particulate_Filter_DPF_Inlet_P189
 0000:0004272C       SSM_BASE
 0000:00042748       PtrSsmGet_Engine_Load_Relative_P1
 0000:0004274C       PtrSsmGet_Coolant_Temperature_P2
 0000:00042750       PtrSsmGet_AF_Correction_1_P3
 0000:00042754       PtrSsmGet_AF_Learning_1_P4
 0000:00042758       PtrSsmGet_AF_Correction_2_P5
 0000:0004275C       PtrSsmGet_AF_Learning_2_P6
 0000:00042760       PtrSsmGet_Boost_Pressure_actual_P7
 0000:00042764       PtrSsmGet_Engine_Speed_P8
 0000:0004276C       PtrSsmGet_Vehicle_Speed_P9
 0000:00042770       PtrSsmGet_Ignition_Total_Timing_P10
 0000:00042774       PtrSsmGet_Intake_Air_Temperature_P11
 0000:00042778       PtrSsmGet_Mass_Airflow_P12
 0000:00042780       PtrSsmGet_Throttle_Opening_Angle_P13
 0000:00042784       PtrSsmGet_Front_O2_Sensor_1_P14
 0000:0004278C       PtrSsmGet_Rear_O2_Sensor_P15
 0000:00042794       PtrSsmGet_Front_O2_Sensor_2_P16
 0000:0004279C       PtrSsmGet_Battery_Voltage_P17
 0000:000427A0       PtrSsmGet_Mass_Airflow_Sensor_Voltage_P18
 0000:000427A4       PtrSsmGet_Throttle_Sensor_Voltage_P19
 0000:000427A8       PtrSsmGet_Differential_Pressure_Sensor_Voltage_P20
 0000:000427AC       PtrSsmGet_Fuel_Injector_1_Pulse_Width_P21
 0000:000427B0       PtrSsmGet_Fuel_Injector_2_Pulse_Width_P22
 0000:000427B4       PtrSsmGet_Knock_Correction_Advance_P23
 0000:000427B8       PtrSsmGet_Atmospheric_Pressure_P24
 0000:000427BC       PtrSsmGet_Manifold_Relative_Pressure_P25
 0000:000427C0       PtrSsmGet_Pressure_Differential_Sensor_P26
 0000:000427C4       PtrSsmGet_Fuel_Tank_Pressure_P27
 0000:000427C8       PtrSsmGet_CO_Adjustment_P28
 0000:000427CC       PtrSsmGet_Learned_Ignition_Timing_P29
 0000:000427D0       PtrSsmGet_Accelerator_Pedal_Angle_P30
 0000:000427D4       PtrSsmGet_Fuel_Temperature_P31
 0000:000427D8       PtrSsmGet_Front_O2_Heater_Current_1_P32
 0000:000427DC       PtrSsmGet_Rear_O2_Heater_Current_P33
 0000:000427E0       PtrSsmGet_Front_O2_Heater_Current_2_P34
 0000:000427E4       PtrSsmGet_Fuel_Level_P35
 0000:000427E8       PtrSsmGet_Radiator_Fan_Control_P92
 0000:000427EC       PtrSsmGet_Primary_Wastegate_Duty_Cycle_P36
 0000:000427F0       PtrSsmGet_Secondary_Wastegate_Duty_Cycle_P37
 0000:000427F4       PtrSsmGet_CPC_Valve_Duty_Ratio_P38
 0000:000427F8       PtrSsmGet_Tumble_Valve_Position_Sensor_Right_P39
 0000:000427FC       PtrSsmGet_Tumble_Valve_Position_Sensor_Left_P40
 0000:00042800       PtrSsmGet_Idle_Speed_Control_Valve_Duty_Ratio_P41
 0000:00042804       PtrSsmGet_AF_Lean_Correction_P42
 0000:00042808       PtrSsmGet_AF_Heater_Duty_P43
 0000:0004280C       PtrSsmGet_Idle_Speed_Control_Valve_Step_P44
 0000:00042810       PtrSsmGet_Number_of_Exh_Gas_Recirc_Steps_P45
 0000:00042814       PtrSsmGet_Alternator_Duty_P46
 0000:00042818       PtrSsmGet_Fuel_Pump_Duty_P47
 0000:0004281C       PtrSsmGet_Intake_VVT_Advance_Angle_Right_P48
 0000:00042820       PtrSsmGet_Intake_VVT_Advance_Angle_Left_P49
 0000:00042824       PtrSsmGet_Intake_OCV_Duty_Right_P50
 0000:00042828       PtrSsmGet_Intake_OCV_Duty_Left_P51
 0000:0004282C       PtrSsmGet_Intake_OCV_Current_Right_P52
 0000:00042830       PtrSsmGet_Intake_OCV_Current_Left_P53
 0000:00042834       PtrSsmGet_AF_Sensor_1_Current_P54
 0000:00042838       PtrSsmGet_AF_Sensor_2_Current_P55
 0000:0004283C       PtrSsmGet_AF_Sensor_1_Resistance_P56
 0000:00042840       PtrSsmGet_AF_Sensor_2_Resistance_P57
 0000:00042844       PtrSsmGet_AF_Sensor_1_P58
 0000:00042848       PtrSsmGet_AF_Sensor_2_P59
 0000:0004284C       PtrSsmGet_Front_Wheel_Speed_P93
 0000:00042850       PtrSsmGet_ATF_Temperature_P94
 0000:00042854       PtrSsmGet_Gear_Position_P60
 0000:00042858       PtrSsmGet_Line_Pressure_Duty_Ratio_P95
 0000:0004285C       PtrSsmGet_Lock_Up_Duty_Ratio_P96
 0000:00042860       PtrSsmGet_Transfer_Duty_Ratio_P97
 0000:00042864       PtrSsmGet_Throttle_Sensor_Voltage_P98
 0000:00042868       PtrSsmGet_Turbine_Revolution_Speed_P99
 0000:0004286C       PtrSsmGet_Brake_Clutch_Duty_Ratio_P100
 0000:00042870       PtrSsmGet_Rear_Wheel_Speed_P101
 0000:00042874       PtrSsmGet_Manifold_Pressure_Sensor_Voltage_P102
 0000:00042878       PtrSsmGet_AF_Sensor_1_Heater_Current_P61
 0000:0004287C       PtrSsmGet_AF_Sensor_2_Heater_Current_P62
 0000:00042880       PtrSsmGet_Lateral_G_Sensor_Voltage_P103
 0000:00042884       PtrSsmGet_ATF_Temperature_P104
 0000:00042888       PtrSsmGet_Low_Clutch_Duty_P105
 0000:0004288C       PtrSsmGet_High_Clutch_Duty_P106
 0000:00042890       PtrSsmGet_Load_and_Reverse_Brake_L_and_RB_Duty_P107
 0000:00042894       PtrSsmGet_ATF_Temperature_2_P108
 0000:00042898       PtrSsmGet_Voltage_Center_Differential_Switch_P109
 0000:0004289C       PtrSsmGet_AT_Turbine_Speed_1_P110
 0000:000428A0       PtrSsmGet_AT_Turbine_Speed_2_P111
 0000:000428A4       PtrSsmGet_Center_Differential_Real_Current_P112
 0000:000428A8       PtrSsmGet_Center_Differential_Indicate_Current_P113
 0000:000428B0       PtrSsmGet_Switches_69_70_71
 0000:000428B4       PtrSsmGet_Switches_4_5_6_7_8_9
 0000:000428B8       PtrSsmGet_Switches_10_11_12_13_14_15_16_17
 0000:000428BC       PtrSsmGet_Switches_18_19_20_21_22_23_24_25
 0000:000428C0       PtrSsmGet_Switches_26_27_28_29_30_31_32_33
 0000:000428C4       PtrSsmGet_Switches_34_35_36_37_38_39_40_41
 0000:000428C8       PtrSsmGet_Switches_42_43_44_45_46_47_48_49
 0000:000428CC       PtrSsmGet_Switches_50_51_52_53
 0000:000428D0       PtrSsmGet_Switches_54_55_56_57_58_59_60_61
 0000:000428D4       PtrSsmGet_Switches_76_77_78_79_80_81_82_83
 0000:000428D8       PtrSsmGet_Switches_84_85_86_87_88_89_90_91
 0000:000428DC       PtrSsmGet_Switches_92_93_94_95_96_97_98_99
 0000:000428E0       PtrSsmGet_Switches_100_101_102_103_104_105_106_107
 0000:000428E4       PtrSsmGet_Switches_108_109_110_111_112_113_114_115
 0000:00042A64       PtrSsmGet_Roughness_Monitor_Cylinder_1_P63
 0000:00042A68       PtrSsmGet_Roughness_Monitor_Cylinder_2_P64
 0000:00042A6C       PtrSsmGet_AF_Correction_3_32bit_ECU_P89
 0000:00042A70       PtrSsmGet_AF_Learning_3_P66
 0000:00042A74       PtrSsmGet_Rear_O2_Heater_Voltage_P67
 0000:00042A78       PtrSsmGet_AF_Adjustment_Voltage_P68
 0000:00042A7C       PtrSsmGet_Switches_116_117_118_119_120_121_122_123
 0000:00042A80       PtrSsmGet_Switches_124_125_126_127_128_129
 0000:00042A84       PtrSsmGet_Switches_142_143_144_145_146_147
 0000:00042A88       PtrSsmGet_Switches_148_149_150_151_152_153_154
 0000:00042A8C       PtrSsmGet_Roughness_Monitor_Cylinder_3_P69
 0000:00042A90       PtrSsmGet_Roughness_Monitor_Cylinder_4_P70
 0000:00042AE8       PtrSsmGet_Roughness_Monitor_Cylinder_5_P151
 0000:00042B0C       PtrSsmGet_Roughness_Monitor_Cylinder_6_P152
 0000:00042B10       PtrSsmGet_Learned_Ignition_Timing_Correction_P153
 0000:00042B14       PtrSsmGet_Throttle_Motor_Duty_P71
 0000:00042B18       PtrSsmGet_Throttle_Motor_Voltage_P72
 0000:00042B2C       PtrSsmGet_Sub_Throttle_Sensor_P73
 0000:00042B30       PtrSsmGet_Main_Throttle_Sensor_P74
 0000:00042B34       PtrSsmGet_Sub_Accelerator_Sensor_P75
 0000:00042B38       PtrSsmGet_Main_Accelerator_Sensor_P76
 0000:00042B3C       PtrSsmGet_Brake_Booster_Pressure_P77
 0000:00042B40       PtrSsmGet_Fuel_Pressure_High_P78
 0000:00042B44       PtrSsmGet_Exhaust_Gas_Temperature_P79
 0000:00042B48       PtrSsmGet_Exhaust_Gas_Temperature_2_P116
 0000:00042B4C       PtrSsmGet_Cold_Start_Injector_Air_Pump_P80
 0000:00042B50       PtrSsmGet_SCV_Step_P81
 0000:00042B54       PtrSsmGet_Memorised_Cruise_Speed_P82
 0000:00042B58       PtrSsmGet_AirFuel_Correction_4_P117
 0000:00042B5C       PtrSsmGet_AirFuel_Learning_4_P118
 0000:00042B60       PtrSsmGet_Fuel_Level_Sensor_Resistance_P119
 0000:00042B64       PtrSsmGet_Estimated_odometer_P120
 0000:00042B78       PtrSsmGet_Oil_Temperature_P122
 0000:00042B7C       PtrSsmGet_Oil_Switching_Solenoid_Valve_OSV_Duty_Right_P123
 0000:00042B80       PtrSsmGet_Oil_Switching_Solenoid_Valve_OSV_Duty_Left_P124
 0000:00042B84       PtrSsmGet_Oil_Switching_Solenoid_Valve_OSV_Current_Right_P125
 0000:00042B88       PtrSsmGet_Oil_Switching_Solenoid_Valve_OSV_Current_Left_P126
 0000:00042B8C       PtrSsmGet_Exhaust_VVT_Advance_Angle_Right_P83
 0000:00042B90       PtrSsmGet_Exhaust_VVT_Advance_Angle_Left_P84
 0000:00042B94       PtrSsmGet_Exhaust_OCV_Duty_Right_P85
 0000:00042B98       PtrSsmGet_Exhaust_OCV_Duty_Left_P86
 0000:00042B9C       PtrSsmGet_Exhaust_OCV_Current_Right_P87
 0000:00042BA0       PtrSsmGet_Exhaust_OCV_Current_Left_P88
 0000:00042BA4       PtrSsmGet_VVL_Lift_Mode_P127
 0000:00042BAC       PtrSsmGet_Switches_62
 0000:00042BB0       PtrSsmGet_Switches_63_64_65_66_67_68
 0000:00042BB4       PtrSsmGet_Switches_134_135_136_137_138_139_140_141
 0000:00042C1C       PtrSsmGet_Wheel_Speed_Front_Right_P144
 0000:00042C20       PtrSsmGet_Wheel_Speed_Front_Left_P145
 0000:00042C24       PtrSsmGet_Wheel_Speed_Rear_Right_P146
 0000:00042C28       PtrSsmGet_Wheel_Speed_Rear_Left_P147
 0000:00042C2C       PtrSsmGet_H_and_LRC_Solenoid_Valve_Current_P128
 0000:00042C30       PtrSsmGet_DC_Solenoid_Valve_Current_P129
 0000:00042C34       PtrSsmGet_FB_Solenoid_Valve_Current_P130
 0000:00042C38       PtrSsmGet_IC_Solenoid_Valve_Current_P131
 0000:00042C3C       PtrSsmGet_PL_Solenoid_Valve_Current_P132
 0000:00042C40       PtrSsmGet_LU_Solenoid_Valve_Current_P133
 0000:00042C44       PtrSsmGet_AWD_Solenoid_Valve_Current_P134
 0000:00042C48       PtrSsmGet_Yaw_Rate_Sensor_Voltage_P135
 0000:00042C4C       PtrSsmGet_H_and_LRC_Solenoid_Valve_Pressure_P136
 0000:00042C50       PtrSsmGet_DC_Solenoid_Valve_Pressure_P137
 0000:00042C54       PtrSsmGet_FB_Solenoid_Valve_Pressure_P138
 0000:00042C58       PtrSsmGet_IC_Solenoid_Valve_Pressure_P139
 0000:00042C5C       PtrSsmGet_PL_Solenoid_Valve_Pressure_P140
 0000:00042C60       PtrSsmGet_LU_Solenoid_Valve_Pressure_P141
 0000:00042C64       PtrSsmGet_AWD_Solenoid_Valve_Pressure_P142
 0000:00042C68       PtrSsmGet_Yaw_Rate_and__G_Sensor_Reference_Voltage_P143
 0000:00042C94       PtrSsmGet_Steering_Angle_Sensor_P148
 0000:00042CD4       PtrSsmGet_SIDrive_Mode_P114
 0000:00042CD8       PtrSsmGet_Throttle_Sensor_Closed_Voltage_P115
 0000:00042CF4       PtrSsmGet_Fuel_Tank_Air_Pressure_P121
 0000:00042D40       PtrSsmGet_FwdB_Solenoid_Valve_Current_P149
 0000:00042D44       PtrSsmGet_FwdB_Solenoid_Valve_Target_Pressure_P150
 0000:00042D84       PtrSsmGet_Switches_155_156_157
 0000:00042D88       PtrSsmGet_Switches_158_159_160_161_162_163_164_165
 0000:00042D90       PtrSsmGet_Fine_Learning_Knock_Correction_P91
 0000:00042D94       PtrSsmGet_Fuel_Tank_Pressure_P154
 0000:00042E60       PtrSsmGet_Switches_166_167
 0000:00042E64       PtrSsmGet_Switches_168_169_170_171_172
 0000:00042EB0       PtrSsmGet_Main_Injection_Period_P155
 0000:00042EB4       PtrSsmGet_Final_Injection_Amount_P156
 0000:00042EBC       PtrSsmGet_Number_of_Times_Injected_P157
 0000:00042EC0       PtrSsmGet_Target_Intake_Manifold_Pressure_P158
 0000:00042EC4       PtrSsmGet_Target_Intake_Air_Amount_P159
 0000:00042EC8       PtrSsmGet_Air_Mass_P160
 0000:00042ECC       PtrSsmGet_Exhaust_Gas_Recirculation_EGR_Target_Valve_Opening_Angle_P161
 0000:00042ED0       PtrSsmGet_Exhaust_Gas_Recirculation_EGR_Valve_Opening_Angle_P162
 0000:00042ED4       PtrSsmGet_Exhaust_Gas_Recirculation_EGR_Duty_P163
 0000:00042ED8       PtrSsmGet_Common_Rail_Target_Pressure_P164
 0000:00042EDC       PtrSsmGet_Common_Rail_Pressure_P165
 0000:00042EE0       PtrSsmGet_Intake_Air_Temperature_combined_P166
 0000:00042EE4       PtrSsmGet_Target_Engine_Speed_P167
 0000:00042EEC       PtrSsmGet_Boost_Pressure_Feedback_P168
 0000:00042EF0       PtrSsmGet_Yaw_Rate_P171
 0000:00042EF4       PtrSsmGet_Lateral_G_P172
 0000:00042EF8       PtrSsmGet_Drivers_Control_Center_Differential_DCCD_Torque_Allocation_P173
 0000:00042EFC       PtrSsmGet_Drivers_Control_Center_Differential_DCCD_Mode_P174
 0000:00042F00       PtrSsmGet_Electric_Power_Steering_Current_P169
 0000:00042F04       PtrSsmGet_Fuel_Pump_Suction_Control_Valve_Current_Target_P170
 0000:00042F0C       PtrSsmGet_Fuel_Pump_Suction_Control_Valve_Current_Actual_P175
 0000:00042F14       PtrSsmGet_Mileage_after_Injector_Learning_P176
 0000:00042F3C       PtrSsmGet_Mileage_after_Injector_Replacement_P177
 0000:000430A0       PtrSsmGet_Quantity_Correction_Cylinder_1_P179
 0000:000430A4       PtrSsmGet_Quantity_Correction_Cylinder_2_P180
 0000:000430A8       PtrSsmGet_Quantity_Correction_Cylinder_3_P181
 0000:000430AC       PtrSsmGet_Quantity_Correction_Cylinder_4_P182
 0000:000430EC       PtrSsmGet_Interior_Heater_P178
 0000:000430F0       PtrSsmGet_Battery_Current_P183
 0000:000430F4       PtrSsmGet_Alternator_Control_Mode_P185
 0000:000430F8       PtrSsmGet_Battery_Temperature_P184
 0000:00043100       PtrSsmGet_Cumulative_Ash_Ratio_P186
 0000:00043104       PtrSsmGet_Pressure_Difference_between_Diesel_Particulate_Filter_DPF_Inlet_and_Outlet_P187
 0000:00043108       PtrSsmGet_Exhaust_Gas_Temperature_at_Catalyst_Inlet_P188
 0000:0004310C       PtrSsmGet_Exhaust_Gas_Temperature_at_Diesel_Particulate_Filter_DPF_Inlet_P189
 0000:00043110       PtrSsmGet_Estimated_Catalyst_Temperature_P190
 0000:00043114       PtrSsmGet_Estimated_Temperature_of_the_Diesel_Particulate_Filter_DPF_P191
 0000:00043118       PtrSsmGet_Soot_Accumulation_Ratio_P192
 0000:0004311C       PtrSsmGet_Oil_Dilution_Ratio_P193
 0000:00043178       PtrSsmGet_FrontRear_Wheel_Rotation_Ratio_P194
 0000:0004317C       PtrSsmGet_ABSVDC_Front_Wheel_Mean_Wheel_Speed_P195
 0000:00043180       PtrSsmGet_ABSVDC_Rear_Wheel_Mean_Wheel_Speed_P196
 0000:00043184       PtrSsmGet_Automatic_Transmission_Fluid_ATF_Deterioration_Degree_P197
 0000:0004318C       PtrSsmGet_Accumulated_Count_of_Overspeed_Instances_Very_High_RPM_P198
 0000:00043190       PtrSsmGet_Accumulated_Count_of_Overspeed_Instances_High_RPM_P199
 0000:000475B4       P0335_CRANKSHAFT_POS_SENSOR_A_MALFUNCTION
 0000:000475B5       P0336_CRANKSHAFT_POS_SENSOR_A_RANGEPERF
 0000:000475B8       P0604_CONTROL_MODULE_RAM_ERROR
 0000:000475B9       P0102_MAF_SENSOR_LOW_INPUT
 0000:000475BA       P0103_MAF_SENSOR_HIGH_INPUT
 0000:000475BC       P0327_KNOCK_SENSOR_1_LOW_INPUT
 0000:000475BD       P0328_KNOCK_SENSOR_1_HIGH_INPUT
 0000:000475BE       P0122_TPS_A_LOW_INPUT
 0000:000475BF       P0123_TPS_A_HIGH_INPUT
 0000:000475C1       P0117_COOLANT_TEMP_SENSOR_LOW_INPUT
 0000:000475C2       P0118_COOLANT_TEMP_SENSOR_HIGH_INPUT
 0000:000475C3       P0464_FUEL_LEVEL_SENSOR_INTERMITTENT
 0000:000475C4       P0125_INSUFFICIENT_COOLANT_TEMP_FUELING
 0000:000475C5       P0462_FUEL_LEVEL_SENSOR_LOW_INPUT
 0000:000475C6       P0463_FUEL_LEVEL_SENSOR_HIGH_INPUT
 0000:000475C7       P0461_FUEL_LEVEL_SENSOR_RANGEPERF
 0000:000475C9       P1518_STARTER_SWITCH_LOW_INPUT
 0000:000475CA       P0512_STARTER_REQUEST_CIRCUIT
 0000:000475CB       P0452_EVAP_PRESSURE_SENSOR_LOW_INPUT
 0000:000475CC       P0453_EVAP_PRESSURE_SENSOR_HIGH_INPUT
 0000:000475CD       P0451_EVAP_PRESSURE_SENSOR_RANGEPERF
 0000:000475CE       P0851_NEUTRAL_SWITCH_INPUT_LOW
 0000:000475CF       P0182_FUEL_TEMP_SENSOR_A_LOW_INPUT
 0000:000475D0       P0183_FUEL_TEMP_SENSOR_A_HIGH_INPUT
 0000:000475D1       P0181_FUEL_TEMP_SENSOR_A_RANGEPERF
 0000:000475D2       P0852_NEUTRAL_SWITCH_INPUT_HIGH
 0000:000475D3       P1446_FUEL_TANK_SENSOR_CONTROL_CIRCUIT_LOW
 0000:000475D4       P1447_FUEL_TANK_SENSOR_CONTROL_CIRCUIT_HIGH
 0000:000475D5       P1090_TGV_SYSTEM_1_VALVE_OPEN
 0000:000475D6       P1091_TGV_SYSTEM_1_VALVE_CLOSE
 0000:000475D7       P1092_TGV_SYSTEM_2_VALVE_OPEN
 0000:000475D8       P1093_TGV_SYSTEM_2_VALVE_CLOSE
 0000:000475DB       P0506_IDLE_CONTROL_RPM_LOWER_THAN_EXPECTED
 0000:000475DC       P0507_IDLE_CONTROL_RPM_HIGH_THAN_EXPECTED
 0000:000475DD       P1448_FUEL_TANK_SENSOR_CONTROL_RANGEPERF
 0000:000475DE       P0691_RADIATOR_FAN_CIRCUIT_LOW
 0000:000475DF       P0692_RADIATOR_FAN_CIRCUIT_HIGH
 0000:000475E0       P0483_RADIATOR_FAN_RATIONALITY_CHECK
 0000:000475E4       P0011_CAMSHAFT_POS__TIMING_OVERADVANCED_1
 0000:000475E5       P0021_CAMSHAFT_POS__TIMING_OVERADVANCED_2
 0000:000475E6       P1400_FUEL_TANK_PRESSURE_SOL_LOW
 0000:000475E7       P1420_FUEL_TANK_PRESSURE_SOL_HIGH_INPUT
 0000:000475E8       P0458_EVAP_PURGE_VALVE_CIRCUIT_LOW
 0000:000475E9       P0459_EVAP_PURGE_VALVE_CIRCUIT_HIGH
 0000:000475EC       P1443_VENT_CONTROL_SOLENOID_FUNCTION_PROBLEM
 0000:000475ED       P0447_EVAP_VENT_CONTROL_CIRCUIT_OPEN
 0000:000475EE       P0448_EVAP_VENT_CONTROL_CIRCUIT_SHORTED
 0000:000475EF       P0133_FRONT_O2_SENSOR_SLOW_RESPONSE
 0000:000475F0       P0139_REAR_O2_SENSOR_SLOW_RESPONSE
 0000:000475F1       P1152_FRONT_O2_SENSOR_RANGEPERF_LOW_B1_S1
 0000:000475F2       P1153_FRONT_O2_SENSOR_RANGEPERF_HIGH_B1_S1
 0000:000475F3       P0420_CAT_EFFICIENCY_BELOW_THRESHOLD
 0000:000475F4       P0442_EVAP_LEAK_DETECTED_SMALL
 0000:000475F5       P0456_EVAP_LEAK_DETECTED_VERY_SMALL
 0000:000475F6       P0171_SYSTEM_TOO_LEAN
 0000:000475F7       P0172_SYSTEM_TOO_RICH
 0000:000475F8       P0301_MISFIRE_CYLINDER_1
 0000:000475F9       P0302_MISFIRE_CYLINDER_2
 0000:000475FA       P0303_MISFIRE_CYLINDER_3
 0000:000475FB       P0304_MISFIRE_CYLINDER_4
 0000:000475FC       P1301_MISFIRE_HIGH_TEMP_EXHAUST_GAS
 0000:000475FD       P0457_EVAP_LEAK_DETECTED_FUEL_CAP
 0000:000475FE       P0000_PASS_CODE_NO_DTC_DETECTED
 0000:000475FF       P0000_PASS_CODE_NO_DTC_DETECTED_
 0000:00047600       P0137_REAR_O2_SENSOR_LOW_VOLTAGE
 0000:00047601       P0131_FRONT_O2_SENSOR_LOW_INPUT
 0000:00047602       P0132_FRONT_O2_SENSOR_HIGH_INPUT
 0000:00047603       P0138_REAR_O2_SENSOR_HIGH_VOLTAGE
 0000:00047604       P0112_IAT_SENSOR_LOW_INPUT
 0000:00047605       P0113_IAT_SENSOR_HIGH_INPUT
 0000:00047606       P0111_IAT_SENSOR_RANGEPERF
 0000:00047607       P0038_REAR_O2_SENSOR_HIGH_INPUT
 0000:00047608       P0032_FRONT_O2_SENSOR_HIGH_INPUT
 0000:00047609       P0037_REAR_O2_SENSOR_LOW_INPUT
 0000:0004760A       P0031_FRONT_O2_SENSOR_LOW_INPUT
 0000:0004760B       P1110_ATMOS_PRESSURE_SENSOR_LOW_INPUT
 0000:0004760C       P1111_ATMOS_PRESSURE_SENSOR_HIGH_INPUT
 0000:0004760D       P0107_MAP_SENSOR_LOW_INPUT
 0000:0004760E       P0108_MAP_SENSOR_HIGH_INPUT
 0000:0004760F       P0128_THERMOSTAT_MALFUNCTION
 0000:00047610       P1491_PCV_BLOWBY_FUNCTION_PROBLEM
 0000:00047611       P1560_BACKUP_VOLTAGE_MALFUNCTION
 0000:00047614       P0245_WASTEGATE_SOLENOID_A_LOW
 0000:00047615       P0246_WASTEGATE_SOLENOID_A_HIGH
 0000:00047616       P0244_WASTEGATE_SOLENOID_A_RANGEPERF
 0000:00047617       P1095_TGV_SIGNAL_1_SHORT
 0000:00047618       P1097_TGV_SIGNAL_2_SHORT
 0000:00047619       P1094_TGV_SIGNAL_1_OPEN
 0000:0004761A       P1096_TGV_SIGNAL_2_OPEN
 0000:0004761F       P0545_EGT_SENSOR_CIRCUIT_LOW
 0000:00047620       P0546_EGT_SENSOR_CIRCUIT_HIGH
 0000:00047621       P1312_EGT_SENSOR_MALFUNCTION
 0000:00047622       P1544_EGT_TOO_HIGH
 0000:00047623       P1086_TGV_POS_2_CIRCUIT_LOW
 0000:00047624       P1087_TGV_POS_2_CIRCUIT_HIGH
 0000:00047625       P1088_TGV_POS_1_CIRCUIT_LOW
 0000:00047626       P1089_TGV_POS_1_CIRCUIT_HIGH
 0000:00047627       P1282_PCV_SYSTEM_CIRCUIT_OPEN
 0000:0004762A       P0502_VEHICLE_SPEED_SENSOR_LOW_INPUT
 0000:0004762B       P0230_FUEL_PUMP_PRIMARY_CIRCUIT
 0000:0004762C       P0068_MAP_SENSOR_RANGEPERF
 0000:0004762D       P0129_ATMOS_PRESSURE_SENSOR_RANGEPERF
 0000:0004762E       P0519_IDLE_CONTROL_MALFUNCTION_FAILSAFE
 0000:0004762F       P0101_MAF_SENSOR_RANGEPERF
 0000:00047630       P0134_FRONT_O2_SENSOR_NO_ACTIVITY
 0000:00047631       P0030_FRONT_O2_SENSOR_RANGEPERF
 0000:00047632       P0503_VEHICLE_SPEED_SENSOR_INTERMITTENT
 0000:00047633       P2109_TPS_A_MINIMUM_STOP_PERF
 0000:00047634       P0222_TPS_B_LOW_INPUT
 0000:00047635       P0223_TPS_B_HIGH_INPUT
 0000:00047636       P1160_ABNORMAL_RETURN_SPRING
 0000:00047637       P2102_THROTTLE_ACTUATOR_CIRCUIT_LOW
 0000:00047638       P2103_THROTTLE_ACTUATOR_CIRCUIT_HIGH
 0000:00047639       P2101_THROTTLE_ACTUATOR_CIRCUIT_RANGEPERF
 0000:0004763A       P2096_POST_CATALYST_TOO_LEAN_B1
 0000:0004763B       P0638_THROTTLE_ACTUATOR_RANGEPERF
 0000:0004763C       P0607_CONTROL_MODULE_PERFORMANCE
 0000:0004763D       P2138_TPS_DE_VOLTAGE
 0000:0004763E       P2127_TPS_E_CIRCUIT_LOW_INPUT
 0000:0004763F       P2128_TPS_E_CIRCUIT_HIGH_INPUT
 0000:00047640       P2122_TPS_D_CIRCUIT_LOW_INPUT
 0000:00047641       P2123_TPS_D_CIRCUIT_HIGH_INPUT
 0000:00047642       P2135_TPS_AB_VOLTAGE
 0000:00047643       P2097_POST_CATALYST_TOO_RICH_B1
 0000:00047644       P0600_SERIAL_COMMUNICATION_LINK
 0000:00047647       P0345_CAMSHAFT_POS_SENSOR_A_BANK_2
 0000:00047648       P0340_CAMSHAFT_POS_SENSOR_A_MALFUNCTION_
 0000:00047649       P0605_CONTROL_MODULE_ROM_ERROR
 0000:0004764E       P2093_OCV_SOLENOID_A2_CIRCUIT_SHORT
 0000:0004764F       P2092_OCV_SOLENOID_A2_CIRCUIT_OPEN
 0000:00047650       P2089_OCV_SOLENOID_A1_CIRCUIT_SHORT
 0000:00047651       P2088_OCV_SOLENOID_A1_CIRCUIT_OPEN
 0000:00047652       P0700_TRANSMISSION_CONTROL_SYSTEM
 0000:00049DE6       nullsub_24
 0000:0004A812       Force_Pass_Readiness_Monitors
 0000:0004CE54       aBBF
 0000:0004CFE0       SBR_CEL_EVAL_JUMPS
 0000:0004D2A2       nullsub_26
 0000:0004D2A6       nullsub_27
 0000:0004D600       SBR_CEL_LIGHT_TRIGGER
 0000:0004E322       SBR_CEL_EVAL_0
 0000:0004E3B8       SBR_CEL_EVAL_1
 0000:00052770       aCOTUlF
 0000:00057914       Coolant_Temp_Sensor_Scaling_Y_Axis
 0000:00057984       Coolant_Temp_Sensor_Scaling
 0000:000579F4       Intake_Temp_Sensor_Scaling_Y_Axis
 0000:00057A6C       Intake_Temp_Sensor_Scaling
 0000:00057BEC       aA2zj500i_0
 0000:00057C5C       Atmospheric_Pressure_Sensor_Scaling
 0000:00057CB8       Manifold_Pressure_Sensor_Scaling
 0000:00057EC4       aA
 0000:00057ED6       aA_0
 0000:00057EDA       aA_1
 0000:00057EEC       aA_2
 0000:00057EF0       aFFa
 0000:00057EF6       aA_3
 0000:00057EF8       aA_4
 0000:00057EFA       aA_5
 0000:00057F06       aFFa_0
 0000:00057F0C       aA_6
 0000:00057F0E       aA_7
 0000:00057F10       aA_8
 0000:00057F1C       aA_9
 0000:00057F1E       aA_10
 0000:00057F20       aA_11
 0000:00057F22       aA_12
 0000:00057F32       aA_13
 0000:00057F34       aA_14
 0000:00057F36       aA_15
 0000:00057F38       aA_16
 0000:00057F48       aA_17
 0000:00057F4A       aA_18
 0000:00057F4C       aA_19
 0000:00057F4E       aA_20
 0000:00057FD9       Boost_Control_Disable_Delay_Fine_Correction
 0000:00057FEC       TD_Activation_Thresholds_Target_Boost
 0000:00057FF8       TD_Integral_Negative_Activation_Boost_Error
 0000:00058000       TD_Integral_Positive_Activation_Boost_Error
 0000:00058004       TD_Integral_Positive_Activation_Wastegate_Duty
 0000:00058018       TD_Activation_Thresholds_RPM
 0000:00058020       TD_Integral_Cumulative_Range_WGDC_Correction
 0000:00058030       Boost_Control_Disable_Fine_Correction
 0000:00058034       Boost_Control_Disable_IAM
 0000:0005804C       Target_Boost_Compensation_1st_Gear_Speed_Disable
 0000:00058054       Target_Boost_Compensation_1st_Gear
 0000:00058058       InitialMax_Wastegate_Duty_Compensation_ECT_Y_Axis
 0000:000580A4       InitialMax_Wastegate_Duty_Compensation_IAT_Y_Axis
 0000:000580E4       InitialMax_Wastegate_Duty_Compensation_IAT
 0000:00058104       InitialMax_Wastegate_Duty_Compensation_ECT
 0000:00058124       Target_Boost_Compensation_ECT
 0000:00058148       Target_Boost_Compensation_Atm_Pressure_Multiplier_Offset_Y_Axis
 0000:00058158       Target_Boost_Compensation_Atm_Pressure_Multiplier_Offset
 0000:0005815C       Turbo_Dynamics_Proportional_Y_Axis
 0000:00058180       Turbo_Dynamics_Proportional
 0000:00058194       Turbo_Dynamics_Integral_Negative_Y_Axis
 0000:000581B8       Turbo_Dynamics_Integral_Negative
 0000:000581CC       Turbo_Dynamics_Integral_Positive_Y_Axis
 0000:000581F0       Turbo_Dynamics_Integral_Positive
 0000:0005821C       Target_Boost_Compensation_Atm_Pressure_Multiplier_Y_Axis
 0000:0005822C       Target_Boost_Compensation_Atm_Pressure_Multiplier
 0000:00058248       InitialMax_Wastegate_Duty_Compensation_Atm_Pressure_X_Axis
 0000:00058260       InitialMax_Wastegate_Duty_Compensation_Atm_Pressure_Y_Axis
 0000:00058270       InitialMax_Wastegate_Duty_Compensation_Atm_Pressure
 0000:000582D0       Initial_Wastegate_Duty_X_Axis
 0000:000582F0       Initial_Wastegate_Duty_Y_Axis
 0000:00058320       Initial_Wastegate_Duty
 0000:000583F8       Max_Wastegate_Duty_X_Axis
 0000:00058418       Max_Wastegate_Duty_Y_Axis
 0000:00058438       Max_Wastegate_Duty
 0000:00058500       Target_Boost_X_Axis
 0000:00058520       Target_Boost_Y_Axis
 0000:00058550       Target_Boost
 0000:00059100       aAAACCCCCCAAAAA
 0000:0005916E       aD
 0000:00059170       aD_0
 0000:00059172       aD_1
 0000:00059174       aD_2
 0000:00059176       aD_3
 0000:00059178       aD_4
 0000:0005917A       aD_5
 0000:0005917C       aD_6
 0000:00059298       aYBt33bI?bgo?bg
 0000:000592B8       a@
 0000:000592C0       a@_0
 0000:000592C4       aBIbU?a
 0000:000592D4       a?
 0000:00059344       MAF_Limit_Maximum
 0000:00059348       Load_Filter_A_59348
 0000:0005934C       Load_Filter_B_5934C
 0000:00059350       Load_Filter_Final_59350
 0000:00059558       Gear_Determination_Thresholds
 0000:00059604       Speed_Limiting_Throttle
 0000:00059740       Front_Oxygen_Sensor_Compensation_Atm_Pressure_Y_Axis
 0000:00059750       Front_Oxygen_Sensor_Compensation_Atm_Pressure
 0000:000599DC       Engine_Load_Compensation_MP_X_Axis
 0000:00059A08       Engine_Load_Compensation_MP_Y_Axis
 0000:00059A38       Engine_Load_Compensation_MP
 0000:00059ABC       MAF_Compensation_IAT_X_Axis
 0000:00059AD0       MAF_Compensation_IAT_Y_Axis
 0000:00059AF0       MAF_Compensation_IAT
 0000:0005A00D       Manifold_Pressure_Sensor_CEL_Delays
 0000:0005A218       a?P?sssCffbr
 0000:0005A22C       aB_0
 0000:0005A4FC       aLL?333bm
 0000:0005A510       aAa
 0000:0005A514       a@_1
 0000:0005A51C       aBh_0
 0000:0005AB0C       aUsI1VX@uxb@uxb
 0000:0005B09C       aUPTJEAAiMshAId
 0000:0005CE07       Tipin_Enrichment_Disable_Applied_Counter_Threshold
 0000:0005CE08       Tipin_Enrichment_Applied_Counter_Reset
 0000:0005CE09       Tipin_Throttle_Cumulative_Reset
 0000:0005CE3E       CL_to_OL_Delay
 0000:0005CF14       Injector_Flow_Scaling
 0000:0005CF18       Min_Primary_Base_Enrich_3_Decay_Multiplier
 0000:0005CF30       aLLUtUP?a
 0000:0005CF44       aLG8qi@
 0000:0005CFB0       aL?fff?333?s33
 0000:0005D028       a5NuM4a
 0000:0005D044       aPRJlZqaITKdL6z
 0000:0005D0B8       a?u33?j_L
 0000:0005D0CC       aUP?a
 0000:0005D12C       AF_Learning_1_Limits
 0000:0005D138       AF_Learning_1_Airflow_Ranges
 0000:0005D180       Minimum_Active_Primary_Open_Loop_Enrichment
 0000:0005D184       CL_to_OL_Transition_with_Delay_Throttle_Hysteresis
 0000:0005D188       CL_to_OL_Transition_with_Delay_BPW_Hysteresis
 0000:0005D18C       CL_Delay_Minimum_ECT
 0000:0005D1B8       CL_Delay_Maximum_Engine_Speed_Per_Gear
 0000:0005D1E0       CL_Delay_Maximum_Engine_Speed_Neutral
 0000:0005D1F8       CL_Delay_Maximum_Throttle
 0000:0005D1FC       CL_Delay_Maximum_Vehicle_Speed
 0000:0005D204       CL_Delay_Maximum_EGT
 0000:0005D21C       Primary_Open_Loop_Fuel_Map_Switch_IAM
 0000:0005D318       Minimum_Tipin_Enrichment_Activation_Throttle
 0000:0005D31C       Minimum_Tipin_Enrichment_Activation
 0000:0005D320       Tipin_Enrichment_Disable_Throttle_Cumulative_Threshold
 0000:0005D364       Rev_Limit_Fuel_Cut
 0000:0005D36C       Rev_Limit_Fuel_Resume_Boost
 0000:0005D3B4       Speed_Limiting_Enable_Fuel_Cut
 0000:0005D3BC       Speed_Limiting_Disable_Fuel_Cut
 0000:0005D430       Min_Primary_Base_Enrich_3_Decay_Delay_B_Y_Axis
 0000:0005D4C0       Cranking_Fuel_IPW_Compensation_Accelerator_Y_Axis
 0000:0005D4D8       Cranking_Fuel_IPW_Compensation_Accelerator
 0000:0005D4EE       Min_Primary_Base_Enrich_3_Decay_Delay_A
 0000:0005D4FE       Min_Primary_Base_Enrich_3_Decay_Delay_B
 0000:0005D52E       Min_Primary_Base_Enrichment_1
 0000:0005D6AC       CL_to_OL_Transition_with_Delay_Throttle_Y_Axis
 0000:0005D6EC       CL_to_OL_Transition_with_Delay_Throttle
 0000:0005D6FC       Minimum_Primary_Open_Loop_Enrichment_Throttle_Y_Axis
 0000:0005D714       Minimum_Primary_Open_Loop_Enrichment_Throttle
 0000:0005D71C       Primary_Open_Loop_Fueling_Compensation_Timing_Compensation__Y_Axis
 0000:0005D734       Primary_Open_Loop_Fueling_Compensation_Timing_Compensation_
 0000:0005D794       Tipin_Enrichment_Compensation_Boost_Error_Y_Axis
 0000:0005D7B8       Tipin_Enrichment_Compensation_Boost_Error
 0000:0005D842       Cranking_Fuel_Injector_Pulse_Width_A_ECT
 0000:0005D862       Cranking_Fuel_Injector_Pulse_Width_B_ECT
 0000:0005D882       Cranking_Fuel_Injector_Pulse_Width_C_ECT
 0000:0005D8A2       Cranking_Fuel_Injector_Pulse_Width_D_ECT
 0000:0005D8C2       Min_Primary_Base_Enrich_3_Initial_Start_1A
 0000:0005D8E2       Min_Primary_Base_Enrich_3_Initial_Start_1B
 0000:0005D902       Min_Primary_Base_Enrich_3_Initial_Start_2A
 0000:0005D922       Min_Primary_Base_Enrich_3_Initial_Start_2B
 0000:0005D942       Min_Primary_Base_Enrich_2_Initial_Start_1A
 0000:0005D962       Min_Primary_Base_Enrich_2_Initial_Start_2A
 0000:0005D982       Min_Primary_Base_Enrich_2_Initial_Start_1B
 0000:0005D9A2       Min_Primary_Base_Enrich_2_Initial_Start_2B
 0000:0005D9C2       Min_Primary_Base_Enrich_2_Decay_Step_1
 0000:0005D9E2       Min_Primary_Base_Enrich_2_Decay_Step_2
 0000:0005DD94       CL_to_OL_Transition_with_Delay_Base_Pulse_Width_Y_Axis
 0000:0005DDD4       CL_to_OL_Transition_with_Delay_Base_Pulse_Width
 0000:0005DDF4       Primary_Open_Loop_Fueling_Compensation_ECT
 0000:0005DDFC       a1KDzgoqYA
 0000:0005DE0C       aA_21
 0000:0005DE0E       aA_22
 0000:0005DE10       aA_23
 0000:0005DE12       aA_24
 0000:0005DE18       aC_1
 0000:0005DEB4       Throttle_Tipin_Enrichment_Y_Axis
 0000:0005DEFC       Throttle_Tipin_Enrichment
 0000:0005DF20       Tipin_Enrichment_Compensation_ECT
 0000:0005DF60       Boost_Limit_Fuel_Cut_Y_Axis
 0000:0005DF78       Boost_Limit_Fuel_Cut
 0000:0005E100       Cranking_Fuel_IPW_Compensation_RPM_X_Axis
 0000:0005E114       Cranking_Fuel_IPW_Compensation_RPM_Y_Axis
 0000:0005E130       Cranking_Fuel_IPW_Compensation_RPM
 0000:0005E1FC       Min_Primary_Base_Enrichment_1_NonPrimary_OL_X_Axis
 0000:0005E21C       Min_Primary_Base_Enrichment_1_NonPrimary_OL_Y_Axis
 0000:0005E228       Min_Primary_Base_Enrichment_1_NonPrimary_OL
 0000:0005E254       Primary_Open_Loop_Fueling_X_Axis
 0000:0005E290       Primary_Open_Loop_Fueling_Y_Axis
 0000:0005E2D8       Primary_Open_Loop_Fueling
 0000:0005E3FC       Primary_Open_Loop_Fueling_Failsafe_X_Axis
 0000:0005E438       Primary_Open_Loop_Fueling_Failsafe_Y_Axis
 0000:0005E480       Primary_Open_Loop_Fueling_Failsafe
 0000:0005E590       Per_Injector_Primary_Fuel_Offset_Compensation_A_X_Axis
 0000:0005E5D4       Per_Injector_Primary_Fuel_Offset_Compensation_A_Y_Axis
 0000:0005E60C       Per_Injector_Primary_Fuel_Offset_Compensation_A
 0000:0005E6FC       Per_Injector_Primary_Fuel_Offset_Compensation_B_X_Axis
 0000:0005E740       Per_Injector_Primary_Fuel_Offset_Compensation_B_Y_Axis
 0000:0005E778       Per_Injector_Primary_Fuel_Offset_Compensation_B
 0000:0005E868       Per_Injector_Primary_Fuel_Offset_Compensation_C_X_Axis
 0000:0005E8AC       Per_Injector_Primary_Fuel_Offset_Compensation_C_Y_Axis
 0000:0005E8E4       Per_Injector_Primary_Fuel_Offset_Compensation_C
 0000:0005E9D4       Per_Injector_Primary_Fuel_Offset_Compensation_D_X_Axis
 0000:0005EA18       Per_Injector_Primary_Fuel_Offset_Compensation_D_Y_Axis
 0000:0005EA50       Per_Injector_Primary_Fuel_Offset_Compensation_D
 0000:0005EC98       CL_Fueling_Target_Compensation_A_ECT_Y_Axis
 0000:0005ECA4       CL_Fueling_Target_Compensation_A_ECT
 0000:0005ED4C       CL_Fueling_Target_Compensation_B_ECT_Y_Axis
 0000:0005ED58       CL_Fueling_Target_Compensation_B_ECT
 0000:0005EDA4       aJfjfjfsSMAdada
 0000:0005EDD0       CL_Fueling_Target_Compensation_Load_X_Axis
 0000:0005EDFC       CL_Fueling_Target_Compensation_Load_Y_Axis
 0000:0005EE24       CL_Fueling_Target_Compensation_Load
 0000:0005EF10       a33333333
 0000:0005EF5C       Feedback_Correction_Negative_Advance_Delay
 0000:0005EF6A       Fine_Correction_Advance_Delay
 0000:0005EFCC       a?333?333?333?3
 0000:0005F030       Base_Timing_Idle_Vehicle_Speed_Threshold
 0000:0005F05C       Base_Timing_Idle_Below_Speed_Threshold
 0000:0005F060       Timing_Comp_Min_Load_IAT
 0000:0005F168       Timing_Comp_Maximum_RPM_Per_Cylinder
 0000:0005F16C       Timing_Comp_Minimum_Load_Per_Cylinder
 0000:0005F170       Timing_Comp_Minimum_Coolant_Temp_Per_Cylinder
 0000:0005F180       Feedback_Correction_Retard_Limit
 0000:0005F184       Feedback_Correction_Retard_Value
 0000:0005F188       Feedback_Correction_Negative_Advance_Value
 0000:0005F1A0       Feedback_Correction_Range_RPM
 0000:0005F1B0       Feedback_Correction_Minimum_Load
 0000:0005F1B8       Extended_Feedback_Correction_High_RPM_Compensation
 0000:0005F22C       Advance_Multiplier_Initial
 0000:0005F230       Rough_Correction_Range_RPM
 0000:0005F240       Rough_Correction_Range_Load
 0000:0005F250       Rough_Correction_Minimum_KC_Advance_Map_Value
 0000:0005F254       Advance_Multiplier_Step_Value
 0000:0005F27C       Fine_Correction_Advance_Limit
 0000:0005F280       Fine_Correction_Retard_Limit
 0000:0005F284       Fine_Correction_Advance_Value
 0000:0005F288       Fine_Correction_Range_RPM
 0000:0005F298       Fine_Correction_Range_Load
 0000:0005F2A8       Fine_Correction_Columns_Load
 0000:0005F2B8       Fine_Correction_Rows_RPM
 0000:0005F2D0       Fine_Correction_Retard_Value
 0000:0005F2DC       Timing_Compensation_ECT_Y_Axis
 0000:0005F3C4       aAgggg
 0000:0005F40C       Base_Timing_Idle_Above_Speed_Threshold_Y_Axis
 0000:0005F430       Base_Timing_Idle_Above_Speed_Threshold
 0000:0005F449       Timing_Compensation_ECT
 0000:0005F45C       Timing_Compensation_IAT_Y_Axis
 0000:0005F49C       Timing_Compensation_IAT
 0000:0005F85C       Timing_Compensation_Per_Cylinder_A___Y_Axis
 0000:0005F894       Timing_Compensation_Per_Cylinder_A__
 0000:0005F8A4       Timing_Compensation_Per_Cylinder_B___Y_Axis
 0000:0005F8DC       Timing_Compensation_Per_Cylinder_B__
 0000:0005F8EC       Timing_Compensation_Per_Cylinder_C___Y_Axis
 0000:0005F924       Timing_Compensation_Per_Cylinder_C__
 0000:0005F934       Timing_Compensation_Per_Cylinder_D___Y_Axis
 0000:0005F96C       Timing_Compensation_Per_Cylinder_D__
 0000:0005F97C       Rough_Correction_Learning_Delay_Increasing_Y_Axis
 0000:0005F9A4       Rough_Correction_Learning_Delay_Increasing
 0000:0005FCB4       Base_Timing_X_Axis
 0000:0005FCF0       Base_Timing_Y_Axis
 0000:0005FD38       Base_Timing
 0000:0005FF84       Knock_Correction_Advance_Max_X_Axis
 0000:0005FFC4       Knock_Correction_Advance_Max_Y_Axis
 0000:0006000C       Knock_Correction_Advance_Max
 0000:00060140       Timing_Compensation_MRP_X_Axis
 0000:00060154       Timing_Compensation_MRP_Y_Axis
 0000:00060160       Timing_Compensation_MRP
 0000:00060574       aGAFf@FfL
 0000:000605F4       aP
 0000:00060608       a@333
 0000:00060610       aBa
 0000:00060614       aL
 0000:00060620       aBh
 0000:00060624       aB
 0000:00060628       aC
 0000:0006062C       Idle_Speed_Target_C_Y_Axis
 0000:00060B54       Idle_Speed_Target_A
 0000:00060B94       Idle_Speed_Target_B
 0000:00060BD4       Idle_Speed_Target_C
 0000:00061048       aAjffbFfbyssbjf
 0000:00061348       Target_Throttle_Plate_Position_Requested_Torque_X_Axis
 0000:0006138C       Target_Throttle_Plate_Position_Requested_Torque_Y_Axis
 0000:000613CC       Target_Throttle_Plate_Position_Requested_Torque
 0000:000615EC       Requested_Torque_Accelerator_Pedal_X_Axis
 0000:00061628       Requested_Torque_Accelerator_Pedal_Y_Axis
 0000:00061664       Requested_Torque_Accelerator_Pedal
 0000:00061B72       Manifold_Pressure_Sensor_Limits_CEL
 0000:00061BB0       a@33@33?Zs?Goez
 0000:00061BC4       a@p
 0000:00061C18       Injector_Latency_Y_Axis
 0000:00061C2C       Injector_Latency
 0000:00061D90       Fuel_Temp_Sensor_Scaling_Y_Axis
 0000:00061E08       Fuel_Temp_Sensor_Scaling
 0000:00061E80       MAF_Sensor_Scaling_Y_Axis
 0000:00061F40       MAF_Sensor_Scaling
 0000:00062000       EGT_Sensor_Scaling_Y_Axis
 0000:00062078       EGT_Sensor_Scaling
 0000:000620F0       Front_Oxygen_Sensor_Scaling_Y_Axis
 0000:00062124       Front_Oxygen_Sensor_Scaling
 0000:000628A0       Radiator_Fan_Modes_ECT
 0000:000628B0       Radiator_Fan_Modes_Veh_Speed
 0000:00062CE4       aAaaaaaaaaaaaaa
 0000:00063420       Intake_Cam_Advance_Angle_AVCS_X_Axis
 0000:00063458       Intake_Cam_Advance_Angle_AVCS_Y_Axis
 0000:000634A0       Intake_Cam_Advance_Angle_AVCS
 0000:0006988E       nullsub_10
 0000:00072B28       aCJCJs
 0000:00075406       aCOF0t8Ls7i
 0000:000778B6       aCoUgtgdscm3P
 0000:00077B7A       aCoUgtgdscm3P_0
 0000:0007B848       nullsub_11
 0000:0007B85C       nullsub_12
 0000:0007B886       nullsub_29
 0000:0007FB80       Checksum_Fix
 0000:FFFF84FC       E_AF_Learning_1_A_StoredExt_E44
 0000:FFFF8504       E_AF_Learning_1_B_StoredExt_E45
 0000:FFFF850C       E_AF_Learning_1_C_StoredExt_E46
 0000:FFFF8514       E_AF_Learning_1_D_StoredExt_E47
 0000:FFFF8550       E_IAM_4byteExt_E31
 0000:FFFF9022       E_MAF_VOLTS_DIRECT_9022
 0000:FFFF90B8       E_SSM_IAT_90B8
 0000:FFFF90F4       E_MAF_GS_DIRECT_90F4
 0000:FFFF913C       E_SSM_Atmo_Press_913C
 0000:FFFFA284       E_Boost_ErrorExt_E35
 0000:FFFFA288       E_Target_Boost_4byteExt_E36
 0000:FFFFA28C       E_Turbo_Dynamics_Proportional_4byteExt_E37
 0000:FFFFA290       E_Turbo_Dynamics_Integral_4byteExt_E34
 0000:FFFFA2AC       E_Primary_Wastegate_Duty_MaximumExt_4byteExt__E77
 0000:FFFFA4E8       E_CruiseLight_Flags_A4E8
 0000:FFFFA528       E_Manifold_Relative_Sea_Level_Pressure_4byteExt_E52
 0000:FFFFA52C       E_Manifold_Relative_Pressure_4byteExt_E113
 0000:FFFFA5B8       E_Throttle_Plate_Opening_Angle_4byteExt_E38
 0000:FFFFA5BC       E_Tipin_ThrottleExt_E54
 0000:FFFFA6AC       E_Engine_Load_4ByteExt_E32
 0000:FFFFA78C       E_AF_Sensor_1_4byteExt_E91
 0000:FFFFA7CC       E_Vehicle_Speed_A7CC
 0000:FFFFA7DC       E_Engine_Speed_A7DC
 0000:FFFFA8D1       E_Gear_CalculatedExt_E59
 0000:FFFFA9F0       E_Final_Fueling_Base_4byteExt_E123
 0000:FFFFAA20       E_Primary_Enrichment_Final_4byteExt_E115
 0000:FFFFAA9C       E_AF_Correction_1_4byteExt_E81
 0000:FFFFAAE4       E_Closed_Loop_Fueling_Target_4byteExt_E121
 0000:FFFFABE4       E_AF_Learning_1_4byteExt_E48
 0000:FFFFABED       E_AF_Learning_Airflow_Range_CurrentExt_E61
 0000:FFFFAC3C       E_Primary_Open_Loop_Map_Enrichment_4byteExt_E84
 0000:FFFFAD44       E_Tipin_Enrichment_Last_CalculatedExt_E55
 0000:FFFFAD94       E_Revlim_FuelCut_Flags_AD94
 0000:FFFFAE10       E_Fuel_Injector_1_Pulse_Width_4byteExt_E60
 0000:FFFFAE24       E_Fuel_Injector_1_Latency_4byteExt_E50
 0000:FFFFAF40       E_Ignition_Base_TimingExt_E53
 0000:FFFFB030       E_Feedback_Knock_Correction_4byteExt_E39
 0000:FFFFB074       E_Knock_Correction_Advance_IAM_onlyExt_E40
 0000:FFFFB08C       E_Fine_Learning_Knock_Correction_4byteExt_E41
 0000:FFFFB095       E_Fine_Learning_Table_OffsetExt_E58
 0000:FFFFB168       E_Target_Throttle_Plate_PositionExt_E57
 0000:FFFFB16C       E_Requested_TorqueExt_E56
 0000:FFFFB2E4       E_Idle_Speed_Map_SelectionExt_E49
 0000:FFFFB81C       E_Map_Ratio_PrimaryExt_E42
 0000:FFFFC11D       E_CLOL_FuelingExt_E33
 0000:FFFFC17E       E_CEL_Trigger_Bit_C17E
 0000:FFFFC4D0       ROMHOLESTART_0
