
 Start         Length     Name                   Class
 0000:00000000 000100000H ROM                    CODE
 0000:00000000 00000BFFFH RAM                    


  Address         Publics by Value

 0000:00000000       off_0
 0000:00000AF0       SBR_Port_Init_unk_1
 0000:00002000       dCalId
 0000:00002038       aPf_46vh4t_58Ve
 0000:0000209C       sPull2DFloat
 0000:00002110       sPull3DFloat
 0000:00004C0C       nullsub_5
 0000:00004C10       nullsub_1
 0000:00004C14       nullsub_6
 0000:00004DE2       nullsub_2
 0000:00004E2C       nullsub_7
 0000:00004E42       nullsub_3
 0000:00004E46       nullsub_8
 0000:00004E62       nullsub_9
 0000:00004F4A       nullsub_4
 0000:00004F4E       nullsub_10
 0000:00004FC4       nullsub_11
 0000:00004FC8       SBR_Port_Init_unk
 0000:00005138       SBR_Port_Inver_Init
 0000:00005CFA       aFhca44cFbcathF
 0000:00007D28       SBR_MAP_Sensor_Scaling
 0000:00007F3C       sMafCalc
 0000:00007F5E       SBR_MAF_ErrCheck
 0000:00007F98       hMafCalc
 0000:0000901A       Table_Base_Timing_Alternate_ECT
 0000:0000DFE0       hMemoryReset
 0000:0000FB50       SBR_SCK4_unk_1_Ports_B_D_F
 0000:0000FCB6       SBR_SCK4_unk_0
 0000:00010950       sMemoryReset
 0000:000110D8       hMemoryResetLimit
 0000:00012E26       HOOK_CELFLASH_JSR
 0000:00012FD8       hWgdc
 0000:0001311A       aCo0cNcBDuCDu_b
 0000:0001313B       aB_0
 0000:00013141       aCDuB
 0000:0001314D       aCDuB_0
 0000:00013470       hRevLimitDelete
 0000:00014D38       sWgdc
 0000:000157D0       Max_Wastegate_Duty_Limit_PostCompensation
 0000:00016336       SBR_Get_Setcoast_Sw
 0000:0001633A       CoastBitMask_0x02
 0000:0001634A       SBR_Get_Accelres_Sw
 0000:0001634E       ResumeBitMask_0x04
 0000:00016372       sBrakeSwGet
 0000:00016376       BrakeBitMask_0x08
 0000:0001639A       SBR_Get_Stoplight_sw
 0000:00019470       SBR_Cruise_Light
 0000:000197B4       aCJCJoOC
 0000:0001E2FC       sLoadCalcs
 0000:0001E74C       Engine_Load_Limit_Maximum
 0000:0001F96C       Engine_Load_Limit_A_Maximum
 0000:00020296       SBR_Get_Idle_Sw
 0000:0002049C       Front_Oxygen_Sensor_Rich_Limit
 0000:000211AE       SBR_Get_Neutral_Sw
 0000:00021242       SBR_Get_Clutch_Sw
 0000:00021246       ClutchBitmask_0x80
 0000:000247E4       aCuJC
 0000:0002BFE8       aNOOAAO@
 0000:0002C7AC       sRevLimStart
 0000:0002C7C0       RevLimBitMask_0x80
 0000:0002C7E2       sRevLimEnd
 0000:00035284       aCOBcF
 0000:0003AC44       Table_Cranking_Fuel_IPW_Compensation_A_RPM
 0000:0003B634       Table_Cranking_Fuel_IPW_Compensation_B_RPM
 0000:0003CDFA       Table_Min_Primary_Base_Enrichment_1_A
 0000:0003D810       Table_Min_Primary_Base_Enrichment_1_B
 0000:00043562       SsmGet_IAM_P90
 0000:00043568       SsmGet_Coolant_Temperature_P2
 0000:00043576       SsmGet_AF_Correction_1_P3
 0000:00043592       SsmGet_AF_Learning_1_P4
 0000:000435A2       SsmGet_Manifold_Absolute_Pressure_P7
 0000:000435B0       SsmGet_Engine_Speed_P8
 0000:000435DE       SsmGet_Vehicle_Speed_P9
 0000:000435EA       SsmGet_Ignition_Total_Timing_P10
 0000:000435FA       SsmGet_Intake_Air_Temperature_P11
 0000:00043608       SsmGet_Mass_Airflow_P12
 0000:00043636       SsmGet_Throttle_Opening_Angle_P13
 0000:00043644       SsmGet_Rear_O2_Sensor_P15
 0000:00043672       SsmGet_Battery_Voltage_P17
 0000:00043680       SsmGet_Mass_Airflow_Sensor_Voltage_P18
 0000:000436A4       SsmGet_Throttle_Sensor_Voltage_P19
 0000:000436C8       SsmGet_Fuel_Injector_1_Pulse_Width_P21
 0000:000436DC       SsmGet_Knock_Correction_Advance_P23
 0000:000436EC       SsmGet_Atmospheric_Pressure_P24
 0000:000436FA       SsmGet_Manifold_Relative_Pressure_P25
 0000:00043718       SsmGet_Fuel_Tank_Pressure_P27
 0000:000437EC       SsmGet_Accelerator_Pedal_Angle_P30
 0000:000437FA       SsmGet_Fuel_Temperature_P31
 0000:00043808       SsmGet_Fuel_Level_P35
 0000:00043816       SsmGet_Primary_Wastegate_Duty_Cycle_P36
 0000:00043824       SsmGet_CPC_Valve_Duty_Ratio_P38
 0000:0004383C       SsmGet_Tumble_Valve_Position_Sensor_Right_P39
 0000:00043860       SsmGet_Tumble_Valve_Position_Sensor_Left_P40
 0000:00043884       SsmGet_Idle_Speed_Control_Valve_Duty_Ratio_P41
 0000:00043896       SsmGet_Alternator_Duty_P46
 0000:000438A6       SsmGet_Fuel_Pump_Duty_P47
 0000:000438B4       SsmGet_Intake_VVT_Advance_Angle_Right_P48
 0000:000438C2       SsmGet_Intake_VVT_Advance_Angle_Left_P49
 0000:000438D0       SsmGet_Intake_OCV_Duty_Right_P50
 0000:000438DE       SsmGet_Intake_OCV_Duty_Left_P51
 0000:000438EC       SsmGet_Intake_OCV_Current_Right_P52
 0000:000438FA       SsmGet_Intake_OCV_Current_Left_P53
 0000:00043908       SsmGet_AF_Sensor_1_Current_P54
 0000:00043918       SsmGet_AF_Sensor_1_Resistance_P56
 0000:00043924       SsmGet_AF_Sensor_1_P58
 0000:0004393C       SsmGet_Switches_1_2_3
 0000:00043AA0       SsmGet_Switches_4_5_6_7_8_9
 0000:00043B78       SsmGet_Switches_10_11_12_13_14_15_16_17
 0000:00043C2A       SsmGet_Switches_18_19_20_21_22_23_24_25
 0000:00043D92       SsmGet_Switches_26_27_28_29_30_31_32_33
 0000:00043E44       SsmGet_Switches_34_35_36_37_38_39_40_41
 0000:00043F02       SsmGet_Switches_42_43_44_45_46_47_48_49
 0000:00043F3A       SsmGet_Switches_50_51_52_53
 0000:0004402A       SsmGet_Switches_54_55_56_57_58_59_60_61
 0000:0004418C       SsmGet_Roughness_Monitor_Cylinder_1_P63
 0000:00044192       SsmGet_Roughness_Monitor_Cylinder_2_P64
 0000:00044198       SsmGet_AF_Correction_3_32bit_ECU_P89
 0000:00044300       SsmGet_Roughness_Monitor_Cylinder_3_P69
 0000:00044306       SsmGet_Roughness_Monitor_Cylinder_4_P70
 0000:000445CE       SsmGet_Throttle_Motor_Duty_P71
 0000:000445DE       SsmGet_Throttle_Motor_Voltage_P72
 0000:000445EC       SsmGet_Sub_Throttle_Sensor_P73
 0000:00044610       SsmGet_Main_Throttle_Sensor_P74
 0000:00044634       SsmGet_Sub_Accelerator_Sensor_P75
 0000:00044658       SsmGet_Main_Accelerator_Sensor_P76
 0000:0004467C       SsmGet_Exhaust_Gas_Temperature_P79
 0000:0004468A       SsmGet_Memorised_Cruise_Speed_P82
 0000:000446CA       SsmGet_Exhaust_VVT_Advance_Angle_Right_P83
 0000:000446D6       SsmGet_Exhaust_VVT_Advance_Angle_Left_P84
 0000:000446E2       SsmGet_Exhaust_OCV_Duty_Right_P85
 0000:000446F4       SsmGet_Exhaust_OCV_Duty_Left_P86
 0000:00044706       SsmGet_Exhaust_OCV_Current_Right_P87
 0000:00044714       SsmGet_Exhaust_OCV_Current_Left_P88
 0000:00044722       SsmGet_Switches_62
 0000:000448AC       SsmGet_Switches_63_64_65_66_67_68
 0000:00044A34       SsmGet_Fine_Learning_Knock_Correction_P91
 0000:0004515C       Table_Timing_Compensation_Per_Cylinder_C
 0000:00046108       Table_Knock_Correction_Advance_Max
 0000:0004928C       Table_Timing_Compensation_Per_Cylinder_A
 0000:00049350       Table_Timing_Compensation_Per_Cylinder_B
 0000:000494F4       SSM_BASE
 0000:00049510       PtrSsmGet_Engine_Load_Relative_P1
 0000:00049514       PtrSsmGet_Coolant_Temperature_P2
 0000:00049518       PtrSsmGet_AF_Correction_1_P3
 0000:0004951C       PtrSsmGet_AF_Learning_1_P4
 0000:00049520       PtrSsmGet_AF_Correction_2_P5
 0000:00049524       PtrSsmGet_AF_Learning_2_P6
 0000:00049528       PtrSsmGet_Manifold_Absolute_Pressure_P7
 0000:0004952C       PtrSsmGet_Engine_Speed_P8
 0000:00049534       PtrSsmGet_Vehicle_Speed_P9
 0000:00049538       PtrSsmGet_Ignition_Total_Timing_P10
 0000:0004953C       PtrSsmGet_Intake_Air_Temperature_P11
 0000:00049540       PtrSsmGet_Mass_Airflow_P12
 0000:00049548       PtrSsmGet_Throttle_Opening_Angle_P13
 0000:0004954C       PtrSsmGet_Front_O2_Sensor_1_P14
 0000:00049554       PtrSsmGet_Rear_O2_Sensor_P15
 0000:0004955C       PtrSsmGet_Front_O2_Sensor_2_P16
 0000:00049564       PtrSsmGet_Battery_Voltage_P17
 0000:00049568       PtrSsmGet_Mass_Airflow_Sensor_Voltage_P18
 0000:0004956C       PtrSsmGet_Throttle_Sensor_Voltage_P19
 0000:00049570       PtrSsmGet_Differential_Pressure_Sensor_Voltage_P20
 0000:00049574       PtrSsmGet_Fuel_Injector_1_Pulse_Width_P21
 0000:00049578       PtrSsmGet_Fuel_Injector_2_Pulse_Width_P22
 0000:0004957C       PtrSsmGet_Knock_Correction_Advance_P23
 0000:00049580       PtrSsmGet_Atmospheric_Pressure_P24
 0000:00049584       PtrSsmGet_Manifold_Relative_Pressure_P25
 0000:00049588       PtrSsmGet_Pressure_Differential_Sensor_P26
 0000:0004958C       PtrSsmGet_Fuel_Tank_Pressure_P27
 0000:00049590       PtrSsmGet_CO_Adjustment_P28
 0000:00049594       PtrSsmGet_Learned_Ignition_Timing_P29
 0000:00049598       PtrSsmGet_Accelerator_Pedal_Angle_P30
 0000:0004959C       PtrSsmGet_Fuel_Temperature_P31
 0000:000495A0       PtrSsmGet_Front_O2_Heater_Current_1_P32
 0000:000495A4       PtrSsmGet_Rear_O2_Heater_Current_P33
 0000:000495A8       PtrSsmGet_Front_O2_Heater_Current_2_P34
 0000:000495AC       PtrSsmGet_Fuel_Level_P35
 0000:000495B4       PtrSsmGet_Primary_Wastegate_Duty_Cycle_P36
 0000:000495B8       PtrSsmGet_Secondary_Wastegate_Duty_Cycle_P37
 0000:000495BC       PtrSsmGet_CPC_Valve_Duty_Ratio_P38
 0000:000495C0       PtrSsmGet_Tumble_Valve_Position_Sensor_Right_P39
 0000:000495C4       PtrSsmGet_Tumble_Valve_Position_Sensor_Left_P40
 0000:000495C8       PtrSsmGet_Idle_Speed_Control_Valve_Duty_Ratio_P41
 0000:000495CC       PtrSsmGet_AF_Lean_Correction_P42
 0000:000495D0       PtrSsmGet_AF_Heater_Duty_P43
 0000:000495D4       PtrSsmGet_Idle_Speed_Control_Valve_Step_P44
 0000:000495D8       PtrSsmGet_Number_of_Exh_Gas_Recirc_Steps_P45
 0000:000495DC       PtrSsmGet_Alternator_Duty_P46
 0000:000495E0       PtrSsmGet_Fuel_Pump_Duty_P47
 0000:000495E4       PtrSsmGet_Intake_VVT_Advance_Angle_Right_P48
 0000:000495E8       PtrSsmGet_Intake_VVT_Advance_Angle_Left_P49
 0000:000495EC       PtrSsmGet_Intake_OCV_Duty_Right_P50
 0000:000495F0       PtrSsmGet_Intake_OCV_Duty_Left_P51
 0000:000495F4       PtrSsmGet_Intake_OCV_Current_Right_P52
 0000:000495F8       PtrSsmGet_Intake_OCV_Current_Left_P53
 0000:000495FC       PtrSsmGet_AF_Sensor_1_Current_P54
 0000:00049600       PtrSsmGet_AF_Sensor_2_Current_P55
 0000:00049604       PtrSsmGet_AF_Sensor_1_Resistance_P56
 0000:00049608       PtrSsmGet_AF_Sensor_2_Resistance_P57
 0000:0004960C       PtrSsmGet_AF_Sensor_1_P58
 0000:00049610       PtrSsmGet_AF_Sensor_2_P59
 0000:0004961C       PtrSsmGet_Gear_Position_P60
 0000:00049640       PtrSsmGet_AF_Sensor_1_Heater_Current_P61
 0000:00049644       PtrSsmGet_AF_Sensor_2_Heater_Current_P62
 0000:00049678       PtrSsmGet_Switches_1_2_3
 0000:0004967C       PtrSsmGet_Switches_4_5_6_7_8_9
 0000:00049680       PtrSsmGet_Switches_10_11_12_13_14_15_16_17
 0000:00049684       PtrSsmGet_Switches_18_19_20_21_22_23_24_25
 0000:00049688       PtrSsmGet_Switches_26_27_28_29_30_31_32_33
 0000:0004968C       PtrSsmGet_Switches_34_35_36_37_38_39_40_41
 0000:00049690       PtrSsmGet_Switches_42_43_44_45_46_47_48_49
 0000:00049694       PtrSsmGet_Switches_50_51_52_53
 0000:00049698       PtrSsmGet_Switches_54_55_56_57_58_59_60_61
 0000:0004982C       PtrSsmGet_Roughness_Monitor_Cylinder_1_P63
 0000:00049830       PtrSsmGet_Roughness_Monitor_Cylinder_2_P64
 0000:00049834       PtrSsmGet_AF_Correction_3_32bit_ECU_P89
 0000:00049838       PtrSsmGet_AF_Learning_3_P66
 0000:0004983C       PtrSsmGet_Rear_O2_Heater_Voltage_P67
 0000:00049840       PtrSsmGet_AF_Adjustment_Voltage_P68
 0000:00049854       PtrSsmGet_Roughness_Monitor_Cylinder_3_P69
 0000:00049858       PtrSsmGet_Roughness_Monitor_Cylinder_4_P70
 0000:000498D8       PtrSsmGet_IAM_P90
 0000:000498DC       PtrSsmGet_Throttle_Motor_Duty_P71
 0000:000498E0       PtrSsmGet_Throttle_Motor_Voltage_P72
 0000:000498F4       PtrSsmGet_Sub_Throttle_Sensor_P73
 0000:000498F8       PtrSsmGet_Main_Throttle_Sensor_P74
 0000:000498FC       PtrSsmGet_Sub_Accelerator_Sensor_P75
 0000:00049900       PtrSsmGet_Main_Accelerator_Sensor_P76
 0000:00049904       PtrSsmGet_Brake_Booster_Pressure_P77
 0000:00049908       PtrSsmGet_Fuel_Pressure_High_P78
 0000:0004990C       PtrSsmGet_Exhaust_Gas_Temperature_P79
 0000:00049914       PtrSsmGet_Cold_Start_Injector_Air_Pump_P80
 0000:00049918       PtrSsmGet_SCV_Step_P81
 0000:0004991C       PtrSsmGet_Memorised_Cruise_Speed_P82
 0000:00049954       PtrSsmGet_Exhaust_VVT_Advance_Angle_Right_P83
 0000:00049958       PtrSsmGet_Exhaust_VVT_Advance_Angle_Left_P84
 0000:0004995C       PtrSsmGet_Exhaust_OCV_Duty_Right_P85
 0000:00049960       PtrSsmGet_Exhaust_OCV_Duty_Left_P86
 0000:00049964       PtrSsmGet_Exhaust_OCV_Current_Right_P87
 0000:00049968       PtrSsmGet_Exhaust_OCV_Current_Left_P88
 0000:00049974       PtrSsmGet_Switches_62
 0000:00049978       PtrSsmGet_Switches_63_64_65_66_67_68
 0000:00049B58       PtrSsmGet_Fine_Learning_Knock_Correction_P91
 0000:0004A248       a34512345
 0000:0004A904       Table_Engine_Load_Compensation_NonCruise_MP
 0000:0005342A       Table_Engine_Load_Compensation_Cruise_MP
 0000:00054188       aCJCJo677C7889
 0000:0005675C       Table_Engine_Load_Limit_B_Maximum_RPM
 0000:0005B8A6       aCOVf0VLVi
 0000:0005E3FC       aCoDstbcm3P
 0000:0005E6E6       aCoTcdscm3P
 0000:0006BC18       P0335_CRANKSHAFT_POS_SENSOR_A_MALFUNCTION
 0000:0006BC19       P0336_CRANKSHAFT_POS_SENSOR_A_RANGEPERF
 0000:0006BC1C       P0604_CONTROL_MODULE_RAM_ERROR
 0000:0006BC1D       P0102_MAF_SENSOR_LOW_INPUT
 0000:0006BC1E       P0103_MAF_SENSOR_HIGH_INPUT
 0000:0006BC20       P0327_KNOCK_SENSOR_1_LOW_INPUT
 0000:0006BC21       P0328_KNOCK_SENSOR_1_HIGH_INPUT
 0000:0006BC22       P0122_TPS_A_LOW_INPUT
 0000:0006BC23       P0123_TPS_A_HIGH_INPUT
 0000:0006BC25       P0117_COOLANT_TEMP_SENSOR_LOW_INPUT
 0000:0006BC26       P0118_COOLANT_TEMP_SENSOR_HIGH_INPUT
 0000:0006BC27       P0464_FUEL_LEVEL_SENSOR_INTERMITTENT
 0000:0006BC28       P0125_INSUFFICIENT_COOLANT_TEMP_FUELING
 0000:0006BC29       P0462_FUEL_LEVEL_SENSOR_LOW_INPUT
 0000:0006BC2A       P0463_FUEL_LEVEL_SENSOR_HIGH_INPUT
 0000:0006BC2B       P0461_FUEL_LEVEL_SENSOR_RANGEPERF
 0000:0006BC2D       P1518_STARTER_SWITCH_LOW_INPUT
 0000:0006BC2E       P0512_STARTER_REQUEST_CIRCUIT
 0000:0006BC2F       P0452_EVAP_PRESSURE_SENSOR_LOW_INPUT
 0000:0006BC30       P0453_EVAP_PRESSURE_SENSOR_HIGH_INPUT
 0000:0006BC31       P0451_EVAP_PRESSURE_SENSOR_RANGEPERF
 0000:0006BC32       P0851_NEUTRAL_SWITCH_INPUT_LOW
 0000:0006BC33       P0182_FUEL_TEMP_SENSOR_A_LOW_INPUT
 0000:0006BC34       P0183_FUEL_TEMP_SENSOR_A_HIGH_INPUT
 0000:0006BC35       P0181_FUEL_TEMP_SENSOR_A_RANGEPERF
 0000:0006BC36       P0852_NEUTRAL_SWITCH_INPUT_HIGH
 0000:0006BC37       P1446_FUEL_TANK_SENSOR_CONTROL_CIRCUIT_LOW
 0000:0006BC38       P1447_FUEL_TANK_SENSOR_CONTROL_CIRCUIT_HIGH
 0000:0006BC3B       P0506_IDLE_CONTROL_RPM_LOWER_THAN_EXPECTED
 0000:0006BC3C       P0507_IDLE_CONTROL_RPM_HIGH_THAN_EXPECTED
 0000:0006BC3D       P1448_FUEL_TANK_SENSOR_CONTROL_RANGEPERF
 0000:0006BC3E       P0691_RADIATOR_FAN_CIRCUIT_LOW
 0000:0006BC3F       P0692_RADIATOR_FAN_CIRCUIT_HIGH
 0000:0006BC40       P0483_RADIATOR_FAN_RATIONALITY_CHECK
 0000:0006BC44       P0011_CAMSHAFT_POS__TIMING_OVERADVANCED_1
 0000:0006BC45       P0021_CAMSHAFT_POS__TIMING_OVERADVANCED_2
 0000:0006BC46       P1400_FUEL_TANK_PRESSURE_SOL_LOW
 0000:0006BC47       P1420_FUEL_TANK_PRESSURE_SOL_HIGH_INPUT
 0000:0006BC48       P0458_EVAP_PURGE_VALVE_CIRCUIT_LOW
 0000:0006BC49       P0459_EVAP_PURGE_VALVE_CIRCUIT_HIGH
 0000:0006BC4C       P1443_VENT_CONTROL_SOLENOID_FUNCTION_PROBLEM
 0000:0006BC4D       P0447_EVAP_VENT_CONTROL_CIRCUIT_OPEN
 0000:0006BC4E       P0448_EVAP_VENT_CONTROL_CIRCUIT_SHORTED
 0000:0006BC4F       P0133_FRONT_O2_SENSOR_SLOW_RESPONSE
 0000:0006BC50       P0139_REAR_O2_SENSOR_SLOW_RESPONSE
 0000:0006BC51       P1152_FRONT_O2_SENSOR_RANGEPERF_LOW_B1_S1
 0000:0006BC52       P1153_FRONT_O2_SENSOR_RANGEPERF_HIGH_B1_S1
 0000:0006BC53       P0420_CAT_EFFICIENCY_BELOW_THRESHOLD
 0000:0006BC54       P0442_EVAP_LEAK_DETECTED_SMALL
 0000:0006BC55       P0456_EVAP_LEAK_DETECTED_VERY_SMALL
 0000:0006BC56       P0171_SYSTEM_TOO_LEAN
 0000:0006BC57       P0172_SYSTEM_TOO_RICH
 0000:0006BC58       P0301_MISFIRE_CYLINDER_1
 0000:0006BC59       P0302_MISFIRE_CYLINDER_2
 0000:0006BC5A       P0303_MISFIRE_CYLINDER_3
 0000:0006BC5B       P0304_MISFIRE_CYLINDER_4
 0000:0006BC5D       P0457_EVAP_LEAK_DETECTED_FUEL_CAP
 0000:0006BC5E       P0000_PASS_CODE_NO_DTC_DETECTED
 0000:0006BC5F       P0000_PASS_CODE_NO_DTC_DETECTED_
 0000:0006BC60       P0137_REAR_O2_SENSOR_LOW_VOLTAGE
 0000:0006BC61       P0131_FRONT_O2_SENSOR_LOW_INPUT
 0000:0006BC62       P0132_FRONT_O2_SENSOR_HIGH_INPUT
 0000:0006BC63       P0138_REAR_O2_SENSOR_HIGH_VOLTAGE
 0000:0006BC64       P0112_IAT_SENSOR_LOW_INPUT
 0000:0006BC65       P0113_IAT_SENSOR_HIGH_INPUT
 0000:0006BC66       P0111_IAT_SENSOR_RANGEPERF
 0000:0006BC67       P0038_REAR_O2_SENSOR_HIGH_INPUT
 0000:0006BC68       P0032_FRONT_O2_SENSOR_HIGH_INPUT
 0000:0006BC69       P0037_REAR_O2_SENSOR_LOW_INPUT
 0000:0006BC6A       P0031_FRONT_O2_SENSOR_LOW_INPUT
 0000:0006BC6B       P0107_MAP_SENSOR_LOW_INPUT
 0000:0006BC6C       P0108_MAP_SENSOR_HIGH_INPUT
 0000:0006BC6D       P0128_THERMOSTAT_MALFUNCTION
 0000:0006BC6E       P1491_PCV_BLOWBY_FUNCTION_PROBLEM
 0000:0006BC6F       P1560_BACKUP_VOLTAGE_MALFUNCTION
 0000:0006BC72       P0245_WASTEGATE_SOLENOID_A_LOW
 0000:0006BC73       P0246_WASTEGATE_SOLENOID_A_HIGH
 0000:0006BC74       P0244_WASTEGATE_SOLENOID_A_RANGEPERF
 0000:0006BC7D       P0502_VEHICLE_SPEED_SENSOR_LOW_INPUT
 0000:0006BC7E       P0230_FUEL_PUMP_PRIMARY_CIRCUIT
 0000:0006BC7F       P0068_MAP_SENSOR_RANGEPERF
 0000:0006BC80       P0519_IDLE_CONTROL_MALFUNCTION_FAILSAFE
 0000:0006BC81       P0101_MAF_SENSOR_RANGEPERF
 0000:0006BC82       P0134_FRONT_O2_SENSOR_NO_ACTIVITY
 0000:0006BC83       P0030_FRONT_O2_SENSOR_RANGEPERF
 0000:0006BC84       P0503_VEHICLE_SPEED_SENSOR_INTERMITTENT
 0000:0006BC85       P2109_TPS_A_MINIMUM_STOP_PERF
 0000:0006BC86       P0222_TPS_B_LOW_INPUT
 0000:0006BC87       P0223_TPS_B_HIGH_INPUT
 0000:0006BC88       P1160_ABNORMAL_RETURN_SPRING
 0000:0006BC89       P2102_THROTTLE_ACTUATOR_CIRCUIT_LOW
 0000:0006BC8A       P2103_THROTTLE_ACTUATOR_CIRCUIT_HIGH
 0000:0006BC8B       P2101_THROTTLE_ACTUATOR_CIRCUIT_RANGEPERF
 0000:0006BC8C       P2096_POST_CATALYST_TOO_LEAN_B1
 0000:0006BC8D       P0638_THROTTLE_ACTUATOR_RANGEPERF
 0000:0006BC8E       P0607_CONTROL_MODULE_PERFORMANCE
 0000:0006BC8F       P2138_TPS_DE_VOLTAGE
 0000:0006BC90       P2127_TPS_E_CIRCUIT_LOW_INPUT
 0000:0006BC91       P2128_TPS_E_CIRCUIT_HIGH_INPUT
 0000:0006BC92       P2122_TPS_D_CIRCUIT_LOW_INPUT
 0000:0006BC93       P2123_TPS_D_CIRCUIT_HIGH_INPUT
 0000:0006BC94       P2135_TPS_AB_VOLTAGE
 0000:0006BC95       P2097_POST_CATALYST_TOO_RICH_B1
 0000:0006BC99       P0345_CAMSHAFT_POS_SENSOR_A_BANK_2
 0000:0006BC9A       P0340_CAMSHAFT_POS_SENSOR_A_MALFUNCTION_
 0000:0006BC9B       P0605_CONTROL_MODULE_ROM_ERROR
 0000:0006BCA0       P2093_OCV_SOLENOID_A2_CIRCUIT_SHORT
 0000:0006BCA1       P2092_OCV_SOLENOID_A2_CIRCUIT_OPEN
 0000:0006BCA2       P2089_OCV_SOLENOID_A1_CIRCUIT_SHORT
 0000:0006BCA3       P2088_OCV_SOLENOID_A1_CIRCUIT_OPEN
 0000:0006BCA7       P2004_TGV__INTAKE_MANIFOLD_RUNNER_1_STUCK_OPEN
 0000:0006BCA8       P2006_TGV__INTAKE_MANIFOLD_RUNNER_1_STUCK_CLOSED
 0000:0006BCA9       P2005_TGV__INTAKE_MANIFOLD_RUNNER_2_STUCK_OPEN
 0000:0006BCAA       P2007_TGV__INTAKE_MANIFOLD_RUNNER_2_STUCK_CLOSED
 0000:0006BCAB       P2227_BARO_PRESSURE_CIRCUIT_RANGEPERF
 0000:0006BCAC       P0126_INSUFFICIENT_COOLANT_TEMP_OPERATION
 0000:0006BCAD       P2229_BARO_PRESSURE_CIRCUIT_HIGH_INPUT
 0000:0006BCAE       P2228_BARO_PRESSURE_CIRCUIT_LOW_INPUT
 0000:0006BCAF       P2016_TGV__INTAKE_MANIFOLD_RUNNER_1_POS_SENSOR_LOW
 0000:0006BCB0       P2017_TGV__INTAKE_MANIFOLD_RUNNER_1_POS_SENSOR_HIGH
 0000:0006BCB1       P2021_TGV__INTAKE_MANIFOLD_RUNNER_2_POS_SENSOR_LOW
 0000:0006BCB2       P2022_TGV__INTAKE_MANIFOLD_RUNNER_2_POS_SENSOR_HIGH
 0000:0006BCB3       P2009_TGV__INTAKE_MANIFOLD_RUNNER_1_CIRCUIT_LOW
 0000:0006BCB4       P2012_TGV__INTAKE_MANIFOLD_RUNNER_2_CIRCUIT_LOW
 0000:0006BCB5       P2008_TGV__INTAKE_MANIFOLD_RUNNER_1_CIRCUIT_OPEN
 0000:0006BCB6       P2011_TGV__INTAKE_MANIFOLD_RUNNER_2_CIRCUIT_OPEN
 0000:0006F002       Force_Pass_Readiness_Monitors
 0000:00071740       aBBF
 0000:00071BD6       nullsub_12
 0000:00071BDA       nullsub_13
 0000:00071F34       sCelTrigger
 0000:0007204C       hCelSignal
 0000:00072CB6       SBR_CEL_EVAL
 0000:000770C6       aCOEElF
 0000:00079C14       Table_InitialMax_Wastegate_Duty_Compensation_ECT
 0000:00079C28       Table_TD_Integral_Positive_Compensation_IAT
 0000:00079C64       Table_Target_Boost_Compensation_Atm_Pressure_Multiplier_Offset
 0000:00079C78       Table_Turbo_Dynamics_Proportional
 0000:00079C8C       Table_Turbo_Dynamics_Integral_Negative
 0000:00079CA0       Table_Turbo_Dynamics_Integral_Positive
 0000:00079CC8       Table_Target_Boost_Compensation_Atm_Pressure_Multiplier
 0000:00079CF8       Table_InitialMax_Wastegate_Duty_Compensation_Atm_Pressure
 0000:00079D4C       Table_Initial_Wastegate_Duty_KCA_Additive_Low
 0000:00079D68       Table_Initial_Wastegate_Duty_KCA_Additive_High
 0000:00079D84       Table_Target_boost
 0000:00079DA0       Table_Max_Wastegate_Duty
 0000:00079DF4       Table_Target_Boost_KCA_Additive_Low
 0000:00079E10       Table_Target_Boost_KCA_Additive_High
 0000:0007A0A0       Table_Front_Oxygen_Sensor_Compensation_Atm_Pressure
 0000:0007A198       Table_Engine_Load_Compensation_MP
 0000:0007A1B4       Table_MAF_Compensation_IAT
 0000:0007A92C       Table_Cranking_Fuel_IPW_Compensation_Accelerator
 0000:0007AA5C       Table_Minimum_Primary_Open_Loop_Enrichment_Throttle
 0000:0007AA70       Table_Primary_Open_Loop_Fueling_Compensation_Timing_Compensation_
 0000:0007AB24       Table_Tipin_Enrichment_Compensation_Boost_Error
 0000:0007AEC4       Table_Boost_Limit_Fuel_Cut
 0000:0007AF28       Table_Cranking_Fuel_IPW_Compensation_RPM
 0000:0007AFB4       Table_Min_Primary_Base_Enrichment_1_NonPrimary_OL
 0000:0007AFD0       Table_Primary_Open_Loop_Fueling_KCA_Additive_Low
 0000:0007AFEC       Table_Primary_Open_Loop_Fueling_KCA_Additive_High
 0000:0007B008       Table_Primary_Open_Loop_Fueling_Failsafe_KCA_Additive_Low
 0000:0007B024       Table_Primary_Open_Loop_Fueling_Failsafe_KCA_Additive_High
 0000:0007B1A4       Table_CL_Fueling_Target_Compensation_Load
 0000:0007B1F8       Table_Rough_Correction_Learning_Delay_Increasing
 0000:0007B2A4       Table_Base_Timing_Idle_Above_Speed_Threshold
 0000:0007B5F4       Table_Knock_Correction_Advance_Max_Primary_Knock_Conditions_High_IAM
 0000:0007B610       Table_Knock_Correction_Advance_Max_Primary_Knock_Conditions_Low_IAM
 0000:0007B62C       Table_Knock_Correction_Advance_Max_Additive_Knock_Conditions
 0000:0007B648       Table_Base_Timing_A
 0000:0007B664       Table_Base_Timing_B
 0000:0007B728       Table_Timing_Compensation_MRP
 0000:0007BD44       Table_Target_Throttle_Plate_Position_B_Requested_Torque
 0000:0007BD60       Table_Requested_Torque_Accelerator_Pedal
 0000:0007BE18       Table_Injector_Latency
 0000:0007BE6C       Table_Front_Oxygen_Sensor_Scaling
 0000:0007BF30       Table_Intake_Temp_Sensor_Scaling
 0000:0007C1C0       Table_Intake_Cam_Advance_Angle_A_AVCS
 0000:0007C1DC       Table_Intake_Cam_Advance_Angle_B_AVCS
 0000:0007C220       Coolant_Temp_Sensor_Scaling_Y_Axis
 0000:0007C290       Coolant_Temp_Sensor_Scaling
 0000:0007C300       Intake_Temp_Sensor_Scaling_Y_Axis
 0000:0007C378       Intake_Temp_Sensor_Scaling
 0000:000C0000       aA2zje11j
 0000:000C0070       Atmospheric_Pressure_Sensor_Scaling
 0000:000C00C4       Manifold_Pressure_Sensor_Scaling
 0000:000C0539       Boost_Control_Disable_Delay_Fine_Correction
 0000:000C054C       TD_Activation_Thresholds_Target_Boost
 0000:000C0558       TD_Integral_Negative_Activation_Boost_Error
 0000:000C0560       TD_Integral_Positive_Activation_Boost_Error
 0000:000C0564       TD_Integral_Positive_Activation_Wastegate_Duty
 0000:000C0578       TD_Activation_Thresholds_RPM
 0000:000C0580       TD_Integral_Cumulative_Range_WGDC_Correction
 0000:000C0590       Boost_Control_Disable_Fine_Correction
 0000:000C0594       Boost_Control_Disable_IAM
 0000:000C05A8       TD_Activation_Thresholds_Target_Boost_
 0000:000C05AC       Target_Boost_Compensation_1st_Gear_Speed_Disable
 0000:000C05B4       Target_Boost_Compensation_1st_Gear
 0000:000C05B8       InitialMax_Wastegate_Duty_Compensation_ECT_Y_Axis
 0000:000C063C       Target_Boost_Compensation_ECT_Y_Axis
 0000:000C0648       InitialMax_Wastegate_Duty_Compensation_IAT_Y_Axis
 0000:000C0688       InitialMax_Wastegate_Duty_Compensation_IAT
 0000:000C06A8       InitialMax_Wastegate_Duty_Compensation_ECT
 0000:000C06B8       TD_Integral_Positive_Compensation_IAT
 0000:000C06C8       Target_Boost_Compensation_ECT
 0000:000C06EC       Target_Boost_Compensation_Atm_Pressure_Multiplier_Offset_Y_Axis
 0000:000C06FC       Target_Boost_Compensation_Atm_Pressure_Multiplier_Offset
 0000:000C0700       Turbo_Dynamics_Proportional_Y_Axis
 0000:000C0724       Turbo_Dynamics_Proportional
 0000:000C0738       Turbo_Dynamics_Integral_Negative_Y_Axis
 0000:000C075C       Turbo_Dynamics_Integral_Negative
 0000:000C0770       Turbo_Dynamics_Integral_Positive_Y_Axis
 0000:000C0794       Turbo_Dynamics_Integral_Positive
 0000:000C07C0       Target_Boost_Compensation_Atm_Pressure_Multiplier_Y_Axis
 0000:000C07D0       Target_Boost_Compensation_Atm_Pressure_Multiplier
 0000:000C0818       InitialMax_Wastegate_Duty_Compensation_Atm_Pressure_X_Axis
 0000:000C0830       InitialMax_Wastegate_Duty_Compensation_Atm_Pressure_Y_Axis
 0000:000C0840       InitialMax_Wastegate_Duty_Compensation_Atm_Pressure
 0000:000C0A78       Initial_Wastegate_Duty_KCA_Additive_Low_X_Axis
 0000:000C0A98       Initial_Wastegate_Duty_KCA_Additive_Low_Y_Axis
 0000:000C0AC8       Initial_Wastegate_Duty_KCA_Additive_Low
 0000:000C0B88       Initial_Wastegate_Duty_KCA_Additive_High_X_Axis
 0000:000C0BA8       Initial_Wastegate_Duty_KCA_Additive_High_Y_Axis
 0000:000C0BD8       Initial_Wastegate_Duty_KCA_Additive_High
 0000:000C0CD8       Target_Boost__Y_Axis
 0000:000C0D58       Max_Wastegate_Duty_X_Axis
 0000:000C0D78       Max_Wastegate_Duty_Y_Axis
 0000:000C0D98       Max_Wastegate_Duty
 0000:000C1038       Target_Boost_KCA_Additive_Low_X_Axis
 0000:000C1058       Target_Boost_KCA_Additive_Low_Y_Axis
 0000:000C1088       Target_Boost_KCA_Additive_Low
 0000:000C1148       Target_Boost_KCA_Additive_High_X_Axis
 0000:000C1168       Target_Boost_KCA_Additive_High_Y_Axis
 0000:000C1198       Target_Boost_KCA_Additive_High
 0000:000C1B44       aYBt33bI?bgo?bg
 0000:000C1B64       a@
 0000:000C1B6C       a@_0
 0000:000C1B70       aBIbU?a
 0000:000C1B80       a?
 0000:000C1BF0       MAF_Limit_Maximum
 0000:000C1BF4       dLoadSmoothingA
 0000:000C1BF8       dLoadSmoothingB
 0000:000C1BFC       dLoadSmoothingFinal
 0000:000C1E00       Gear_Determination_Thresholds
 0000:000C1E14       aAGoajAissaPgbU
 0000:000C1E9C       Speed_Limiting_Throttle
 0000:000C1FD8       Front_Oxygen_Sensor_Compensation_Atm_Pressure_Y_Axis
 0000:000C1FE8       Front_Oxygen_Sensor_Compensation_Atm_Pressure
 0000:000C234C       aLLLLLLDp
 0000:000C2394       Engine_Load_Compensation_MP_X_Axis
 0000:000C23C0       Engine_Load_Compensation_MP_Y_Axis
 0000:000C23F0       Engine_Load_Compensation_MP
 0000:000C2474       MAF_Compensation_IAT_X_Axis
 0000:000C2488       MAF_Compensation_IAT_Y_Axis
 0000:000C24A8       MAF_Compensation_IAT
 0000:000C29F0       Engine_Load_Limit_B_Maximum_RPM
 0000:000C2A11       Manifold_Pressure_Sensor_CEL_Delays
 0000:000C2DEC       Engine_Load_Compensation_Cruise_MP_X_Axis
 0000:000C2E18       Engine_Load_Compensation_Cruise_MP_Y_Axis
 0000:000C2E50       Engine_Load_Compensation_Cruise_MP
 0000:000C2EEC       Engine_Load_Compensation_NonCruise_MP_X_Axis
 0000:000C2F18       Engine_Load_Compensation_NonCruise_MP_Y_Axis
 0000:000C2F2C       aAa
 0000:000C2F30       a@_1
 0000:000C2F38       aBh_0
 0000:000C2F50       Engine_Load_Compensation_NonCruise_MP
 0000:000C3560       a@ras@ras@ras@r
 0000:000C3C0C       aUPTJEAAiMshAId
 0000:000C3DA4       aLL33P?
 0000:000C4058       a@33@33@33@33?3
 0000:000C43C0       aCC3lCklCua
 0000:000C5AB2       Tipin_Enrichment_Disable_Applied_Counter_Threshold
 0000:000C5AB3       Tipin_Enrichment_Applied_Counter_Reset
 0000:000C5AB4       Tipin_Throttle_Cumulative_Reset
 0000:000C5AEC       CL_to_OL_Delay
 0000:000C5AF2       Hotstart_Enrich_Decay_Delay
 0000:000C5AF4       Hotstart_Enrich_Min_Lim_Activation_Max_Runtime
 0000:000C5AF6       Hotstart_Enrich_Max_Non_Idle_Activation_Max_Runtime
 0000:000C5BBC       Injector_Flow_Scaling
 0000:000C5BC0       Min_Primary_Base_Enrich_3_Decay_Multiplier
 0000:000C5BD8       aLLUtUP?a
 0000:000C5BEC       aLG8qi@
 0000:000C5C50       a?yssL?fff?333?
 0000:000C5CD0       a5NuM4a
 0000:000C5CEC       aPRJlZqaITKdL6z
 0000:000C5D64       a?u33?j_L
 0000:000C5D78       aUP?a
 0000:000C5DD8       AF_Learning_1_Limits
 0000:000C5DE4       AF_Learning_1_Airflow_Ranges
 0000:000C5E2C       Minimum_Active_Primary_Open_Loop_Enrichment
 0000:000C5E30       CL_to_OL_Transition_with_Delay_Throttle_Hysteresis
 0000:000C5E34       CL_to_OL_Transition_with_Delay_BPW_Hysteresis
 0000:000C5E38       CL_Delay_Minimum_ECT
 0000:000C5E64       CL_Delay_Maximum_Engine_Speed_Per_Gear
 0000:000C5E8C       CL_Delay_Maximum_Engine_Speed_Neutral
 0000:000C5EA4       CL_Delay_Maximum_Throttle
 0000:000C5EA8       CL_Delay_Maximum_Vehicle_Speed
 0000:000C5EC8       Primary_Open_Loop_Fuel_Map_Switch_IAM
 0000:000C5ECC       Hotstart_Enrich_Initial_High_Min_ECT
 0000:000C5ED0       Hotstart_Enrich_Initial_Low_Min_ECT
 0000:000C5ED4       Hotstart_Enrich_Initial_High_Min_IAT
 0000:000C5ED8       Hotstart_Enrich_Initial_Low_Min_IAT
 0000:000C5EDC       Hotstart_Enrich_Initial_High
 0000:000C5EE0       Hotstart_Enrich_Initial_Low
 0000:000C5EE4       Hotstart_Enrich_Minimum_Limit
 0000:000C5EE8       Hotstart_Enrich_Max_Non_Idle
 0000:000C5EEC       Hotstart_Enrich_Minimum_Decay_Step
 0000:000C5FD8       Minimum_Tipin_Enrichment_Activation_Throttle
 0000:000C5FDC       Minimum_Tipin_Enrichment_Activation
 0000:000C5FE0       Tipin_Enrichment_Disable_Throttle_Cumulative_Threshold
 0000:000C6024       Rev_Limit_Fuel_Cut
 0000:000C602C       Rev_Limit_Fuel_Resume_Boost
 0000:000C6074       Speed_Limiting_Enable_Fuel_Cut
 0000:000C607C       Speed_Limiting_Disable_Fuel_Cut
 0000:000C60E0       Min_Primary_Base_Enrich_3_Decay_Delay_B_Y_Axis
 0000:000C6160       Cranking_Fuel_IPW_Compensation_Accelerator_Y_Axis
 0000:000C6178       Cranking_Fuel_IPW_Compensation_Accelerator
 0000:000C618E       Min_Primary_Base_Enrich_3_Decay_Delay_A
 0000:000C619E       Min_Primary_Base_Enrich_3_Decay_Delay_B
 0000:000C61CE       Min_Primary_Base_Enrichment_1
 0000:000C634C       CL_to_OL_Transition_with_Delay_Throttle_Y_Axis
 0000:000C638C       CL_to_OL_Transition_with_Delay_Throttle
 0000:000C639C       Minimum_Primary_Open_Loop_Enrichment_Throttle_Y_Axis
 0000:000C63B4       Minimum_Primary_Open_Loop_Enrichment_Throttle
 0000:000C63BC       Primary_Open_Loop_Fueling_Compensation_Timing_Compensation__Y_Axis
 0000:000C63D4       Primary_Open_Loop_Fueling_Compensation_Timing_Compensation_
 0000:000C6474       Tipin_Enrichment_Compensation_Boost_Error_Y_Axis
 0000:000C6498       Tipin_Enrichment_Compensation_Boost_Error
 0000:000C64F2       Cranking_Fuel_Injector_Pulse_Width_A_ECT
 0000:000C6512       Cranking_Fuel_Injector_Pulse_Width_B_ECT
 0000:000C6532       Cranking_Fuel_Injector_Pulse_Width_C_ECT
 0000:000C6552       Cranking_Fuel_Injector_Pulse_Width_D_ECT
 0000:000C6572       Min_Primary_Base_Enrich_3_Initial_Start_1A
 0000:000C6592       Min_Primary_Base_Enrich_3_Initial_Start_1B
 0000:000C65B2       Min_Primary_Base_Enrich_3_Initial_Start_2A
 0000:000C65D2       Min_Primary_Base_Enrich_3_Initial_Start_2B
 0000:000C65F2       Min_Primary_Base_Enrich_2_Initial_Start_1A
 0000:000C6612       Min_Primary_Base_Enrich_2_Initial_Start_2A
 0000:000C6632       Min_Primary_Base_Enrich_2_Initial_Start_1B
 0000:000C6652       Min_Primary_Base_Enrich_2_Initial_Start_2B
 0000:000C6672       Min_Primary_Base_Enrich_2_Decay_Step_1
 0000:000C6692       Min_Primary_Base_Enrich_2_Decay_Step_2
 0000:000C6A68       CL_to_OL_Transition_with_Delay_Base_Pulse_Width_Y_Axis
 0000:000C6AA8       CL_to_OL_Transition_with_Delay_Base_Pulse_Width
 0000:000C6AC8       Primary_Open_Loop_Fueling_Compensation_ECT
 0000:000C6AD0       a1KDzgoqYA
 0000:000C6AE0       aA
 0000:000C6AE2       aA_0
 0000:000C6AE4       aA_1
 0000:000C6AE6       aA_2
 0000:000C6B88       Throttle_Tipin_Enrichment_Y_Axis
 0000:000C6BD0       Throttle_Tipin_Enrichment
 0000:000C6BF4       Tipin_Enrichment_Compensation_ECT
 0000:000C6C34       Boost_Limit_Fuel_Cut_Y_Axis
 0000:000C6C4C       Boost_Limit_Fuel_Cut
 0000:000C6D0C       Cranking_Fuel_IPW_Compensation_RPM_X_Axis
 0000:000C6D20       Cranking_Fuel_IPW_Compensation_RPM_Y_Axis
 0000:000C6D3C       Cranking_Fuel_IPW_Compensation_RPM
 0000:000C6E08       Min_Primary_Base_Enrichment_1_NonPrimary_OL_X_Axis
 0000:000C6E28       Min_Primary_Base_Enrichment_1_NonPrimary_OL_Y_Axis
 0000:000C6E34       Min_Primary_Base_Enrichment_1_NonPrimary_OL
 0000:000C6E4C       Primary_Open_Loop_Fueling_KCA_Additive_Low_X_Axis
 0000:000C6E88       Primary_Open_Loop_Fueling_KCA_Additive_Low_Y_Axis
 0000:000C6ED0       Primary_Open_Loop_Fueling_KCA_Additive_Low
 0000:000C6FE0       Primary_Open_Loop_Fueling_KCA_Additive_High_X_Axis
 0000:000C701C       Primary_Open_Loop_Fueling_KCA_Additive_High_Y_Axis
 0000:000C7064       Primary_Open_Loop_Fueling_KCA_Additive_High
 0000:000C7174       Primary_Open_Loop_Fueling_Failsafe_KCA_Additive_Low_X_Axis
 0000:000C71B0       Primary_Open_Loop_Fueling_Failsafe_KCA_Additive_Low_Y_Axis
 0000:000C71F8       Primary_Open_Loop_Fueling_Failsafe_KCA_Additive_Low
 0000:000C7308       Primary_Open_Loop_Fueling_Failsafe_KCA_Additive_High_X_Axis
 0000:000C7344       Primary_Open_Loop_Fueling_Failsafe_KCA_Additive_High_Y_Axis
 0000:000C738C       Primary_Open_Loop_Fueling_Failsafe_KCA_Additive_High
 0000:000C749C       Per_Injector_Primary_Fuel_Offset_Compensation_A_X_Axis
 0000:000C74E4       Per_Injector_Primary_Fuel_Offset_Compensation_A_Y_Axis
 0000:000C7524       Per_Injector_Primary_Fuel_Offset_Compensation_A
 0000:000C7644       Per_Injector_Primary_Fuel_Offset_Compensation_B_X_Axis
 0000:000C768C       Per_Injector_Primary_Fuel_Offset_Compensation_B_Y_Axis
 0000:000C76CC       Per_Injector_Primary_Fuel_Offset_Compensation_B
 0000:000C77EC       Per_Injector_Primary_Fuel_Offset_Compensation_C_X_Axis
 0000:000C7834       Per_Injector_Primary_Fuel_Offset_Compensation_C_Y_Axis
 0000:000C7874       Per_Injector_Primary_Fuel_Offset_Compensation_C
 0000:000C7994       Per_Injector_Primary_Fuel_Offset_Compensation_D_X_Axis
 0000:000C79DC       Per_Injector_Primary_Fuel_Offset_Compensation_D_Y_Axis
 0000:000C7A1C       Per_Injector_Primary_Fuel_Offset_Compensation_D
 0000:000C7E70       CL_Fueling_Target_Compensation_A_ECT_Y_Axis
 0000:000C7E7C       CL_Fueling_Target_Compensation_A_ECT
 0000:000C7F48       CL_Fueling_Target_Compensation_B_ECT_Y_Axis
 0000:000C7F54       CL_Fueling_Target_Compensation_B_ECT
 0000:000C80E4       CL_Fueling_Target_Compensation_Load_X_Axis
 0000:000C8118       CL_Fueling_Target_Compensation_Load_Y_Axis
 0000:000C8140       CL_Fueling_Target_Compensation_Load
 0000:000C848E       Knock_Correction_Advance_Alternate_Mode_
 0000:000C84A8       Feedback_Correction_Negative_Advance_Delay
 0000:000C84B8       Fine_Correction_Advance_Delay
 0000:000C84D0       Timing_Comp_Maximum_RPM_Per_Cylinder
 0000:000C84D4       Timing_Comp_Minimum_Load_Per_Cylinder
 0000:000C84D8       Timing_Comp_Minimum_Coolant_Temp_Per_Cylinder
 0000:000C84EC       Feedback_Correction_Retard_Limit
 0000:000C84F0       Feedback_Correction_Retard_Value
 0000:000C84F4       Feedback_Correction_Negative_Advance_Value
 0000:000C850C       Feedback_Correction_Range_RPM
 0000:000C851C       Feedback_Correction_Minimum_Load
 0000:000C8524       Extended_Feedback_Correction_High_RPM_Compensation
 0000:000C85A0       Knock_Correction_Advance_Additive_Range_RPM
 0000:000C85C8       Advance_Multiplier_Initial
 0000:000C85CC       Rough_Correction_Range_RPM
 0000:000C85DC       Rough_Correction_Range_Load
 0000:000C85EC       Rough_Correction_Minimum_KC_Advance_Map_Value
 0000:000C85F0       Advance_Multiplier_Step_Value
 0000:000C8620       Fine_Correction_Advance_Limit
 0000:000C8624       Fine_Correction_Retard_Limit
 0000:000C8628       Fine_Correction_Advance_Value
 0000:000C862C       Fine_Correction_Range_RPM
 0000:000C863C       Fine_Correction_Range_Load
 0000:000C864C       Fine_Correction_Columns_Load
 0000:000C865C       Fine_Correction_Rows_RPM
 0000:000C8674       Fine_Correction_Retard_Value
 0000:000C86B4       a?333?333?333?3
 0000:000C8718       Base_Timing_Idle_Vehicle_Speed_Threshold
 0000:000C8740       CL_Delay_Maximum_Engine_Load
 0000:000C8744       Base_Timing_Idle_Below_Speed_Threshold
 0000:000C8748       Timing_Comp_Min_Load_IAT
 0000:000C8858       Timing_Compensation_ECT_Y_Axis
 0000:000C88D8       Rough_Correction_Learning_Delay_Increasing_Y_Axis
 0000:000C8900       Rough_Correction_Learning_Delay_Increasing
 0000:000C89BC       Base_Timing_Idle_Above_Speed_Threshold_Y_Axis
 0000:000C89E0       Base_Timing_Idle_Above_Speed_Threshold
 0000:000C89F9       Timing_Compensation_ECT
 0000:000C8A0C       Timing_Compensation_IAT_Y_Axis
 0000:000C8A4C       Timing_Compensation_IAT
 0000:000C8AD8       Min_Primary_Base_Enrichment_1_NonPrimary_OL__Y_Axis
 0000:000C8B18       Tipin_Enrichment_Compensation_D_ECT_Y_Axis
 0000:000C8B34       a999ggggg
 0000:000C8BD4       a99999999
 0000:000C8C24       aUuggg999
 0000:000C8C74       aUuggg999_0
 0000:000C8CC4       aAaaaaaaa3@Aaaa
 0000:000C8D6C       Timing_Compensation_Per_Cylinder_A__Y_Axis
 0000:000C8DAC       Timing_Compensation_Per_Cylinder_A_
 0000:000C8DEC       Timing_Compensation_Per_Cylinder_B__Y_Axis
 0000:000C8E2C       Timing_Compensation_Per_Cylinder_B_
 0000:000C8E6C       Timing_Compensation_Per_Cylinder_C__Y_Axis
 0000:000C8EAC       Timing_Compensation_Per_Cylinder_C_
 0000:000C8EEC       Timing_Compensation_Per_Cylinder_D__Y_Axis
 0000:000C8F2C       Timing_Compensation_Per_Cylinder_D_
 0000:000C8F7C       a@yss@333?Ss?Ss
 0000:000C921C       Knock_Correction_Advance_Max_Primary_Knock_Conditions_High_IAM_X_Axis
 0000:000C925C       Knock_Correction_Advance_Max_Primary_Knock_Conditions_High_IAM_Y_Axis
 0000:000C92A4       Knock_Correction_Advance_Max_Primary_Knock_Conditions_High_IAM
 0000:000C93C4       Knock_Correction_Advance_Max_Primary_Knock_Conditions_Low_IAM_X_Axis
 0000:000C9404       Knock_Correction_Advance_Max_Primary_Knock_Conditions_Low_IAM_Y_Axis
 0000:000C944C       Knock_Correction_Advance_Max_Primary_Knock_Conditions_Low_IAM
 0000:000C956C       Knock_Correction_Advance_Max_Additive_Knock_Conditions_X_Axis
 0000:000C95AC       Knock_Correction_Advance_Max_Additive_Knock_Conditions_Y_Axis
 0000:000C95F4       Knock_Correction_Advance_Max_Additive_Knock_Conditions
 0000:000C9714       Base_Timing_A_X_Axis
 0000:000C9750       Base_Timing_A_Y_Axis
 0000:000C9798       Base_Timing_A
 0000:000C98A8       Base_Timing_B_X_Axis
 0000:000C98E4       Base_Timing_B_Y_Axis
 0000:000C992C       Base_Timing_B
 0000:000C9BDC       Timing_Compensation_MRP_X_Axis
 0000:000C9BF0       Timing_Compensation_MRP_Y_Axis
 0000:000C9BFC       Timing_Compensation_MRP
 0000:000C9E3C       Cranking_Fuel_IPW_Compensation_A_RPM_X_Axis
 0000:000C9E50       Cranking_Fuel_IPW_Compensation_A_RPM_Y_Axis
 0000:000C9E6C       Cranking_Fuel_IPW_Compensation_A_RPM
 0000:000C9EA4       Cranking_Fuel_IPW_Compensation_B_RPM_X_Axis
 0000:000C9EB8       Cranking_Fuel_IPW_Compensation_B_RPM_Y_Axis
 0000:000C9ED4       Cranking_Fuel_IPW_Compensation_B_RPM
 0000:000C9F88       Min_Primary_Base_Enrichment_1_A
 0000:000CA008       Min_Primary_Base_Enrichment_1_B_Y_Axis
 0000:000CA028       Min_Primary_Base_Enrichment_1_B
 0000:000CA07C       aP
 0000:000CA090       a@333
 0000:000CA098       aBa
 0000:000CA110       Primary_Open_Loop_Fueling_X_Axis
 0000:000CA138       Idle_Speed_Target_C_Y_Axis
 0000:000CA14C       Primary_Open_Loop_Fueling_Y_Axis
 0000:000CA2B8       Primary_Open_Loop_Fueling_Failsafe_X_Axis
 0000:000CA2F4       Primary_Open_Loop_Fueling_Failsafe_Y_Axis
 0000:000CA6B4       Idle_Speed_Target_A
 0000:000CA6F4       Idle_Speed_Target_B
 0000:000CA734       Idle_Speed_Target_C
 0000:000CA790       Per_Injector_Pulse_Width_Compensation_C_Y_Axis
 0000:000CAE50       Target_Throttle_Plate_Position_A_Requested_Torque_X_Axis
 0000:000CAE94       Target_Throttle_Plate_Position_A_Requested_Torque_Y_Axis
 0000:000CAED4       Target_Throttle_Plate_Position_A_Requested_Torque
 0000:000CB0F4       Target_Throttle_Plate_Position_B_Requested_Torque_X_Axis
 0000:000CB138       Target_Throttle_Plate_Position_B_Requested_Torque_Y_Axis
 0000:000CB178       Target_Throttle_Plate_Position_B_Requested_Torque
 0000:000CB1C8       Throttle_Tipin_Enrichment_A
 0000:000CB398       Requested_Torque_Accelerator_Pedal_X_Axis
 0000:000CB3D4       Requested_Torque_Accelerator_Pedal_Y_Axis
 0000:000CB418       Requested_Torque_Accelerator_Pedal
 0000:000CBA08       Timing_Compensation_B_IAT_IAM_Activation
 0000:000CBA0C       Base_Timing_Alternate_ECT_Y_Axis
 0000:000CBA10       Manifold_Pressure_Sensor_Limits_CEL
 0000:000CBA60       a_ffboff@uzqUP
 0000:000CBA7C       aB_1
 0000:000CBA80       a@33@33?Zs?Goez
 0000:000CBA94       a@p
 0000:000CBAD0       Injector_Latency_Y_Axis
 0000:000CBAE4       Injector_Latency
 0000:000CBC48       Fuel_Temp_Sensor_Scaling_Y_Axis
 0000:000CBCC0       Fuel_Temp_Sensor_Scaling
 0000:000CBD38       MAF_Sensor_Scaling_Y_Axis
 0000:000CBE10       MAF_Sensor_Scaling
 0000:000CBFD8       Front_Oxygen_Sensor_Scaling_Y_Axis
 0000:000CC00C       Front_Oxygen_Sensor_Scaling
 0000:000CC520       Timing_Compensation_A_IAT_Activation_X_Axis
 0000:000CC55C       aSssSss?fff?
 0000:000CC770       Timing_Compensation_Per_Cylinder_A
 0000:000CC790       Radiator_Fan_Modes_ECT
 0000:000CC7A0       Radiator_Fan_Modes_Veh_Speed
 0000:000CC7A8       Timing_Compensation_Per_Cylinder_B_X_Axis
 0000:000CC7E0       Timing_Compensation_Per_Cylinder_B_Y_Axis
 0000:000CC7E8       dEcuId
 0000:000CC7F0       Timing_Compensation_Per_Cylinder_B
 0000:000CC828       Timing_Compensation_Per_Cylinder_C_X_Axis
 0000:000CC860       Timing_Compensation_Per_Cylinder_C_Y_Axis
 0000:000CC870       Timing_Compensation_Per_Cylinder_C
 0000:000CC8E0       Timing_Compensation_Per_Cylinder_D_Y_Axis
 0000:000CC9E0       Knock_Correction_Advance_Max
 0000:000CCB04       Per_Injector_Pulse_Width_Compensation_B_X_Axis
 0000:000CCB48       Per_Injector_Pulse_Width_Compensation_B_Y_Axis
 0000:000CCEE4       Per_Injector_Pulse_Width_Compensation_D
 0000:000CD220       Injector_Latency_
 0000:000CD30C       Intake_Cam_Advance_Angle_A_AVCS_X_Axis
 0000:000CD344       Intake_Cam_Advance_Angle_A_AVCS_Y_Axis
 0000:000CD38C       Intake_Cam_Advance_Angle_A_AVCS
 0000:000CD584       Intake_Cam_Advance_Angle_B_AVCS_X_Axis
 0000:000CD5BC       Intake_Cam_Advance_Angle_B_AVCS_Y_Axis
 0000:000CD604       Intake_Cam_Advance_Angle_B_AVCS
 0000:000D0400       Timing_Compensation_Per_Cylinder_A_Y_Axis
 0000:000E1000       dRomHoleStart
 0000:000FFB80       Checksum_Fix
 0000:FFFF251C       E_AF_Learning_1_A_StoredExt_E44
 0000:FFFF2524       E_AF_Learning_1_B_StoredExt_E45
 0000:FFFF252C       E_AF_Learning_1_C_StoredExt_E46
 0000:FFFF2534       E_AF_Learning_1_D_StoredExt_E47
 0000:FFFF2570       E_IAM_4byteExt_E31
 0000:FFFF2D22       pMafSensorVoltage
 0000:FFFF2D56       E_IntakeAirTemp_Volts
 0000:FFFF2DB8       pIntakeAirTemp
 0000:FFFF2DC8       E_Coolant_Temp_Direct
 0000:FFFF2DD8       E_Manifold_Absolute_Pressure_Direct
 0000:FFFF2DF4       pMassAirFlow
 0000:FFFF2E34       pAtmoPress
 0000:FFFF4A50       pAf1Res
 0000:FFFF4BB0       E_Boost_ErrorExt_E35
 0000:FFFF4BB4       E_Target_Boost_4byteExt_E36
 0000:FFFF4BB8       E_Turbo_Dynamics_Proportional_4byteExt_E37
 0000:FFFF4BBC       E_Turbo_Dynamics_Integral_4byteExt_E34
 0000:FFFF4BD8       E_Primary_Wastegate_Duty_MaximumExt_4byteExt__E77
 0000:FFFF4C18       pCruiseFlags
 0000:FFFF4D8C       E_CruiseLight_Flags_4D8C
 0000:FFFF4DC0       E_Manifold_Absolute_Pressure_DELTA_unk
 0000:FFFF4DCC       E_Manifold_Relative_Sea_Level_Pressure_4byteExt_E52
 0000:FFFF4DD0       E_Manifold_Relative_Pressure_4byteExt_E113
 0000:FFFF4E5C       E_Throttle_Plate_Opening_Angle_4byteExt_E38
 0000:FFFF4E60       E_Tipin_ThrottleExt_E54
 0000:FFFF4F58       E_Engine_Load_4ByteExt_E32
 0000:FFFF5028       E_AF_Sensor_1_4byteExt_E91
 0000:FFFF5049       pClutchFlags
 0000:FFFF5068       pVehicleSpeed
 0000:FFFF5078       pEngineSpeed
 0000:FFFF516D       E_Gear_CalculatedExt_E59
 0000:FFFF52A0       E_Final_Fueling_Base_4byteExt_E123
 0000:FFFF52D0       E_Primary_Enrichment_Final_4byteExt_E115
 0000:FFFF534C       E_AF_Correction_1_4byteExt_E81
 0000:FFFF5394       E_Closed_Loop_Fueling_Target_4byteExt_E121
 0000:FFFF5494       E_AF_Learning_1_4byteExt_E48
 0000:FFFF549D       E_AF_Learning_Airflow_Range_CurrentExt_E61
 0000:FFFF54F4       E_Primary_Open_Loop_Map_Enrichment_4byteExt_E84
 0000:FFFF5610       E_Tipin_Enrichment_Last_CalculatedExt_E55
 0000:FFFF5660       pFlagsRevLim
 0000:FFFF56C0       E_Fuel_Injector_1_Pulse_Width_4byteExt_E60
 0000:FFFF56D4       E_Fuel_Injector_1_Latency_4byteExt_E50
 0000:FFFF57F0       E_Ignition_Base_TimingExt_E53
 0000:FFFF58CC       E_Feedback_Knock_Correction_4byteExt_E39
 0000:FFFF58DC       E_Map_Ratio_PrimaryExt_E42
 0000:FFFF5918       E_Knock_Correction_Advance_Max_PrimaryExt_E118
 0000:FFFF591C       E_Knock_Correction_Advance_Primary_Map_RatioExt_E116
 0000:FFFF5920       E_Knock_Correction_Advance_IAM_onlyExt_E40
 0000:FFFF5924       E_Knock_Correction_Advance_AdditiveExt_E119
 0000:FFFF5938       E_Fine_Learning_Knock_Correction_4byteExt_E41
 0000:FFFF593E       E_Fine_Learning_Table_OffsetExt_E58
 0000:FFFF5AC0       E_Target_Throttle_Plate_PositionExt_E57
 0000:FFFF5AC4       E_Requested_TorqueExt_E56
 0000:FFFF5C3C       E_Idle_Speed_Map_SelectionExt_E49
 0000:FFFF6100       E_Map_Ratio_AlternateExt_E117
 0000:FFFF6B79       E_CLOL_FuelingExt_E33
 0000:FFFF6BEE       pCelSignalOem
 0000:FFFF6F6C       E_CEL_SW_UNK
 0000:FFFF6F90       RAMHOLE_START
 0000:FFFFBFFB       pMemoryResetLimit
