
 Start         Length     Name                   Class
 0000:00000000 000100000H ROM                    CODE
 0000:00000000 00000BFFFH RAM                    


  Address         Publics by Value

 0000:00000000       off_0
 0000:00002000       dCalId
 0000:00002038       aPf_23vh4t_80mV
 0000:0000209C       sPull2DFloat
 0000:00002150       sPull3DFloat
 0000:00004D7E       nullsub_5
 0000:00004D82       nullsub_1
 0000:00004D86       nullsub_6
 0000:00004F6A       nullsub_2
 0000:00004FAC       nullsub_7
 0000:00004FC2       nullsub_3
 0000:00004FC6       nullsub_8
 0000:00004FE2       nullsub_9
 0000:000050CA       nullsub_4
 0000:000050CE       nullsub_10
 0000:00005140       nullsub_11
 0000:0000552E       aFrcatqPmftoFkc
 0000:000064B8       nullsub_12
 0000:000082B8       sMafCalc
 0000:00008314       hMafCalc
 0000:0000DBC8       hMemoryReset
 0000:0000FCAC       sMemoryReset
 0000:00012038       hMemoryResetLimit
 0000:00012388       aOJCJC
 0000:000147E8       hWgdc
 0000:000148D8       aCoCNcBDuCDuBDu
 0000:000148FF       aC_0
 0000:00014905       aB_0
 0000:0001490B       aC_1
 0000:00014911       aBDuC
 0000:0001491D       aBDuC_0
 0000:00014C14       hRevLimDelete
 0000:00017A9C       sWgdc
 0000:00018210       sWgdc0
 0000:00018618       Max_Wastegate_Duty_Limit_PostCompensation
 0000:00019FA8       sResumeSwGet
 0000:00019FAC       ResumeBitMask_0x02
 0000:00019FBC       sCoastSwGet
 0000:00019FC0       CoastBitMask_0x04
 0000:00019FE4       sBrakeSwGet
 0000:00019FE8       BrakeBitMask_0x08
 0000:0001D82C       aCJCJoOC
 0000:0002252C       Engine_Load_Limit_Maximum
 0000:000244D4       Front_Oxygen_Sensor_Rich_Limit
 0000:000254C8       sClutchSwGet
 0000:000254CC       ClutchBitMask_0x80
 0000:000297D0       aCuJC
 0000:00033898       sRevLimStart
 0000:000338AC       RevLimBitMask_0x80
 0000:000338CE       sRevLimEnd
 0000:00034E24       aCO8AU
 0000:0003D1F4       aCOBcF
 0000:000415BC       aOFm@A@B
 0000:0004D6B0       aDEcp0dqaadrabd
 0000:0004D91C       SsmGet_Engine_Load_Relative_P1
 0000:0004D92A       SsmGet_Coolant_Temperature_P2
 0000:0004D938       SsmGet_AF_Correction_1_P3
 0000:0004D954       SsmGet_AF_Learning_1_P4
 0000:0004D964       SsmGet_Learned_Ignition_Timing_Correction_P153
 0000:0004D96A       SsmGet_Manifold_Absolute_Pressure_P7
 0000:0004D978       SsmGet_Engine_Speed_P8
 0000:0004D9A6       SsmGet_Vehicle_Speed_P9
 0000:0004D9B2       SsmGet_Ignition_Total_Timing_P10
 0000:0004D9C2       SsmGet_Intake_Air_Temperature_P11
 0000:0004D9D0       SsmGet_Mass_Airflow_P12
 0000:0004D9FE       SsmGet_Throttle_Opening_Angle_P13
 0000:0004DA0C       SsmGet_Rear_O2_Sensor_P15
 0000:0004DA3A       SsmGet_Battery_Voltage_P17
 0000:0004DA48       SsmGet_Mass_Airflow_Sensor_Voltage_P18
 0000:0004DB20       SsmGet_Throttle_Sensor_Voltage_P19
 0000:0004DB44       SsmGet_Fuel_Injector_1_Pulse_Width_P21
 0000:0004DB58       SsmGet_Knock_Correction_Advance_P23
 0000:0004DB68       SsmGet_Atmospheric_Pressure_P24
 0000:0004DB76       SsmGet_Manifold_Relative_Pressure_P25
 0000:0004DB94       SsmGet_Fuel_Tank_Pressure_P27
 0000:0004DBA2       SsmGet_Accelerator_Pedal_Angle_P30
 0000:0004DBB0       SsmGet_Fuel_Temperature_P31
 0000:0004DBBC       SsmGet_Fuel_Level_P35
 0000:0004DBCA       SsmGet_Primary_Wastegate_Duty_Cycle_P36
 0000:0004DBD8       SsmGet_CPC_Valve_Duty_Ratio_P38
 0000:0004DBF0       SsmGet_Tumble_Valve_Position_Sensor_Right_P39
 0000:0004DC14       SsmGet_Tumble_Valve_Position_Sensor_Left_P40
 0000:0004DC38       SsmGet_Idle_Speed_Control_Valve_Duty_Ratio_P41
 0000:0004DC4A       SsmGet_Alternator_Duty_P46
 0000:0004DC56       SsmGet_Fuel_Pump_Duty_P47
 0000:0004DC64       SsmGet_Intake_VVT_Advance_Angle_Right_P48
 0000:0004DC72       SsmGet_Intake_VVT_Advance_Angle_Left_P49
 0000:0004DC80       SsmGet_Intake_OCV_Duty_Right_P50
 0000:0004DC8E       SsmGet_Intake_OCV_Duty_Left_P51
 0000:0004DC9C       SsmGet_Intake_OCV_Current_Right_P52
 0000:0004DCAA       SsmGet_Intake_OCV_Current_Left_P53
 0000:0004DCB8       SsmGet_AF_Sensor_1_Current_P54
 0000:0004DCC8       SsmGet_AF_Sensor_1_Resistance_P56
 0000:0004DCD4       SsmGet_AF_Sensor_1_P58
 0000:0004DCEC       SsmGet_Switches_x_1_2_3_x_69_70_71
 0000:0004DE54       SsmGet_Switches_4_5_x_6_7_8_9_x
 0000:0004DF2C       SsmGet_Switches_10_11_12_13_14_15_16_17
 0000:0004DFDE       SsmGet_Switches_18_19_20_21_22_23_24_25
 0000:0004E146       SsmGet_Switches_26_27_28_29_30_31_32_33
 0000:0004E1F8       SsmGet_Switches_34_35_36_37_38_39_40_41
 0000:0004E2B6       SsmGet_Switches_42_43_44_45_46_47_48_49
 0000:0004E2CE       SsmGet_Switches_72_73_74_75_50_51_52_53
 0000:0004E3BA       SsmGet_Switches_54_55_56_57_58_59_60_61
 0000:0004E3F2       SsmGet_Switches_x_x_x_x_x_x_82_x
 0000:0004E45A       SsmGet_Switches_108_x_x_x_x_x_x_x
 0000:0004E538       SsmGet_Roughness_Monitor_Cylinder_1_P63
 0000:0004E53E       SsmGet_Roughness_Monitor_Cylinder_2_P64
 0000:0004E544       SsmGet_AF_Correction_3_32bit_ECU_P89
 0000:0004E554       SsmGet_AF_Learning_3_P66
 0000:0004E5F6       SsmGet_Switches_148_149_x_150_151_152_153_154
 0000:0004E724       SsmGet_Roughness_Monitor_Cylinder_3_P69
 0000:0004E72A       SsmGet_Roughness_Monitor_Cylinder_4_P70
 0000:0004E9D8       SsmGet_Throttle_Motor_Duty_P71
 0000:0004E9E8       SsmGet_Throttle_Motor_Voltage_P72
 0000:0004E9F6       SsmGet_Sub_Throttle_Sensor_P73
 0000:0004EA1A       SsmGet_Main_Throttle_Sensor_P74
 0000:0004EA3E       SsmGet_Sub_Accelerator_Sensor_P75
 0000:0004EA62       SsmGet_Main_Accelerator_Sensor_P76
 0000:0004EA86       SsmGet_Exhaust_Gas_Temperature_P79
 0000:0004EA94       SsmGet_Cold_Start_Injector_Air_Pump_P80
 0000:0004EAA2       SsmGet_Memorised_Cruise_Speed_P82
 0000:0004EAAE       SsmGet_Fuel_Level_Sensor_Resistance_P119
 0000:0004EAC0       SsmGet_Estimated_odometer_P120
 0000:0004EAE2       SsmGet_Exhaust_VVT_Advance_Angle_Right_P83
 0000:0004EAEE       SsmGet_Exhaust_VVT_Advance_Angle_Left_P84
 0000:0004EAFA       SsmGet_Exhaust_OCV_Duty_Right_P85
 0000:0004EB0C       SsmGet_Exhaust_OCV_Duty_Left_P86
 0000:0004EB1E       SsmGet_Exhaust_OCV_Current_Right_P87
 0000:0004EB2C       SsmGet_Exhaust_OCV_Current_Left_P88
 0000:0004EB3A       SsmGet_Switches_130_62_131_x_x_x_x_x
 0000:0004ECE2       SsmGet_Switches_63_64_65_66_67_132_68_133
 0000:0004EF1C       SsmGet_Switches_168_169_170_171_172_x_x_x
 0000:0004EF20       SsmGet_Boost_Pressure_Feedback_P168
 0000:0004EFA0       SsmGet_Interior_Heater_P178
 0000:0004EFAE       SsmGet_Battery_Current_P183
 0000:0004EFD2       SsmGet_Alternator_Control_Mode_P185
 0000:0004EFD8       SsmGet_Battery_Temperature_P184
 0000:0004EFE4       SsmGet_Exhaust_Gas_Temperature_at_Diesel_Particulate_Filter_DPF_Inlet_P189
 0000:00055F7C       PtrSsmGet_Engine_Load_Relative_P1
 0000:00055F80       PtrSsmGet_Coolant_Temperature_P2
 0000:00055F84       PtrSsmGet_AF_Correction_1_P3
 0000:00055F88       PtrSsmGet_AF_Learning_1_P4
 0000:00055F8C       PtrSsmGet_AF_Correction_2_P5
 0000:00055F90       PtrSsmGet_AF_Learning_2_P6
 0000:00055F94       PtrSsmGet_Manifold_Absolute_Pressure_P7
 0000:00055F98       PtrSsmGet_Engine_Speed_P8
 0000:00055FA0       PtrSsmGet_Vehicle_Speed_P9
 0000:00055FA4       PtrSsmGet_Ignition_Total_Timing_P10
 0000:00055FA8       PtrSsmGet_Intake_Air_Temperature_P11
 0000:00055FAC       PtrSsmGet_Mass_Airflow_P12
 0000:00055FB4       PtrSsmGet_Throttle_Opening_Angle_P13
 0000:00055FB8       PtrSsmGet_Front_O2_Sensor_1_P14
 0000:00055FC0       PtrSsmGet_Rear_O2_Sensor_P15
 0000:00055FC8       PtrSsmGet_Front_O2_Sensor_2_P16
 0000:00055FD0       PtrSsmGet_Battery_Voltage_P17
 0000:00055FD4       PtrSsmGet_Mass_Airflow_Sensor_Voltage_P18
 0000:00055FD8       PtrSsmGet_Throttle_Sensor_Voltage_P19
 0000:00055FDC       PtrSsmGet_Differential_Pressure_Sensor_Voltage_P20
 0000:00055FE0       PtrSsmGet_Fuel_Injector_1_Pulse_Width_P21
 0000:00055FE4       PtrSsmGet_Fuel_Injector_2_Pulse_Width_P22
 0000:00055FE8       PtrSsmGet_Knock_Correction_Advance_P23
 0000:00055FEC       PtrSsmGet_Atmospheric_Pressure_P24
 0000:00055FF0       PtrSsmGet_Manifold_Relative_Pressure_P25
 0000:00055FF4       PtrSsmGet_Pressure_Differential_Sensor_P26
 0000:00055FF8       PtrSsmGet_Fuel_Tank_Pressure_P27
 0000:00055FFC       PtrSsmGet_CO_Adjustment_P28
 0000:00056000       PtrSsmGet_Learned_Ignition_Timing_P29
 0000:00056004       PtrSsmGet_Accelerator_Pedal_Angle_P30
 0000:00056008       PtrSsmGet_Fuel_Temperature_P31
 0000:0005600C       PtrSsmGet_Front_O2_Heater_Current_1_P32
 0000:00056010       PtrSsmGet_Rear_O2_Heater_Current_P33
 0000:00056014       PtrSsmGet_Front_O2_Heater_Current_2_P34
 0000:00056018       PtrSsmGet_Fuel_Level_P35
 0000:0005601C       PtrSsmGet_Radiator_Fan_Control_P92
 0000:00056020       PtrSsmGet_Primary_Wastegate_Duty_Cycle_P36
 0000:00056024       PtrSsmGet_Secondary_Wastegate_Duty_Cycle_P37
 0000:00056028       PtrSsmGet_CPC_Valve_Duty_Ratio_P38
 0000:0005602C       PtrSsmGet_Tumble_Valve_Position_Sensor_Right_P39
 0000:00056030       PtrSsmGet_Tumble_Valve_Position_Sensor_Left_P40
 0000:00056034       PtrSsmGet_Idle_Speed_Control_Valve_Duty_Ratio_P41
 0000:00056038       PtrSsmGet_AF_Lean_Correction_P42
 0000:0005603C       PtrSsmGet_AF_Heater_Duty_P43
 0000:00056040       PtrSsmGet_Idle_Speed_Control_Valve_Step_P44
 0000:00056044       PtrSsmGet_Number_of_Exh_Gas_Recirc_Steps_P45
 0000:00056048       PtrSsmGet_Alternator_Duty_P46
 0000:0005604C       PtrSsmGet_Fuel_Pump_Duty_P47
 0000:00056050       PtrSsmGet_Intake_VVT_Advance_Angle_Right_P48
 0000:00056054       PtrSsmGet_Intake_VVT_Advance_Angle_Left_P49
 0000:00056058       PtrSsmGet_Intake_OCV_Duty_Right_P50
 0000:0005605C       PtrSsmGet_Intake_OCV_Duty_Left_P51
 0000:00056060       PtrSsmGet_Intake_OCV_Current_Right_P52
 0000:00056064       PtrSsmGet_Intake_OCV_Current_Left_P53
 0000:00056068       PtrSsmGet_AF_Sensor_1_Current_P54
 0000:0005606C       PtrSsmGet_AF_Sensor_2_Current_P55
 0000:00056070       PtrSsmGet_AF_Sensor_1_Resistance_P56
 0000:00056074       PtrSsmGet_AF_Sensor_2_Resistance_P57
 0000:00056078       PtrSsmGet_AF_Sensor_1_P58
 0000:0005607C       PtrSsmGet_AF_Sensor_2_P59
 0000:00056088       PtrSsmGet_Gear_Position_P60
 0000:000560AC       PtrSsmGet_AF_Sensor_1_Heater_Current_P61
 0000:000560B0       PtrSsmGet_AF_Sensor_2_Heater_Current_P62
 0000:000560E4       PtrSsmGet_Switches_x_1_2_3_x_69_70_71
 0000:000560E8       PtrSsmGet_Switches_4_5_x_6_7_8_9_x
 0000:000560EC       PtrSsmGet_Switches_10_11_12_13_14_15_16_17
 0000:000560F0       PtrSsmGet_Switches_18_19_20_21_22_23_24_25
 0000:000560F4       PtrSsmGet_Switches_26_27_28_29_30_31_32_33
 0000:000560F8       PtrSsmGet_Switches_34_35_36_37_38_39_40_41
 0000:000560FC       PtrSsmGet_Switches_42_43_44_45_46_47_48_49
 0000:00056100       PtrSsmGet_Switches_72_73_74_75_50_51_52_53
 0000:00056104       PtrSsmGet_Switches_54_55_56_57_58_59_60_61
 0000:00056108       PtrSsmGet_Switches_x_x_x_x_x_x_82_x
 0000:00056118       PtrSsmGet_Switches_108_x_x_x_x_x_x_x
 0000:00056298       PtrSsmGet_Roughness_Monitor_Cylinder_1_P63
 0000:0005629C       PtrSsmGet_Roughness_Monitor_Cylinder_2_P64
 0000:000562A0       PtrSsmGet_AF_Correction_3_32bit_ECU_P89
 0000:000562A4       PtrSsmGet_AF_Learning_3_P66
 0000:000562A8       PtrSsmGet_Rear_O2_Heater_Voltage_P67
 0000:000562AC       PtrSsmGet_AF_Adjustment_Voltage_P68
 0000:000562BC       PtrSsmGet_Switches_148_149_x_150_151_152_153_154
 0000:000562C0       PtrSsmGet_Roughness_Monitor_Cylinder_3_P69
 0000:000562C4       PtrSsmGet_Roughness_Monitor_Cylinder_4_P70
 0000:0005631C       PtrSsmGet_Roughness_Monitor_Cylinder_5_P151
 0000:00056340       PtrSsmGet_Roughness_Monitor_Cylinder_6_P152
 0000:00056344       PtrSsmGet_Learned_Ignition_Timing_Correction_P153
 0000:00056348       PtrSsmGet_Throttle_Motor_Duty_P71
 0000:0005634C       PtrSsmGet_Throttle_Motor_Voltage_P72
 0000:00056360       PtrSsmGet_Sub_Throttle_Sensor_P73
 0000:00056364       PtrSsmGet_Main_Throttle_Sensor_P74
 0000:00056368       PtrSsmGet_Sub_Accelerator_Sensor_P75
 0000:0005636C       PtrSsmGet_Main_Accelerator_Sensor_P76
 0000:00056370       PtrSsmGet_Brake_Booster_Pressure_P77
 0000:00056374       PtrSsmGet_Fuel_Pressure_High_P78
 0000:00056378       PtrSsmGet_Exhaust_Gas_Temperature_P79
 0000:0005637C       PtrSsmGet_Exhaust_Gas_Temperature_2_P116
 0000:00056380       PtrSsmGet_Cold_Start_Injector_Air_Pump_P80
 0000:00056384       PtrSsmGet_SCV_Step_P81
 0000:00056388       PtrSsmGet_Memorised_Cruise_Speed_P82
 0000:0005638C       PtrSsmGet_AirFuel_Correction_4_P117
 0000:00056390       PtrSsmGet_AirFuel_Learning_4_P118
 0000:00056394       PtrSsmGet_Fuel_Level_Sensor_Resistance_P119
 0000:00056398       PtrSsmGet_Estimated_odometer_P120
 0000:000563AC       PtrSsmGet_Oil_Temperature_P122
 0000:000563B0       PtrSsmGet_Oil_Switching_Solenoid_Valve_OSV_Duty_Right_P123
 0000:000563B4       PtrSsmGet_Oil_Switching_Solenoid_Valve_OSV_Duty_Left_P124
 0000:000563B8       PtrSsmGet_Oil_Switching_Solenoid_Valve_OSV_Current_Right_P125
 0000:000563BC       PtrSsmGet_Oil_Switching_Solenoid_Valve_OSV_Current_Left_P126
 0000:000563C0       PtrSsmGet_Exhaust_VVT_Advance_Angle_Right_P83
 0000:000563C4       PtrSsmGet_Exhaust_VVT_Advance_Angle_Left_P84
 0000:000563C8       PtrSsmGet_Exhaust_OCV_Duty_Right_P85
 0000:000563CC       PtrSsmGet_Exhaust_OCV_Duty_Left_P86
 0000:000563D0       PtrSsmGet_Exhaust_OCV_Current_Right_P87
 0000:000563D4       PtrSsmGet_Exhaust_OCV_Current_Left_P88
 0000:000563D8       PtrSsmGet_VVL_Lift_Mode_P127
 0000:000563E0       PtrSsmGet_Switches_130_62_131_x_x_x_x_x
 0000:000563E4       PtrSsmGet_Switches_63_64_65_66_67_132_68_133
 0000:00056508       PtrSsmGet_SIDrive_Mode_P114
 0000:0005650C       PtrSsmGet_Throttle_Sensor_Closed_Voltage_P115
 0000:00056528       PtrSsmGet_Fuel_Tank_Air_Pressure_P121
 0000:000565B8       PtrSsmGet_Switches_155_156_157_x_x_x_x_x
 0000:000565BC       PtrSsmGet_Switches_158_159_160_161_162_163_164_165
 0000:000565C4       PtrSsmGet_Fine_Learning_Knock_Correction_P91
 0000:000565C8       PtrSsmGet_Fuel_Tank_Pressure_P154
 0000:00056698       PtrSsmGet_Switches_168_169_170_171_172_x_x_x
 0000:000566E4       PtrSsmGet_Main_Injection_Period_P155
 0000:000566E8       PtrSsmGet_Final_Injection_Amount_P156
 0000:000566F0       PtrSsmGet_Number_of_Times_Injected_P157
 0000:000566F4       PtrSsmGet_Target_Intake_Manifold_Pressure_P158
 0000:000566F8       PtrSsmGet_Target_Intake_Air_Amount_P159
 0000:000566FC       PtrSsmGet_Air_Mass_P160
 0000:00056700       PtrSsmGet_Exhaust_Gas_Recirculation_EGR_Target_Valve_Opening_Angle_P161
 0000:00056704       PtrSsmGet_Exhaust_Gas_Recirculation_EGR_Valve_Opening_Angle_P162
 0000:00056708       PtrSsmGet_Exhaust_Gas_Recirculation_EGR_Duty_P163
 0000:0005670C       PtrSsmGet_Common_Rail_Target_Pressure_P164
 0000:00056710       PtrSsmGet_Common_Rail_Pressure_P165
 0000:00056714       PtrSsmGet_Intake_Air_Temperature_combined_P166
 0000:00056718       PtrSsmGet_Target_Engine_Speed_P167
 0000:00056720       PtrSsmGet_Boost_Pressure_Feedback_P168
 0000:00056734       PtrSsmGet_Electric_Power_Steering_Current_P169
 0000:00056738       PtrSsmGet_Fuel_Pump_Suction_Control_Valve_Current_Target_P170
 0000:00056740       PtrSsmGet_Fuel_Pump_Suction_Control_Valve_Current_Actual_P175
 0000:00056748       PtrSsmGet_Mileage_after_Injector_Learning_P176
 0000:00056770       PtrSsmGet_Mileage_after_Injector_Replacement_P177
 0000:000567DC       PtrSsmGet_Actual_Common_Rail_Pressure_Time_Synchronized_P204
 0000:0005681C       PtrSsmGet_PreInjection_Amount_P234
 0000:00056824       PtrSsmGet_PreInjection_Interval_P235
 0000:00056828       PtrSsmGet_Final_Initial_Torque_P238
 0000:00056840       PtrSsmGet_Individual_Pump_Difference_Learning_Value_P228
 0000:00056854       PtrSsmGet_MicroQuantityInjection_Final_Learning_Value_11_P208
 0000:00056858       PtrSsmGet_MicroQuantityInjection_Final_Learning_Value_12_P209
 0000:0005685C       PtrSsmGet_MicroQuantityInjection_Final_Learning_Value_13_P210
 0000:00056860       PtrSsmGet_MicroQuantityInjection_Final_Learning_Value_14_P211
 0000:00056864       PtrSsmGet_MicroQuantityInjection_Final_Learning_Value_21_P212
 0000:00056868       PtrSsmGet_MicroQuantityInjection_Final_Learning_Value_22_P213
 0000:0005686C       PtrSsmGet_MicroQuantityInjection_Final_Learning_Value_23_P214
 0000:00056870       PtrSsmGet_MicroQuantityInjection_Final_Learning_Value_24_P215
 0000:00056874       PtrSsmGet_MicroQuantityInjection_Final_Learning_Value_31_P216
 0000:00056878       PtrSsmGet_MicroQuantityInjection_Final_Learning_Value_32_P217
 0000:0005687C       PtrSsmGet_MicroQuantityInjection_Final_Learning_Value_33_P218
 0000:00056880       PtrSsmGet_MicroQuantityInjection_Final_Learning_Value_34_P219
 0000:00056884       PtrSsmGet_MicroQuantityInjection_Final_Learning_Value_41_P220
 0000:00056888       PtrSsmGet_MicroQuantityInjection_Final_Learning_Value_42_P221
 0000:0005688C       PtrSsmGet_MicroQuantityInjection_Final_Learning_Value_43_P222
 0000:00056890       PtrSsmGet_MicroQuantityInjection_Final_Learning_Value_44_P223
 0000:00056894       PtrSsmGet_MicroQuantityInjection_Final_Learning_Value_51_P224
 0000:00056898       PtrSsmGet_MicroQuantityInjection_Final_Learning_Value_52_P225
 0000:0005689C       PtrSsmGet_MicroQuantityInjection_Final_Learning_Value_53_P226
 0000:000568A0       PtrSsmGet_MicroQuantityInjection_Final_Learning_Value_54_P227
 0000:000568B4       PtrSsmGet_PreInjection_Final_Period_P233
 0000:000568BC       PtrSsmGet_Final_Main_Injection_Period_P229
 0000:000568D4       PtrSsmGet_Quantity_Correction_Cylinder_1_P179
 0000:000568D8       PtrSsmGet_Quantity_Correction_Cylinder_2_P180
 0000:000568DC       PtrSsmGet_Quantity_Correction_Cylinder_3_P181
 0000:000568E0       PtrSsmGet_Quantity_Correction_Cylinder_4_P182
 0000:00056920       PtrSsmGet_Interior_Heater_P178
 0000:00056924       PtrSsmGet_Battery_Current_P183
 0000:00056928       PtrSsmGet_Alternator_Control_Mode_P185
 0000:0005692C       PtrSsmGet_Battery_Temperature_P184
 0000:00056934       PtrSsmGet_Cumulative_Ash_Ratio_P186
 0000:00056938       PtrSsmGet_Pressure_Difference_between_Diesel_Particulate_Filter_DPF_Inlet_and_Outlet_P187
 0000:0005693C       PtrSsmGet_Exhaust_Gas_Temperature_at_Catalyst_Inlet_P188
 0000:00056940       PtrSsmGet_Exhaust_Gas_Temperature_at_Diesel_Particulate_Filter_DPF_Inlet_P189
 0000:00056944       PtrSsmGet_Estimated_Catalyst_Temperature_P190
 0000:00056948       PtrSsmGet_Estimated_Temperature_of_the_Diesel_Particulate_Filter_DPF_P191
 0000:0005694C       PtrSsmGet_Soot_Accumulation_Ratio_P192
 0000:00056950       PtrSsmGet_Oil_Dilution_Ratio_P193
 0000:000569C0       PtrSsmGet_Accumulated_Count_of_Overspeed_Instances_Very_High_RPM_P198
 0000:000569C4       PtrSsmGet_Accumulated_Count_of_Overspeed_Instances_High_RPM_P199
 0000:000569C8       PtrSsmGet_Estimated_Distance_to_Oil_Change_P205
 0000:000569CC       PtrSsmGet_Running_Distance_since_last_Diesel_Particulate_Filter_DPF_Regeneration_P206
 0000:000569D4       PtrSsmGet_Diesel_Particulate_Filter_DPF_Regeneration_Count_P207
 0000:000569E8       PtrSsmGet_Cumulative_oil_diesel_entry_P236
 0000:00056CB4       a34512345
 0000:0006058C       aCJCJs
 0000:00062384       aCOC
 0000:000667D6       aCoTddscm3P
 0000:00066ABC       aCoDstbcm3P
 0000:0007602C       P0335_CRANKSHAFT_POS_SENSOR_A_MALFUNCTION
 0000:00076030       P0604_CONTROL_MODULE_RAM_ERROR
 0000:00076031       P0102_MAF_SENSOR_LOW_INPUT
 0000:00076032       P0103_MAF_SENSOR_HIGH_INPUT
 0000:00076034       P0327_KNOCK_SENSOR_1_LOW_INPUT
 0000:00076035       P0328_KNOCK_SENSOR_1_HIGH_INPUT
 0000:00076036       P0122_TPS_A_LOW_INPUT
 0000:00076037       P0123_TPS_A_HIGH_INPUT
 0000:00076039       P0117_COOLANT_TEMP_SENSOR_LOW_INPUT
 0000:0007603A       P0118_COOLANT_TEMP_SENSOR_HIGH_INPUT
 0000:0007603C       P0125_INSUFFICIENT_COOLANT_TEMP_FUELING
 0000:0007603D       P0462_FUEL_LEVEL_SENSOR_LOW_INPUT
 0000:0007603E       P0463_FUEL_LEVEL_SENSOR_HIGH_INPUT
 0000:00076041       P1518_STARTER_SWITCH_LOW_INPUT
 0000:00076042       P0512_STARTER_REQUEST_CIRCUIT
 0000:00076046       P0851_NEUTRAL_SWITCH_INPUT_LOW
 0000:0007604A       P0852_NEUTRAL_SWITCH_INPUT_HIGH
 0000:0007604F       P0691_RADIATOR_FAN_CIRCUIT_LOW
 0000:00076050       P0692_RADIATOR_FAN_CIRCUIT_HIGH
 0000:00076055       P0011_CAMSHAFT_POS__TIMING_OVERADVANCED_1
 0000:00076056       P0021_CAMSHAFT_POS__TIMING_OVERADVANCED_2
 0000:00076059       P0458_EVAP_PURGE_VALVE_CIRCUIT_LOW
 0000:0007605A       P0459_EVAP_PURGE_VALVE_CIRCUIT_HIGH
 0000:00076060       P0133_FRONT_O2_SENSOR_SLOW_RESPONSE
 0000:00076064       P0420_CAT_EFFICIENCY_BELOW_THRESHOLD
 0000:00076067       P0171_SYSTEM_TOO_LEAN
 0000:00076068       P0172_SYSTEM_TOO_RICH
 0000:00076069       P0301_MISFIRE_CYLINDER_1
 0000:0007606A       P0302_MISFIRE_CYLINDER_2
 0000:0007606B       P0303_MISFIRE_CYLINDER_3
 0000:0007606C       P0304_MISFIRE_CYLINDER_4
 0000:0007606F       P0000_PASS_CODE_NO_DTC_DETECTED
 0000:00076070       P0000_PASS_CODE_NO_DTC_DETECTED_
 0000:00076072       P0131_FRONT_O2_SENSOR_LOW_INPUT
 0000:00076073       P0132_FRONT_O2_SENSOR_HIGH_INPUT
 0000:00076075       P0112_IAT_SENSOR_LOW_INPUT
 0000:00076076       P0113_IAT_SENSOR_HIGH_INPUT
 0000:00076078       P0038_REAR_O2_SENSOR_HIGH_INPUT
 0000:00076079       P0032_FRONT_O2_SENSOR_HIGH_INPUT
 0000:0007607A       P0037_REAR_O2_SENSOR_LOW_INPUT
 0000:0007607B       P0031_FRONT_O2_SENSOR_LOW_INPUT
 0000:0007607C       P0107_MAP_SENSOR_LOW_INPUT
 0000:0007607D       P0108_MAP_SENSOR_HIGH_INPUT
 0000:00076080       P1560_BACKUP_VOLTAGE_MALFUNCTION
 0000:00076083       P0245_WASTEGATE_SOLENOID_A_LOW
 0000:00076084       P0246_WASTEGATE_SOLENOID_A_HIGH
 0000:00076085       P0244_WASTEGATE_SOLENOID_A_RANGEPERF
 0000:0007608E       P0502_VEHICLE_SPEED_SENSOR_LOW_INPUT
 0000:0007608F       P0230_FUEL_PUMP_PRIMARY_CIRCUIT
 0000:00076091       P0519_IDLE_CONTROL_MALFUNCTION_FAILSAFE
 0000:00076093       P0134_FRONT_O2_SENSOR_NO_ACTIVITY
 0000:00076094       P0030_FRONT_O2_SENSOR_RANGEPERF
 0000:00076095       P0503_VEHICLE_SPEED_SENSOR_INTERMITTENT
 0000:00076096       P2109_TPS_A_MINIMUM_STOP_PERF
 0000:00076097       P0222_TPS_B_LOW_INPUT
 0000:00076098       P0223_TPS_B_HIGH_INPUT
 0000:00076099       P1160_ABNORMAL_RETURN_SPRING
 0000:0007609A       P2102_THROTTLE_ACTUATOR_CIRCUIT_LOW
 0000:0007609B       P2103_THROTTLE_ACTUATOR_CIRCUIT_HIGH
 0000:0007609C       P2101_THROTTLE_ACTUATOR_CIRCUIT_RANGEPERF
 0000:0007609E       P0638_THROTTLE_ACTUATOR_RANGEPERF
 0000:0007609F       P0607_CONTROL_MODULE_PERFORMANCE
 0000:000760A0       P2138_TPS_DE_VOLTAGE
 0000:000760A1       P2127_TPS_E_CIRCUIT_LOW_INPUT
 0000:000760A2       P2128_TPS_E_CIRCUIT_HIGH_INPUT
 0000:000760A3       P2122_TPS_D_CIRCUIT_LOW_INPUT
 0000:000760A4       P2123_TPS_D_CIRCUIT_HIGH_INPUT
 0000:000760A5       P2135_TPS_AB_VOLTAGE
 0000:000760A7       P0600_SERIAL_COMMUNICATION_LINK
 0000:000760AA       P0345_CAMSHAFT_POS_SENSOR_A_BANK_2
 0000:000760AB       P0340_CAMSHAFT_POS_SENSOR_A_MALFUNCTION_
 0000:000760AC       P0605_CONTROL_MODULE_ROM_ERROR
 0000:000760B1       P2093_OCV_SOLENOID_A2_CIRCUIT_SHORT
 0000:000760B2       P2092_OCV_SOLENOID_A2_CIRCUIT_OPEN
 0000:000760B3       P2089_OCV_SOLENOID_A1_CIRCUIT_SHORT
 0000:000760B4       P2088_OCV_SOLENOID_A1_CIRCUIT_OPEN
 0000:000760B5       P0700_TRANSMISSION_CONTROL_SYSTEM
 0000:000760B6       P2504_CHARGING_SYSTEM_VOLTAGE_HIGH
 0000:000760B7       P2503_CHARGING_SYSTEM_VOLTAGE_LOW
 0000:000760B8       P2004_TGV__INTAKE_MANIFOLD_RUNNER_1_STUCK_OPEN
 0000:000760B9       P2006_TGV__INTAKE_MANIFOLD_RUNNER_1_STUCK_CLOSED
 0000:000760BA       P2005_TGV__INTAKE_MANIFOLD_RUNNER_2_STUCK_OPEN
 0000:000760BB       P2007_TGV__INTAKE_MANIFOLD_RUNNER_2_STUCK_CLOSED
 0000:000760BE       P2229_BARO_PRESSURE_CIRCUIT_HIGH_INPUT
 0000:000760BF       P2228_BARO_PRESSURE_CIRCUIT_LOW_INPUT
 0000:000760C0       P2016_TGV__INTAKE_MANIFOLD_RUNNER_1_POS_SENSOR_LOW
 0000:000760C1       P2017_TGV__INTAKE_MANIFOLD_RUNNER_1_POS_SENSOR_HIGH
 0000:000760C2       P2021_TGV__INTAKE_MANIFOLD_RUNNER_2_POS_SENSOR_LOW
 0000:000760C3       P2022_TGV__INTAKE_MANIFOLD_RUNNER_2_POS_SENSOR_HIGH
 0000:000760C4       P2009_TGV__INTAKE_MANIFOLD_RUNNER_1_CIRCUIT_LOW
 0000:000760C5       P2012_TGV__INTAKE_MANIFOLD_RUNNER_2_CIRCUIT_LOW
 0000:000760C6       P2008_TGV__INTAKE_MANIFOLD_RUNNER_1_CIRCUIT_OPEN
 0000:000760C7       P2011_TGV__INTAKE_MANIFOLD_RUNNER_2_CIRCUIT_OPEN
 0000:000760C8       P2444_SECONDARY_AIR_PUMP_1_STUCK_ON_B1
 0000:000760CA       P0410_SECONDARY_AIR_PUMP_SYSTEM
 0000:000760CC       P2433_SECONDARY_AIR_PUMP_CIRCUIT_HIGH
 0000:000760CD       P2432_SECONDARY_AIR_PUMP_CIRCUIT_LOW
 0000:000760CE       P0413_SECONDARY_AIR_PUMP_A_OPEN
 0000:000760CF       P0418_SECONDARY_AIR_PUMP_RELAY_A
 0000:000760D0       P0140_REAR_O2_SENSOR_NO_ACTIVITY
 0000:000760D1       P0414_SECONDARY_AIR_PUMP_A_SHORTED
 0000:000760D2       P1418_SECONDARY_AIR_PUMP_CIRCUIT_SHORTED
 0000:000760D5       P1410_SECONDARY_AIR_PUMP_VALVE_STUCK_OPEN
 0000:000760D8       P2441_SECONDARY_AIR_PUMP_VALVE_1_STUCK_CLOSED
 0000:000760D9       P2440_SECONDARY_AIR_PUMP_VALVE_1_STUCK_OPEN
 0000:0007957E       Force_Pass_Readiness_Monitors
 0000:0007C458       aBBF
 0000:0007C8EE       nullsub_13
 0000:0007C8F2       nullsub_14
 0000:0007CC4C       sCelTrigger
 0000:0007CD64       hCelSignal
 0000:00081D22       aCOFFlF
 0000:00087204       Coolant_Temp_Sensor_Scaling_Y_Axis
 0000:00087274       Coolant_Temp_Sensor_Scaling
 0000:000872E4       Intake_Temp_Sensor_Scaling_Y_Axis
 0000:0008735C       Intake_Temp_Sensor_Scaling
 0000:000BF2A4       aMsr_rfcc1_00r1
 0000:000C0000       aA8dh100f
 0000:000C0250       Atmospheric_Pressure_Sensor_Scaling
 0000:000C028C       Manifold_Pressure_Sensor_Scaling
 0000:000C043C       aA_2
 0000:000C044E       aA_3
 0000:000C0665       Boost_Control_Disable_Delay_Fine_Correction
 0000:000C0678       TD_Activation_Thresholds_Target_Boost
 0000:000C0684       TD_Integral_Negative_Activation_Boost_Error
 0000:000C068C       TD_Integral_Positive_Activation_Boost_Error
 0000:000C0690       TD_Integral_Positive_Activation_Wastegate_Duty
 0000:000C069C       TD_Activation_Thresholds_RPM
 0000:000C06A4       TD_Integral_Cumulative_Range_WGDC_Correction
 0000:000C06C4       Boost_Control_Disable_Fine_Correction
 0000:000C06C8       Boost_Control_Disable_IAM
 0000:000C06D4       Target_Boost_Compensation_1st_Gear_Speed_Disable
 0000:000C06D8       Target_Boost_Compensation_1st_Gear
 0000:000C06E0       InitialMax_Wastegate_Duty_Compensation_ECT_Y_Axis
 0000:000C0720       TD_Proportional_Compensation_IAT_Y_Axis
 0000:000C0730       TD_Proportional_Compensation_IAT
 0000:000C0734       TD_Integral_Negative_Compensation_IAT_Y_Axis
 0000:000C0744       TD_Integral_Negative_Compensation_IAT
 0000:000C0748       TD_Integral_Positive_Compensation_IAT_Y_Axis
 0000:000C0758       TD_Integral_Positive_Compensation_IAT
 0000:000C0768       InitialMax_Wastegate_Duty_Compensation_IAT_Y_Axis
 0000:000C07A8       InitialMax_Wastegate_Duty_Compensation_IAT
 0000:000C0868       InitialMax_Wastegate_Duty_Compensation_ECT
 0000:000C0888       Target_Boost_Compensation_ECT
 0000:000C08AC       Target_Boost_Compensation_Atm_Pressure_Multiplier_Offset_Y_Axis
 0000:000C08BC       Target_Boost_Compensation_Atm_Pressure_Multiplier_Offset
 0000:000C08C0       Turbo_Dynamics_Proportional_Y_Axis
 0000:000C08E4       Turbo_Dynamics_Proportional
 0000:000C08F8       Turbo_Dynamics_Integral_Negative_Y_Axis
 0000:000C091C       Turbo_Dynamics_Integral_Negative
 0000:000C0930       Turbo_Dynamics_Integral_Positive_Y_Axis
 0000:000C0954       Turbo_Dynamics_Integral_Positive
 0000:000C0980       Target_Boost_Compensation_Atm_Pressure_Multiplier_Y_Axis
 0000:000C0990       Target_Boost_Compensation_Atm_Pressure_Multiplier
 0000:000C0A24       InitialMax_Wastegate_Duty_Compensation_Atm_Pressure_X_Axis
 0000:000C0A3C       InitialMax_Wastegate_Duty_Compensation_Atm_Pressure_Y_Axis
 0000:000C0A4C       InitialMax_Wastegate_Duty_Compensation_Atm_Pressure
 0000:000C0AAC       Initial_Wastegate_Duty_X_Axis
 0000:000C0ACC       Initial_Wastegate_Duty_Y_Axis
 0000:000C0AEC       Initial_Wastegate_Duty
 0000:000C0B84       Max_Wastegate_Duty_X_Axis
 0000:000C0BA4       Max_Wastegate_Duty_Y_Axis
 0000:000C0BC4       Max_Wastegate_Duty
 0000:000C0C8C       Target_Boost_X_Axis
 0000:000C0CAC       Target_Boost_Y_Axis
 0000:000C0CD8       Target_Boost
 0000:000C2370       aA1?Lla?AkA
 0000:000C2384       a@a
 0000:000C2440       MAF_Limit_Maximum
 0000:000C2460       dLoadSmoothingA
 0000:000C2464       dLoadSmoothingB
 0000:000C2470       dLoadSmoothingFinal
 0000:000C2684       Gear_Determination_Thresholds
 0000:000C2798       Speed_Limiting_Throttle
 0000:000C2954       Front_Oxygen_Sensor_Compensation_Atm_Pressure_Y_Axis
 0000:000C2964       Front_Oxygen_Sensor_Compensation_Atm_Pressure
 0000:000C2A78       aEMyuxQfOWfa
 0000:000C2DA8       MAF_Compensation_IAT_X_Axis
 0000:000C2DBC       MAF_Compensation_IAT_Y_Axis
 0000:000C2DDC       MAF_Compensation_IAT
 0000:000C2E04       Engine_Load_Compensation_MP_X_Axis
 0000:000C2E30       Engine_Load_Compensation_MP_Y_Axis
 0000:000C2E6C       Engine_Load_Compensation_MP
 0000:000C3432       Manifold_Pressure_Sensor_CEL_Delays
 0000:000C3A10       aAi33axqiazAfQc
 0000:000C4858       aUPTJEAAiMshAI
 0000:000C4890       aD
 0000:000C5008       aLLLLLLLL
 0000:000C501C       aLLLLLLLL_0
 0000:000C5030       aLLLLLLLL_1
 0000:000C5044       aLLLLLLLL_2
 0000:000C7272       Tipin_Enrichment_Disable_Applied_Counter_Threshold
 0000:000C7273       Tipin_Enrichment_Applied_Counter_Reset
 0000:000C7274       Tipin_Throttle_Cumulative_Reset
 0000:000C72A8       CL_Delay_Engine_Load_Counter_Threshold
 0000:000C72AA       CL_to_OL_Delay
 0000:000C73B0       Injector_Flow_Scaling
 0000:000C73B4       Min_Primary_Base_Enrich_3_Decay_Multiplier
 0000:000C73CC       aLLEAUPGGG8qi?a
 0000:000C7534       a?yssL?fff?@
 0000:000C7548       a?333?s33A
 0000:000C7554       a@a_3
 0000:000C7558       aB_1
 0000:000C755C       a?yss?fff?a
 0000:000C7630       AF_Learning_1_Limits
 0000:000C7640       AF_Learning_1_Airflow_Ranges
 0000:000C765C       Primary_Open_Loop_Fuel_Map_Switch_IAM
 0000:000C7660       Minimum_Active_Primary_Open_Loop_Enrichment
 0000:000C7664       CL_to_OL_Transition_with_Delay_Throttle_Hysteresis
 0000:000C7668       CL_to_OL_Transition_with_Delay_BPW_Hysteresis
 0000:000C766C       CL_Delay_Minimum_ECT
 0000:000C7670       CL_Delay_Maximum_Engine_Speed_Per_Gear
 0000:000C76C0       CL_Delay_Maximum_Engine_Speed_Neutral
 0000:000C76E0       CL_Delay_Maximum_Throttle
 0000:000C76E4       CL_Delay_Maximum_Vehicle_Speed
 0000:000C76F4       CL_Delay_Maximum_Engine_Load
 0000:000C7824       Minimum_Tipin_Enrichment_Activation_Throttle
 0000:000C7828       Tipin_Enrichment_Disable_Throttle_Cumulative_Threshold
 0000:000C782C       Minimum_Tipin_Enrichment_Activation
 0000:000C7874       Rev_Limit_Fuel_Cut
 0000:000C787C       Rev_Limit_Fuel_Resume_Boost
 0000:000C78C4       Speed_Limiting_Enable_Fuel_Cut
 0000:000C78D0       Speed_Limiting_Disable_Fuel_Cut
 0000:000C7A0C       Min_Primary_Base_Enrich_3_Decay_Delay_B_Y_Axis
 0000:000C7AE0       Cranking_Fuel_IPW_Compensation_Accelerator_Y_Axis
 0000:000C7AF8       Cranking_Fuel_IPW_Compensation_Accelerator
 0000:000C7B0E       Min_Primary_Base_Enrich_3_Decay_Delay_A
 0000:000C7B1E       Min_Primary_Base_Enrich_3_Decay_Delay_B
 0000:000C7D04       Primary_Open_Loop_Fueling_Compensation_Timing_Compensation_Y_Axis
 0000:000C7D1C       Primary_Open_Loop_Fueling_Compensation_Timing_Compensation
 0000:000C7D24       CL_to_OL_Transition_with_Delay_Throttle_Y_Axis
 0000:000C7D64       CL_to_OL_Transition_with_Delay_Throttle
 0000:000C7D74       Minimum_Primary_Open_Loop_Enrichment_Throttle_Y_Axis
 0000:000C7D8C       Minimum_Primary_Open_Loop_Enrichment_Throttle
 0000:000C7DEC       Tipin_Enrichment_Compensation_Boost_Error_Y_Axis
 0000:000C7E10       Tipin_Enrichment_Compensation_Boost_Error
 0000:000C7E9C       aEeeeeeee333mfa
 0000:000C7F7A       Cranking_Fuel_Injector_Pulse_Width_A_ECT
 0000:000C7F9A       Cranking_Fuel_Injector_Pulse_Width_B_ECT
 0000:000C7FBA       Cranking_Fuel_Injector_Pulse_Width_C_ECT
 0000:000C7FDA       Cranking_Fuel_Injector_Pulse_Width_D_ECT
 0000:000C7FFA       Cranking_Fuel_Injector_Pulse_Width_E_ECT
 0000:000C801A       Cranking_Fuel_Injector_Pulse_Width_F_ECT
 0000:000C803A       Min_Primary_Base_Enrich_3_Initial_Start_1A
 0000:000C805A       Min_Primary_Base_Enrich_3_Initial_Start_1B
 0000:000C807A       Min_Primary_Base_Enrich_3_Initial_Start_2A
 0000:000C809A       Min_Primary_Base_Enrich_3_Initial_Start_2B
 0000:000C80BA       Min_Primary_Base_Enrich_2_Initial_Start_1A
 0000:000C80DA       Min_Primary_Base_Enrich_2_Initial_Start_2A
 0000:000C80FA       Min_Primary_Base_Enrich_2_Initial_Start_1B
 0000:000C811A       Min_Primary_Base_Enrich_2_Initial_Start_2B
 0000:000C813A       Min_Primary_Base_Enrich_2_Decay_Step_1
 0000:000C815A       Min_Primary_Base_Enrich_2_Decay_Step_2
 0000:000C848C       aJfjfjfjfjfjfjf
 0000:000C84AE       aA_4
 0000:000C84B0       aA_5
 0000:000C84B2       aA_6
 0000:000C84B4       aA_7
 0000:000C84B6       aA_8
 0000:000C84B8       aA_9
 0000:000C84BA       aA_10
 0000:000C84BC       aA_11
 0000:000C84BE       aA_12
 0000:000C84C0       aA_13
 0000:000C84C2       aA_14
 0000:000C84C4       aA_15
 0000:000C84C6       aA_16
 0000:000C84C8       aA_17
 0000:000C84CA       aA_18
 0000:000C84CC       aSSSSSSSSSSSSSS
 0000:000C85B8       CL_to_OL_Transition_with_Delay_Base_Pulse_Width_Y_Axis
 0000:000C85F8       CL_to_OL_Transition_with_Delay_Base_Pulse_Width
 0000:000C8618       CL_to_OL_Transition_Counter_Step_Value_MAF_Y_Axis
 0000:000C8640       CL_to_OL_Transition_Counter_Step_Value_MAF
 0000:000C86CC       Primary_Open_Loop_Fueling_Compensation_ECT
 0000:000C86D4       a1KDzgoqYA
 0000:000C86E4       aA_19
 0000:000C86E6       aA_20
 0000:000C86E8       aA_21
 0000:000C86EA       aA_22
 0000:000C86F0       aC_2
 0000:000C8A8C       Throttle_Tipin_Enrichment_Y_Axis
 0000:000C8AD4       Throttle_Tipin_Enrichment
 0000:000C8AF8       Tipin_Enrichment_Compensation_ECT
 0000:000C8B68       Boost_Limit_Fuel_Cut_Y_Axis
 0000:000C8B80       Boost_Limit_Fuel_Cut
 0000:000C8C24       Injector_Latency_Y_Axis
 0000:000C8C38       Injector_Latency
 0000:000C8DAC       Cranking_Fuel_IPW_Compensation_A_RPM_X_Axis
 0000:000C8DC0       Cranking_Fuel_IPW_Compensation_A_RPM_Y_Axis
 0000:000C8DDC       Cranking_Fuel_IPW_Compensation_A_RPM
 0000:000C8E14       Cranking_Fuel_IPW_Compensation_B_RPM_X_Axis
 0000:000C8E28       Cranking_Fuel_IPW_Compensation_B_RPM_Y_Axis
 0000:000C8E44       Cranking_Fuel_IPW_Compensation_B_RPM
 0000:000C8ED8       Min_Primary_Base_Enrichment_1_A_Y_Axis
 0000:000C8EF8       Min_Primary_Base_Enrichment_1_A
 0000:000C8F78       Min_Primary_Base_Enrichment_1_B_Y_Axis
 0000:000C8F98       Min_Primary_Base_Enrichment_1_B
 0000:000C9018       Min_Primary_Base_Enrichment_1_NonPrimary_OL_X_Axis
 0000:000C9040       Min_Primary_Base_Enrichment_1_NonPrimary_OL_Y_Axis
 0000:000C904C       Min_Primary_Base_Enrichment_1_NonPrimary_OL
 0000:000C9080       Primary_Open_Loop_Fueling_X_Axis
 0000:000C90BC       Primary_Open_Loop_Fueling_Y_Axis
 0000:000C9104       Primary_Open_Loop_Fueling
 0000:000C9228       Primary_Open_Loop_Fueling_Failsafe_X_Axis
 0000:000C9264       Primary_Open_Loop_Fueling_Failsafe_Y_Axis
 0000:000C92AC       Primary_Open_Loop_Fueling_Failsafe
 0000:000C93BC       Per_Injector_Pulse_Width_Compensation_A_X_Axis
 0000:000C9400       Per_Injector_Pulse_Width_Compensation_A_Y_Axis
 0000:000C943C       Per_Injector_Pulse_Width_Compensation_A
 0000:000C953C       Per_Injector_Pulse_Width_Compensation_B_X_Axis
 0000:000C9580       Per_Injector_Pulse_Width_Compensation_B_Y_Axis
 0000:000C95BC       Per_Injector_Pulse_Width_Compensation_B
 0000:000C96BC       Per_Injector_Pulse_Width_Compensation_C_X_Axis
 0000:000C9700       Per_Injector_Pulse_Width_Compensation_C_Y_Axis
 0000:000C973C       Per_Injector_Pulse_Width_Compensation_C
 0000:000C983C       Per_Injector_Pulse_Width_Compensation_D_X_Axis
 0000:000C9880       Per_Injector_Pulse_Width_Compensation_D_Y_Axis
 0000:000C98BC       Per_Injector_Pulse_Width_Compensation_D
 0000:000C9BEC       CL_Fueling_Target_Compensation_A_ECT_Y_Axis
 0000:000C9BF8       CL_Fueling_Target_Compensation_A_ECT
 0000:000C9CA0       CL_Fueling_Target_Compensation_B_ECT_Y_Axis
 0000:000C9CAC       CL_Fueling_Target_Compensation_B_ECT
 0000:000C9CBC       aA_23
 0000:000C9CBE       aA_24
 0000:000C9CC0       aA_25
 0000:000C9CC2       aA_26
 0000:000C9CC4       aAdadadadjfjfjf
 0000:000C9CE0       aA_27
 0000:000C9CE2       aA_28
 0000:000C9CF8       aJfjfjfsSMAdada
 0000:000C9D24       CL_Fueling_Target_Compensation_Load_X_Axis
 0000:000C9D50       CL_Fueling_Target_Compensation_Load_Y_Axis
 0000:000C9D78       CL_Fueling_Target_Compensation_Load
 0000:000CA63C       a33333333
 0000:000CA678       Feedback_Correction_Negative_Advance_Delay
 0000:000CA686       Fine_Correction_Advance_Delay
 0000:000CA6A0       Timing_Comp_Maximum_RPM_Per_Cylinder
 0000:000CA6A4       Timing_Comp_Minimum_Load_Per_Cylinder
 0000:000CA6A8       Timing_Comp_Minimum_Coolant_Temp_Per_Cylinder
 0000:000CA6AC       Feedback_Correction_Minimum_Load
 0000:000CA6B4       Feedback_Correction_Range_RPM
 0000:000CA6CC       Feedback_Correction_Retard_Limit
 0000:000CA6D0       Feedback_Correction_Retard_Value
 0000:000CA6D8       Feedback_Correction_Negative_Advance_Value
 0000:000CA6E0       Extended_Feedback_Correction_High_RPM_Compensation
 0000:000CA6EC       Fine_Correction_Minimum_RPM
 0000:000CA77C       Rough_Correction_Range_RPM
 0000:000CA78C       Rough_Correction_Range_Load
 0000:000CA79C       Rough_Correction_Minimum_KC_Advance_Map_Value
 0000:000CA7A0       Advance_Multiplier_Initial
 0000:000CA7A4       Advance_Multiplier_Step_Value
 0000:000CA7CC       Fine_Correction_Columns_Load
 0000:000CA7DC       Fine_Correction_Rows_RPM
 0000:000CA7FC       Fine_Correction_Advance_Limit
 0000:000CA800       Fine_Correction_Advance_Value
 0000:000CA804       Fine_Correction_Retard_Limit
 0000:000CA808       Fine_Correction_Retard_Value
 0000:000CA80C       Fine_Correction_Maximum_RPM
 0000:000CA814       Fine_Correction_Range_Load
 0000:000CA860       a?333?333?l?333
 0000:000CA8C4       Base_Timing_Idle_Minimum_Vehicle_Speed_Enable
 0000:000CAA04       Timing_Compensation_B_IAT_Max_Additive
 0000:000CAA20       Timing_Compensation_B_IAT_IAM_Activation
 0000:000CAA48       Timing_Compensation_ECT_Y_Axis
 0000:000CAAC8       Rough_Correction_Learning_Delay_Increasing_Y_Axis
 0000:000CAAF0       Rough_Correction_Learning_Delay_Increasing
 0000:000CAB80       Base_Timing_Idle_Minimum_Y_Axis
 0000:000CABA4       Base_Timing_Idle_Minimum
 0000:000CABAD       Base_Timing_Idle_A_InGear
 0000:000CABBD       Base_Timing_Idle_B_InGear
 0000:000CABCD       Base_Timing_Idle_A_Neutral
 0000:000CABDD       Base_Timing_Idle_B_Neutral
 0000:000CAC0D       Timing_Compensation_ECT
 0000:000CAC20       Timing_Compensation_A_IAT_Y_Axis
 0000:000CAC60       Timing_Compensation_A_IAT
 0000:000CAE8C       aGggggggg
 0000:000CAF2C       a99999999
 0000:000CAF7C       aUuggg999
 0000:000CB044       Timing_Compensation_B_IAT_Y_Axis
 0000:000CB084       Timing_Compensation_B_IAT
 0000:000CB3A4       Timing_Compensation_Per_Cylinder_A_X_Axis
 0000:000CB3DC       Timing_Compensation_Per_Cylinder_A_Y_Axis
 0000:000CB3EC       Timing_Compensation_Per_Cylinder_A
 0000:000CB424       Timing_Compensation_Per_Cylinder_B_X_Axis
 0000:000CB45C       Timing_Compensation_Per_Cylinder_B_Y_Axis
 0000:000CB46C       Timing_Compensation_Per_Cylinder_B
 0000:000CB4A4       Timing_Compensation_Per_Cylinder_C_X_Axis
 0000:000CB4DC       Timing_Compensation_Per_Cylinder_C_Y_Axis
 0000:000CB4EC       Timing_Compensation_Per_Cylinder_C
 0000:000CB524       Timing_Compensation_Per_Cylinder_D_X_Axis
 0000:000CB55C       Timing_Compensation_Per_Cylinder_D_Y_Axis
 0000:000CB56C       Timing_Compensation_Per_Cylinder_D
 0000:000CB5D8       Knock_Correction_Advance_Max_X_Axis
 0000:000CB614       Knock_Correction_Advance_Max_Y_Axis
 0000:000CB65C       Knock_Correction_Advance_Max
 0000:000CB794       Base_Timing_X_Axis
 0000:000CB7D0       Base_Timing_Y_Axis
 0000:000CB818       Base_Timing
 0000:000CB928       Timing_Compensation_A_IAT_Activation_X_Axis
 0000:000CB948       Timing_Compensation_A_IAT_Activation_Y_Axis
 0000:000CB968       Timing_Compensation_A_IAT_Activation
 0000:000CB978       aAaaaaaaaaaaa_0
 0000:000CBB78       Timing_Compensation_MRP_X_Axis
 0000:000CBB8C       Timing_Compensation_MRP_Y_Axis
 0000:000CBB98       Timing_Compensation_MRP
 0000:000CBBD4       aBPbPafpAfpA
 0000:000CBBE8       aA@
 0000:000CC068       aP
 0000:000CC07C       a@333
 0000:000CC084       aBa
 0000:000CC088       aL
 0000:000CC094       aBh
 0000:000CC098       aB
 0000:000CC09C       aC
 0000:000CC0A0       aA
 0000:000CC0A4       a@a_0
 0000:000CC0AC       a@@_0
 0000:000CC154       Idle_Speed_Target_C_Y_Axis
 0000:000CC530       Idle_Speed_Target_A
 0000:000CC570       Idle_Speed_Target_B
 0000:000CC5B0       Idle_Speed_Target_C
 0000:000CCC5C       aAjffbFfbyssbjf
 0000:000CD944       Manifold_Pressure_Sensor_Limits_CEL
 0000:000CDCDC       MAF_Sensor_Scaling_Y_Axis
 0000:000CDD9C       MAF_Sensor_Scaling
 0000:000CDE5C       Front_Oxygen_Sensor_Scaling_Y_Axis
 0000:000CDE90       Front_Oxygen_Sensor_Scaling
 0000:000CDF18       a@fff@fff@fff@c
 0000:000CDF2E       a33@fff@iss@iss
 0000:000CE3E0       aSssSss?fff?
 0000:000CE610       Radiator_Fan_Modes_A_ECT
 0000:000CE620       Radiator_Fan_Modes_B_ECT
 0000:000CE630       Radiator_Fan_Modes_Veh_Speed
 0000:000CEBB4       dEcuId
 0000:000CEF8C       a?La33bs33b
 0000:000CEFA0       aA_0
 0000:000CEFA4       a@a_1
 0000:000CEFA8       aA_1
 0000:000CEFAC       a@a_2
 0000:000CEFB0       a?a
 0000:000CEFB4       a?a_0
 0000:000CEFB8       a?
 0000:000CEFBC       a?_0
 0000:000CEFC0       a?a_1
 0000:000CEFC4       a?a_2
 0000:000CF0D0       aAaaaaaaaaaaaaa
 0000:000CF0E2       aA_29
 0000:000CF0E4       aA_30
 0000:000CF0E6       aA_31
 0000:000CF0E8       aA_32
 0000:000CF0EA       aA_33
 0000:000CF0EC       aA_34
 0000:000CF0EE       aA_35
 0000:000CF0F0       aA_36
 0000:000CF0F2       aA_37
 0000:000CF0F4       aA_38
 0000:000CF0F6       aA_39
 0000:000CF0F8       aA_40
 0000:000CF0FA       aA_41
 0000:000CF0FC       aA_42
 0000:000CF0FE       aA_43
 0000:000CF100       aA_44
 0000:000CF102       aA_45
 0000:000CF104       aA_46
 0000:000CF106       aA_47
 0000:000CF108       aA_48
 0000:000CF10A       aA_49
 0000:000CF10C       aA_50
 0000:000CF10E       aA_51
 0000:000CF110       aA_52
 0000:000CF112       aA_53
 0000:000CF114       aA_54
 0000:000CF116       aA_55
 0000:000CF118       aA_56
 0000:000CF11A       aA_57
 0000:000CF11C       aA_58
 0000:000CF11E       aA_59
 0000:000CF7B8       Intake_Cam_Advance_Angle_AVCS_X_Axis
 0000:000CF7F4       Intake_Cam_Advance_Angle_AVCS_Y_Axis
 0000:000CF834       Intake_Cam_Advance_Angle_AVCS
 0000:000CF840       aLLLLLLLLL
 0000:000DB808       aAtqia733atqia7
 0000:000DB81C       a@@
 0000:000DB824       aB4
 0000:000DBC50       Target_Throttle_Plate_Position_A_Requested_Torque_X_Axis
 0000:000DBC94       Target_Throttle_Plate_Position_A_Requested_Torque_Y_Axis
 0000:000DBCD4       Target_Throttle_Plate_Position_A_Requested_Torque
 0000:000DBEF4       Target_Throttle_Plate_Position_B_Requested_Torque_X_Axis
 0000:000DBF38       Target_Throttle_Plate_Position_B_Requested_Torque_Y_Axis
 0000:000DBF78       Target_Throttle_Plate_Position_B_Requested_Torque
 0000:000DC198       Requested_Torque_Accelerator_Pedal_X_Axis
 0000:000DC1D4       Requested_Torque_Accelerator_Pedal_Y_Axis
 0000:000DC218       Requested_Torque_Accelerator_Pedal
 0000:000E1000       dRomHoleStart
 0000:000FFB80       Checksum_Fix
 0000:FFFF28B0       E_AF_Learning_1_A_StoredExt_E44
 0000:FFFF28B8       E_AF_Learning_1_B_StoredExt_E45
 0000:FFFF28C0       E_AF_Learning_1_C_StoredExt_E46
 0000:FFFF28C8       E_AF_Learning_1_D_StoredExt_E47
 0000:FFFF2914       E_IAM_4byteExt_E31
 0000:FFFF5BFE       pMafSensorVoltage
 0000:FFFF5C9C       pIntakeAirTemp
 0000:FFFF5CAC       pCoolantTemp
 0000:FFFF5CD0       pMassAirFlow
 0000:FFFF5CD4       pAtmoPress
 0000:FFFF5F08       pAf1Res
 0000:FFFF6400       E_Boost_ErrorExt_E35
 0000:FFFF6404       E_Target_Boost_4byteExt_E36
 0000:FFFF6408       E_Turbo_Dynamics_Proportional_4byteExt_E37
 0000:FFFF640C       E_Turbo_Dynamics_Integral_4byteExt_E34
 0000:FFFF6428       E_Primary_Wastegate_Duty_MaximumExt_4byteExt__E77
 0000:FFFF6508       pCruiseFlags
 0000:FFFF66F4       E_Manifold_Relative_Sea_Level_Pressure_4byteExt_E52
 0000:FFFF66F8       E_Manifold_Relative_Pressure_4byteExt_E113
 0000:FFFF6798       E_Throttle_Plate_Opening_Angle_4byteExt_E38
 0000:FFFF67A0       E_Tipin_ThrottleExt_E54
 0000:FFFF689C       E_Engine_Load_4ByteExt_E32
 0000:FFFF69FC       E_AF_Sensor_1_4byteExt_E91
 0000:FFFF6A45       pClutchFlags
 0000:FFFF6A64       pVehicleSpeed
 0000:FFFF6A74       pEngineSpeed
 0000:FFFF6B7D       E_Gear_CalculatedExt_E59
 0000:FFFF6B8C       E_Primary_Wastegate_Duty_MaximumExt_2byteExtExt_E78
 0000:FFFF6B8E       E_Turbo_Dynamics_Integral_2byteExtExt_E79
 0000:FFFF6B90       E_Turbo_Dynamics_Proportional_2byteExtExt_E80
 0000:FFFF6B94       E_AF_Correction_1_2byteExtExt_E82
 0000:FFFF6B98       E_AF_Learning_1_2byteExtExt_E83
 0000:FFFF6B9A       E_Primary_Open_Loop_Map_Enrichment_2byteExtExt_E85
 0000:FFFF6B9E       E_Final_Fueling_Base_2byteExt_E124
 0000:FFFF6BA0       E_Engine_Load_2byteExtExt_E87
 0000:FFFF6BAE       E_Manifold_Relative_Sea_Level_Pressure_2byteExtExt_E89
 0000:FFFF6BB4       E_Target_Boost_2byteExtExt_E90
 0000:FFFF6BB6       E_AF_Sensor_1_2byteExtExt_E92
 0000:FFFF6BBC       E_Closed_Loop_Fueling_Target_2byteExt_E122
 0000:FFFF6BBE       E_Throttle_Plate_Opening_Angle_2byteExtExt_E93
 0000:FFFF6BC8       E_Feedback_Knock_Correction_1byteExtExt_E94
 0000:FFFF6BCB       E_Fine_Learning_Knock_Correction_1byteExtExt_E95
 0000:FFFF6BCD       E_IAM_1byteExtExt_E96
 0000:FFFF6DBC       E_Final_Fueling_Base_4byteExt_E123
 0000:FFFF6DEC       E_Primary_Enrichment_Final_4byteExt_E115
 0000:FFFF6E64       E_AF_Correction_1_4byteExt_E81
 0000:FFFF6EAC       E_Closed_Loop_Fueling_Target_4byteExt_E121
 0000:FFFF7020       E_AF_Learning_1_4byteExt_E48
 0000:FFFF7029       E_AF_Learning_Airflow_Range_CurrentExt_E61
 0000:FFFF710C       E_Primary_Open_Loop_Map_Enrichment_4byteExt_E84
 0000:FFFF7248       E_Tipin_Enrichment_Last_CalculatedExt_E55
 0000:FFFF72A0       pFlagsRevLim
 0000:FFFF731C       E_Fuel_Injector_1_Pulse_Width_4byteExt_E60
 0000:FFFF7330       E_Fuel_Injector_1_Latency_4byteExt_E50
 0000:FFFF7454       E_Ignition_Base_TimingExt_E53
 0000:FFFF7578       E_Knock_SumExt_E114
 0000:FFFF75A0       E_Feedback_Knock_Correction_4byteExt_E39
 0000:FFFF75E4       E_Knock_Correction_Advance_IAM_onlyExt_E40
 0000:FFFF75FC       E_Fine_Learning_Knock_Correction_4byteExt_E41
 0000:FFFF7602       E_Fine_Learning_Table_OffsetExt_E58
 0000:FFFF788C       E_Target_Throttle_Plate_PositionExt_E57
 0000:FFFF7894       E_Requested_TorqueExt_E56
 0000:FFFF7A58       E_Idle_Speed_Map_SelectionExt_E49
 0000:FFFF8088       E_Map_Ratio_PrimaryExt_E42
 0000:FFFF8CC9       E_CLOL_FuelingExt_E33
 0000:FFFF8D3E       pCelSignalOem
 0000:FFFF9100       pRamHoleStart
 0000:FFFFBF70       pRamHoleEnd
 0000:FFFFBFBB       pMemoryResetLimit
