
 Start         Length     Name                   Class
 0000:00000000 000100000H ROM                    CODE
 0000:00000000 00000BFFFH RAM                    


  Address         Publics by Value

 0000:00000000       off_0
 0000:00002000       dCalId
 0000:00002038       aPf_23vh4t_80mV
 0000:0000209C       sPull2DFloat
 0000:00002110       sPull3DFloat
 0000:00004B5E       nullsub_5
 0000:00004B62       nullsub_1
 0000:00004B66       nullsub_6
 0000:00004D4A       nullsub_2
 0000:00004D8C       nullsub_7
 0000:00004DA2       nullsub_3
 0000:00004DA6       nullsub_8
 0000:00004DC2       nullsub_9
 0000:00004EAA       nullsub_4
 0000:00004EAE       nullsub_10
 0000:00004F20       nullsub_11
 0000:0000530E       aFrcatqPmftoFkc
 0000:00006298       nullsub_12
 0000:00008098       sMafCalc
 0000:000080F4       hMafCalc
 0000:0000D9A8       hMemoryReset
 0000:0000FA8C       sMemoryReset
 0000:00011E18       hMemoryResetLimit
 0000:00012168       aOJCJC
 0000:000141E0       hWgdc
 0000:00014340       aCOScNcRb
 0000:00014351       aRc
 0000:00014357       aPb
 0000:0001435D       aPc
 0000:00014363       aOb
 0000:00014369       aOc
 0000:0001436F       aNb
 0000:00014375       aNc
 0000:0001437B       aMb
 0000:00014381       aMc
 0000:00014387       aLb
 0000:0001438D       aLc
 0000:00014393       aKb
 0000:00014399       aKc
 0000:0001439F       aIb
 0000:000143A5       aIc
 0000:000143AB       aIb_0
 0000:000143B1       aIc_0
 0000:000143B7       aZb
 0000:000143BD       aZc
 0000:000143C3       aJb
 0000:000143C9       aJc
 0000:000143CF       aEb
 0000:000143D5       aEc
 0000:000143DB       aDb
 0000:000143E1       aDc
 0000:000143E7       aGb
 0000:000143ED       aGc
 0000:000143F3       aVb
 0000:000143F9       aVc
 0000:000143FF       aBb
 0000:00014405       aBc
 0000:0001440B       aAb
 0000:00014411       aAc
 0000:000145AC       hRevLimDelete
 0000:00016948       sWgdc
 0000:000170BC       sWgdc0
 0000:00017498       Max_Wastegate_Duty_Limit_PostCompensation
 0000:00017738       sCoastSwGet
 0000:0001773C       sResumeSwGet
 0000:00017744       sBrakeSwGet
 0000:00018202       aCJCJo
 0000:0001B378       sLoadCalcs
 0000:0001B83C       Engine_Load_Limit_Maximum
 0000:0001D7C8       Front_Oxygen_Sensor_Rich_Limit
 0000:0001E7BC       sClutchSwGet
 0000:0001E7C0       ClutchBitMask_0x80
 0000:00022908       aCuJC
 0000:0002C8A8       sRevLimStart
 0000:0002C8BC       RevLimBitMask_0x80
 0000:0002C8DE       sRevLimEnd
 0000:000358B8       aCOBcF
 0000:00039C80       aOFm@A@B
 0000:00045B5C       aDEcp0dqaadrabd
 0000:00045DC8       SsmGet_Engine_Load_Relative_P1
 0000:00045DD6       SsmGet_Coolant_Temperature_P2
 0000:00045DE4       SsmGet_AF_Correction_1_P3
 0000:00045E00       SsmGet_AF_Learning_1_P4
 0000:00045E10       SsmGet_Learned_Ignition_Timing_Correction_P153
 0000:00045E16       SsmGet_Manifold_Absolute_Pressure_P7
 0000:00045E24       SsmGet_Engine_Speed_P8
 0000:00045E52       SsmGet_Vehicle_Speed_P9
 0000:00045E5E       SsmGet_Ignition_Total_Timing_P10
 0000:00045E6E       SsmGet_Intake_Air_Temperature_P11
 0000:00045E7C       SsmGet_Mass_Airflow_P12
 0000:00045EAA       SsmGet_Throttle_Opening_Angle_P13
 0000:00045EB8       SsmGet_Rear_O2_Sensor_P15
 0000:00045EE6       SsmGet_Battery_Voltage_P17
 0000:00045EF4       SsmGet_Mass_Airflow_Sensor_Voltage_P18
 0000:00045FCC       SsmGet_Throttle_Sensor_Voltage_P19
 0000:00045FF0       SsmGet_Fuel_Injector_1_Pulse_Width_P21
 0000:00046004       SsmGet_Knock_Correction_Advance_P23
 0000:00046014       SsmGet_Atmospheric_Pressure_P24
 0000:00046022       SsmGet_Manifold_Relative_Pressure_P25
 0000:00046040       SsmGet_Fuel_Tank_Pressure_P27
 0000:0004604E       SsmGet_Accelerator_Pedal_Angle_P30
 0000:0004605C       SsmGet_Fuel_Temperature_P31
 0000:00046068       SsmGet_Fuel_Level_P35
 0000:00046076       SsmGet_Primary_Wastegate_Duty_Cycle_P36
 0000:00046084       SsmGet_CPC_Valve_Duty_Ratio_P38
 0000:0004609C       SsmGet_Tumble_Valve_Position_Sensor_Right_P39
 0000:000460C0       SsmGet_Tumble_Valve_Position_Sensor_Left_P40
 0000:000460E4       SsmGet_Idle_Speed_Control_Valve_Duty_Ratio_P41
 0000:000460F6       SsmGet_Alternator_Duty_P46
 0000:00046102       SsmGet_Fuel_Pump_Duty_P47
 0000:00046110       SsmGet_Intake_VVT_Advance_Angle_Right_P48
 0000:0004611E       SsmGet_Intake_VVT_Advance_Angle_Left_P49
 0000:0004612C       SsmGet_Intake_OCV_Duty_Right_P50
 0000:0004613A       SsmGet_Intake_OCV_Duty_Left_P51
 0000:00046148       SsmGet_Intake_OCV_Current_Right_P52
 0000:00046156       SsmGet_Intake_OCV_Current_Left_P53
 0000:00046164       SsmGet_AF_Sensor_1_Current_P54
 0000:00046174       SsmGet_AF_Sensor_1_Resistance_P56
 0000:00046180       SsmGet_AF_Sensor_1_P58
 0000:00046198       SsmGet_Switches_x_1_2_3_x_69_70_71
 0000:00046300       SsmGet_Switches_4_5_x_6_7_8_9_x
 0000:000463D8       SsmGet_Switches_10_11_12_13_14_15_16_17
 0000:0004648A       SsmGet_Switches_18_19_20_21_22_23_24_25
 0000:000465F2       SsmGet_Switches_26_27_28_29_30_31_32_33
 0000:000466A4       SsmGet_Switches_34_35_36_37_38_39_40_41
 0000:00046762       SsmGet_Switches_42_43_44_45_46_47_48_49
 0000:0004677A       SsmGet_Switches_72_73_74_75_50_51_52_53
 0000:00046866       SsmGet_Switches_54_55_56_57_58_59_60_61
 0000:0004689E       SsmGet_Switches_x_x_x_x_x_x_82_x
 0000:00046906       SsmGet_Switches_108_x_x_x_x_x_x_x
 0000:000469E4       SsmGet_Roughness_Monitor_Cylinder_1_P63
 0000:000469EA       SsmGet_Roughness_Monitor_Cylinder_2_P64
 0000:000469F0       SsmGet_AF_Correction_3_32bit_ECU_P89
 0000:00046A00       SsmGet_AF_Learning_3_P66
 0000:00046AA2       SsmGet_Switches_148_149_x_150_151_152_153_154
 0000:00046BD0       SsmGet_Roughness_Monitor_Cylinder_3_P69
 0000:00046BD6       SsmGet_Roughness_Monitor_Cylinder_4_P70
 0000:00046E84       SsmGet_Throttle_Motor_Duty_P71
 0000:00046E94       SsmGet_Throttle_Motor_Voltage_P72
 0000:00046EA2       SsmGet_Sub_Throttle_Sensor_P73
 0000:00046EC6       SsmGet_Main_Throttle_Sensor_P74
 0000:00046EEA       SsmGet_Sub_Accelerator_Sensor_P75
 0000:00046F0E       SsmGet_Main_Accelerator_Sensor_P76
 0000:00046F32       SsmGet_Exhaust_Gas_Temperature_P79
 0000:00046F40       SsmGet_Cold_Start_Injector_Air_Pump_P80
 0000:00046F4E       SsmGet_Memorised_Cruise_Speed_P82
 0000:00046F5E       SsmGet_Fuel_Level_Sensor_Resistance_P119
 0000:00046F70       SsmGet_Estimated_odometer_P120
 0000:00046F92       SsmGet_Exhaust_VVT_Advance_Angle_Right_P83
 0000:00046F9E       SsmGet_Exhaust_VVT_Advance_Angle_Left_P84
 0000:00046FAA       SsmGet_Exhaust_OCV_Duty_Right_P85
 0000:00046FBC       SsmGet_Exhaust_OCV_Duty_Left_P86
 0000:00046FCE       SsmGet_Exhaust_OCV_Current_Right_P87
 0000:00046FDC       SsmGet_Exhaust_OCV_Current_Left_P88
 0000:00046FEA       SsmGet_Switches_130_62_131_x_x_x_x_x
 0000:0004718E       SsmGet_Switches_63_64_65_66_67_132_68_133
 0000:00047356       SsmGet_Switches_168_169_170_171_172_x_x_x
 0000:0004735A       SsmGet_Boost_Pressure_Feedback_P168
 0000:0004743A       SsmGet_Interior_Heater_P178
 0000:00047448       SsmGet_Battery_Current_P183
 0000:0004746C       SsmGet_Alternator_Control_Mode_P185
 0000:00047472       SsmGet_Battery_Temperature_P184
 0000:0004747E       SsmGet_Exhaust_Gas_Temperature_at_Diesel_Particulate_Filter_DPF_Inlet_P189
 0000:0004D120       PtrSsmGet_Engine_Load_Relative_P1
 0000:0004D124       PtrSsmGet_Coolant_Temperature_P2
 0000:0004D128       PtrSsmGet_AF_Correction_1_P3
 0000:0004D12C       PtrSsmGet_AF_Learning_1_P4
 0000:0004D130       PtrSsmGet_AF_Correction_2_P5
 0000:0004D134       PtrSsmGet_AF_Learning_2_P6
 0000:0004D138       PtrSsmGet_Manifold_Absolute_Pressure_P7
 0000:0004D13C       PtrSsmGet_Engine_Speed_P8
 0000:0004D144       PtrSsmGet_Vehicle_Speed_P9
 0000:0004D148       PtrSsmGet_Ignition_Total_Timing_P10
 0000:0004D14C       PtrSsmGet_Intake_Air_Temperature_P11
 0000:0004D150       PtrSsmGet_Mass_Airflow_P12
 0000:0004D158       PtrSsmGet_Throttle_Opening_Angle_P13
 0000:0004D15C       PtrSsmGet_Front_O2_Sensor_1_P14
 0000:0004D164       PtrSsmGet_Rear_O2_Sensor_P15
 0000:0004D16C       PtrSsmGet_Front_O2_Sensor_2_P16
 0000:0004D174       PtrSsmGet_Battery_Voltage_P17
 0000:0004D178       PtrSsmGet_Mass_Airflow_Sensor_Voltage_P18
 0000:0004D17C       PtrSsmGet_Throttle_Sensor_Voltage_P19
 0000:0004D180       PtrSsmGet_Differential_Pressure_Sensor_Voltage_P20
 0000:0004D184       PtrSsmGet_Fuel_Injector_1_Pulse_Width_P21
 0000:0004D188       PtrSsmGet_Fuel_Injector_2_Pulse_Width_P22
 0000:0004D18C       PtrSsmGet_Knock_Correction_Advance_P23
 0000:0004D190       PtrSsmGet_Atmospheric_Pressure_P24
 0000:0004D194       PtrSsmGet_Manifold_Relative_Pressure_P25
 0000:0004D198       PtrSsmGet_Pressure_Differential_Sensor_P26
 0000:0004D19C       PtrSsmGet_Fuel_Tank_Pressure_P27
 0000:0004D1A0       PtrSsmGet_CO_Adjustment_P28
 0000:0004D1A4       PtrSsmGet_Learned_Ignition_Timing_P29
 0000:0004D1A8       PtrSsmGet_Accelerator_Pedal_Angle_P30
 0000:0004D1AC       PtrSsmGet_Fuel_Temperature_P31
 0000:0004D1B0       PtrSsmGet_Front_O2_Heater_Current_1_P32
 0000:0004D1B4       PtrSsmGet_Rear_O2_Heater_Current_P33
 0000:0004D1B8       PtrSsmGet_Front_O2_Heater_Current_2_P34
 0000:0004D1BC       PtrSsmGet_Fuel_Level_P35
 0000:0004D1C0       PtrSsmGet_Radiator_Fan_Control_P92
 0000:0004D1C4       PtrSsmGet_Primary_Wastegate_Duty_Cycle_P36
 0000:0004D1C8       PtrSsmGet_Secondary_Wastegate_Duty_Cycle_P37
 0000:0004D1CC       PtrSsmGet_CPC_Valve_Duty_Ratio_P38
 0000:0004D1D0       PtrSsmGet_Tumble_Valve_Position_Sensor_Right_P39
 0000:0004D1D4       PtrSsmGet_Tumble_Valve_Position_Sensor_Left_P40
 0000:0004D1D8       PtrSsmGet_Idle_Speed_Control_Valve_Duty_Ratio_P41
 0000:0004D1DC       PtrSsmGet_AF_Lean_Correction_P42
 0000:0004D1E0       PtrSsmGet_AF_Heater_Duty_P43
 0000:0004D1E4       PtrSsmGet_Idle_Speed_Control_Valve_Step_P44
 0000:0004D1E8       PtrSsmGet_Number_of_Exh_Gas_Recirc_Steps_P45
 0000:0004D1EC       PtrSsmGet_Alternator_Duty_P46
 0000:0004D1F0       PtrSsmGet_Fuel_Pump_Duty_P47
 0000:0004D1F4       PtrSsmGet_Intake_VVT_Advance_Angle_Right_P48
 0000:0004D1F8       PtrSsmGet_Intake_VVT_Advance_Angle_Left_P49
 0000:0004D1FC       PtrSsmGet_Intake_OCV_Duty_Right_P50
 0000:0004D200       PtrSsmGet_Intake_OCV_Duty_Left_P51
 0000:0004D204       PtrSsmGet_Intake_OCV_Current_Right_P52
 0000:0004D208       PtrSsmGet_Intake_OCV_Current_Left_P53
 0000:0004D20C       PtrSsmGet_AF_Sensor_1_Current_P54
 0000:0004D210       PtrSsmGet_AF_Sensor_2_Current_P55
 0000:0004D214       PtrSsmGet_AF_Sensor_1_Resistance_P56
 0000:0004D218       PtrSsmGet_AF_Sensor_2_Resistance_P57
 0000:0004D21C       PtrSsmGet_AF_Sensor_1_P58
 0000:0004D220       PtrSsmGet_AF_Sensor_2_P59
 0000:0004D22C       PtrSsmGet_Gear_Position_P60
 0000:0004D250       PtrSsmGet_AF_Sensor_1_Heater_Current_P61
 0000:0004D254       PtrSsmGet_AF_Sensor_2_Heater_Current_P62
 0000:0004D288       PtrSsmGet_Switches_x_1_2_3_x_69_70_71
 0000:0004D28C       PtrSsmGet_Switches_4_5_x_6_7_8_9_x
 0000:0004D290       PtrSsmGet_Switches_10_11_12_13_14_15_16_17
 0000:0004D294       PtrSsmGet_Switches_18_19_20_21_22_23_24_25
 0000:0004D298       PtrSsmGet_Switches_26_27_28_29_30_31_32_33
 0000:0004D29C       PtrSsmGet_Switches_34_35_36_37_38_39_40_41
 0000:0004D2A0       PtrSsmGet_Switches_42_43_44_45_46_47_48_49
 0000:0004D2A4       PtrSsmGet_Switches_72_73_74_75_50_51_52_53
 0000:0004D2A8       PtrSsmGet_Switches_54_55_56_57_58_59_60_61
 0000:0004D2AC       PtrSsmGet_Switches_x_x_x_x_x_x_82_x
 0000:0004D2BC       PtrSsmGet_Switches_108_x_x_x_x_x_x_x
 0000:0004D43C       PtrSsmGet_Roughness_Monitor_Cylinder_1_P63
 0000:0004D440       PtrSsmGet_Roughness_Monitor_Cylinder_2_P64
 0000:0004D444       PtrSsmGet_AF_Correction_3_32bit_ECU_P89
 0000:0004D448       PtrSsmGet_AF_Learning_3_P66
 0000:0004D44C       PtrSsmGet_Rear_O2_Heater_Voltage_P67
 0000:0004D450       PtrSsmGet_AF_Adjustment_Voltage_P68
 0000:0004D460       PtrSsmGet_Switches_148_149_x_150_151_152_153_154
 0000:0004D464       PtrSsmGet_Roughness_Monitor_Cylinder_3_P69
 0000:0004D468       PtrSsmGet_Roughness_Monitor_Cylinder_4_P70
 0000:0004D4C0       PtrSsmGet_Roughness_Monitor_Cylinder_5_P151
 0000:0004D4E4       PtrSsmGet_Roughness_Monitor_Cylinder_6_P152
 0000:0004D4E8       PtrSsmGet_Learned_Ignition_Timing_Correction_P153
 0000:0004D4EC       PtrSsmGet_Throttle_Motor_Duty_P71
 0000:0004D4F0       PtrSsmGet_Throttle_Motor_Voltage_P72
 0000:0004D504       PtrSsmGet_Sub_Throttle_Sensor_P73
 0000:0004D508       PtrSsmGet_Main_Throttle_Sensor_P74
 0000:0004D50C       PtrSsmGet_Sub_Accelerator_Sensor_P75
 0000:0004D510       PtrSsmGet_Main_Accelerator_Sensor_P76
 0000:0004D514       PtrSsmGet_Brake_Booster_Pressure_P77
 0000:0004D518       PtrSsmGet_Fuel_Pressure_High_P78
 0000:0004D51C       PtrSsmGet_Exhaust_Gas_Temperature_P79
 0000:0004D520       PtrSsmGet_Exhaust_Gas_Temperature_2_P116
 0000:0004D524       PtrSsmGet_Cold_Start_Injector_Air_Pump_P80
 0000:0004D528       PtrSsmGet_SCV_Step_P81
 0000:0004D52C       PtrSsmGet_Memorised_Cruise_Speed_P82
 0000:0004D530       PtrSsmGet_AirFuel_Correction_4_P117
 0000:0004D534       PtrSsmGet_AirFuel_Learning_4_P118
 0000:0004D538       PtrSsmGet_Fuel_Level_Sensor_Resistance_P119
 0000:0004D53C       PtrSsmGet_Estimated_odometer_P120
 0000:0004D550       PtrSsmGet_Oil_Temperature_P122
 0000:0004D554       PtrSsmGet_Oil_Switching_Solenoid_Valve_OSV_Duty_Right_P123
 0000:0004D558       PtrSsmGet_Oil_Switching_Solenoid_Valve_OSV_Duty_Left_P124
 0000:0004D55C       PtrSsmGet_Oil_Switching_Solenoid_Valve_OSV_Current_Right_P125
 0000:0004D560       PtrSsmGet_Oil_Switching_Solenoid_Valve_OSV_Current_Left_P126
 0000:0004D564       PtrSsmGet_Exhaust_VVT_Advance_Angle_Right_P83
 0000:0004D568       PtrSsmGet_Exhaust_VVT_Advance_Angle_Left_P84
 0000:0004D56C       PtrSsmGet_Exhaust_OCV_Duty_Right_P85
 0000:0004D570       PtrSsmGet_Exhaust_OCV_Duty_Left_P86
 0000:0004D574       PtrSsmGet_Exhaust_OCV_Current_Right_P87
 0000:0004D578       PtrSsmGet_Exhaust_OCV_Current_Left_P88
 0000:0004D57C       PtrSsmGet_VVL_Lift_Mode_P127
 0000:0004D584       PtrSsmGet_Switches_130_62_131_x_x_x_x_x
 0000:0004D588       PtrSsmGet_Switches_63_64_65_66_67_132_68_133
 0000:0004D6AC       PtrSsmGet_SIDrive_Mode_P114
 0000:0004D6B0       PtrSsmGet_Throttle_Sensor_Closed_Voltage_P115
 0000:0004D6CC       PtrSsmGet_Fuel_Tank_Air_Pressure_P121
 0000:0004D75C       PtrSsmGet_Switches_155_156_157_x_x_x_x_x
 0000:0004D760       PtrSsmGet_Switches_158_159_160_161_162_163_164_165
 0000:0004D768       PtrSsmGet_Fine_Learning_Knock_Correction_P91
 0000:0004D76C       PtrSsmGet_Fuel_Tank_Pressure_P154
 0000:0004D83C       PtrSsmGet_Switches_168_169_170_171_172_x_x_x
 0000:0004D888       PtrSsmGet_Main_Injection_Period_P155
 0000:0004D88C       PtrSsmGet_Final_Injection_Amount_P156
 0000:0004D894       PtrSsmGet_Number_of_Times_Injected_P157
 0000:0004D898       PtrSsmGet_Target_Intake_Manifold_Pressure_P158
 0000:0004D89C       PtrSsmGet_Target_Intake_Air_Amount_P159
 0000:0004D8A0       PtrSsmGet_Air_Mass_P160
 0000:0004D8A4       PtrSsmGet_Exhaust_Gas_Recirculation_EGR_Target_Valve_Opening_Angle_P161
 0000:0004D8A8       PtrSsmGet_Exhaust_Gas_Recirculation_EGR_Valve_Opening_Angle_P162
 0000:0004D8AC       PtrSsmGet_Exhaust_Gas_Recirculation_EGR_Duty_P163
 0000:0004D8B0       PtrSsmGet_Common_Rail_Target_Pressure_P164
 0000:0004D8B4       PtrSsmGet_Common_Rail_Pressure_P165
 0000:0004D8B8       PtrSsmGet_Intake_Air_Temperature_combined_P166
 0000:0004D8BC       PtrSsmGet_Target_Engine_Speed_P167
 0000:0004D8C4       PtrSsmGet_Boost_Pressure_Feedback_P168
 0000:0004D8D8       PtrSsmGet_Electric_Power_Steering_Current_P169
 0000:0004D8DC       PtrSsmGet_Fuel_Pump_Suction_Control_Valve_Current_Target_P170
 0000:0004D8E4       PtrSsmGet_Fuel_Pump_Suction_Control_Valve_Current_Actual_P175
 0000:0004D8EC       PtrSsmGet_Mileage_after_Injector_Learning_P176
 0000:0004D914       PtrSsmGet_Mileage_after_Injector_Replacement_P177
 0000:0004D980       PtrSsmGet_Actual_Common_Rail_Pressure_Time_Synchronized_P204
 0000:0004D9C0       PtrSsmGet_PreInjection_Amount_P234
 0000:0004D9C8       PtrSsmGet_PreInjection_Interval_P235
 0000:0004D9CC       PtrSsmGet_Final_Initial_Torque_P238
 0000:0004D9E4       PtrSsmGet_Individual_Pump_Difference_Learning_Value_P228
 0000:0004D9F8       PtrSsmGet_MicroQuantityInjection_Final_Learning_Value_11_P208
 0000:0004D9FC       PtrSsmGet_MicroQuantityInjection_Final_Learning_Value_12_P209
 0000:0004DA00       PtrSsmGet_MicroQuantityInjection_Final_Learning_Value_13_P210
 0000:0004DA04       PtrSsmGet_MicroQuantityInjection_Final_Learning_Value_14_P211
 0000:0004DA08       PtrSsmGet_MicroQuantityInjection_Final_Learning_Value_21_P212
 0000:0004DA0C       PtrSsmGet_MicroQuantityInjection_Final_Learning_Value_22_P213
 0000:0004DA10       PtrSsmGet_MicroQuantityInjection_Final_Learning_Value_23_P214
 0000:0004DA14       PtrSsmGet_MicroQuantityInjection_Final_Learning_Value_24_P215
 0000:0004DA18       PtrSsmGet_MicroQuantityInjection_Final_Learning_Value_31_P216
 0000:0004DA1C       PtrSsmGet_MicroQuantityInjection_Final_Learning_Value_32_P217
 0000:0004DA20       PtrSsmGet_MicroQuantityInjection_Final_Learning_Value_33_P218
 0000:0004DA24       PtrSsmGet_MicroQuantityInjection_Final_Learning_Value_34_P219
 0000:0004DA28       PtrSsmGet_MicroQuantityInjection_Final_Learning_Value_41_P220
 0000:0004DA2C       PtrSsmGet_MicroQuantityInjection_Final_Learning_Value_42_P221
 0000:0004DA30       PtrSsmGet_MicroQuantityInjection_Final_Learning_Value_43_P222
 0000:0004DA34       PtrSsmGet_MicroQuantityInjection_Final_Learning_Value_44_P223
 0000:0004DA38       PtrSsmGet_MicroQuantityInjection_Final_Learning_Value_51_P224
 0000:0004DA3C       PtrSsmGet_MicroQuantityInjection_Final_Learning_Value_52_P225
 0000:0004DA40       PtrSsmGet_MicroQuantityInjection_Final_Learning_Value_53_P226
 0000:0004DA44       PtrSsmGet_MicroQuantityInjection_Final_Learning_Value_54_P227
 0000:0004DA58       PtrSsmGet_PreInjection_Final_Period_P233
 0000:0004DA60       PtrSsmGet_Final_Main_Injection_Period_P229
 0000:0004DA78       PtrSsmGet_Quantity_Correction_Cylinder_1_P179
 0000:0004DA7C       PtrSsmGet_Quantity_Correction_Cylinder_2_P180
 0000:0004DA80       PtrSsmGet_Quantity_Correction_Cylinder_3_P181
 0000:0004DA84       PtrSsmGet_Quantity_Correction_Cylinder_4_P182
 0000:0004DAC4       PtrSsmGet_Interior_Heater_P178
 0000:0004DAC8       PtrSsmGet_Battery_Current_P183
 0000:0004DACC       PtrSsmGet_Alternator_Control_Mode_P185
 0000:0004DAD0       PtrSsmGet_Battery_Temperature_P184
 0000:0004DAD8       PtrSsmGet_Cumulative_Ash_Ratio_P186
 0000:0004DADC       PtrSsmGet_Pressure_Difference_between_Diesel_Particulate_Filter_DPF_Inlet_and_Outlet_P187
 0000:0004DAE0       PtrSsmGet_Exhaust_Gas_Temperature_at_Catalyst_Inlet_P188
 0000:0004DAE4       PtrSsmGet_Exhaust_Gas_Temperature_at_Diesel_Particulate_Filter_DPF_Inlet_P189
 0000:0004DAE8       PtrSsmGet_Estimated_Catalyst_Temperature_P190
 0000:0004DAEC       PtrSsmGet_Estimated_Temperature_of_the_Diesel_Particulate_Filter_DPF_P191
 0000:0004DAF0       PtrSsmGet_Soot_Accumulation_Ratio_P192
 0000:0004DAF4       PtrSsmGet_Oil_Dilution_Ratio_P193
 0000:0004DB64       PtrSsmGet_Accumulated_Count_of_Overspeed_Instances_Very_High_RPM_P198
 0000:0004DB68       PtrSsmGet_Accumulated_Count_of_Overspeed_Instances_High_RPM_P199
 0000:0004DB6C       PtrSsmGet_Estimated_Distance_to_Oil_Change_P205
 0000:0004DB70       PtrSsmGet_Running_Distance_since_last_Diesel_Particulate_Filter_DPF_Regeneration_P206
 0000:0004DB78       PtrSsmGet_Diesel_Particulate_Filter_DPF_Regeneration_Count_P207
 0000:0004DB8C       PtrSsmGet_Cumulative_oil_diesel_entry_P236
 0000:0004DE58       a34512345
 0000:00056A40       aCJCJs
 0000:00058838       aCOC
 0000:0005CC66       aCoTddscm3P
 0000:0005CF4C       aCoDstbcm3P
 0000:0006C428       P0335_CRANKSHAFT_POS_SENSOR_A_MALFUNCTION
 0000:0006C42C       P0604_CONTROL_MODULE_RAM_ERROR
 0000:0006C42D       P0102_MAF_SENSOR_LOW_INPUT
 0000:0006C42E       P0103_MAF_SENSOR_HIGH_INPUT
 0000:0006C430       P0327_KNOCK_SENSOR_1_LOW_INPUT
 0000:0006C431       P0328_KNOCK_SENSOR_1_HIGH_INPUT
 0000:0006C432       P0122_TPS_A_LOW_INPUT
 0000:0006C433       P0123_TPS_A_HIGH_INPUT
 0000:0006C435       P0117_COOLANT_TEMP_SENSOR_LOW_INPUT
 0000:0006C436       P0118_COOLANT_TEMP_SENSOR_HIGH_INPUT
 0000:0006C438       P0125_INSUFFICIENT_COOLANT_TEMP_FUELING
 0000:0006C439       P0462_FUEL_LEVEL_SENSOR_LOW_INPUT
 0000:0006C43A       P0463_FUEL_LEVEL_SENSOR_HIGH_INPUT
 0000:0006C43D       P1518_STARTER_SWITCH_LOW_INPUT
 0000:0006C43E       P0512_STARTER_REQUEST_CIRCUIT
 0000:0006C442       P0851_NEUTRAL_SWITCH_INPUT_LOW
 0000:0006C446       P0852_NEUTRAL_SWITCH_INPUT_HIGH
 0000:0006C44B       P0691_RADIATOR_FAN_CIRCUIT_LOW
 0000:0006C44C       P0692_RADIATOR_FAN_CIRCUIT_HIGH
 0000:0006C451       P0011_CAMSHAFT_POS__TIMING_OVERADVANCED_1
 0000:0006C452       P0021_CAMSHAFT_POS__TIMING_OVERADVANCED_2
 0000:0006C455       P0458_EVAP_PURGE_VALVE_CIRCUIT_LOW
 0000:0006C456       P0459_EVAP_PURGE_VALVE_CIRCUIT_HIGH
 0000:0006C45C       P0133_FRONT_O2_SENSOR_SLOW_RESPONSE
 0000:0006C460       P0420_CAT_EFFICIENCY_BELOW_THRESHOLD
 0000:0006C463       P0171_SYSTEM_TOO_LEAN
 0000:0006C464       P0172_SYSTEM_TOO_RICH
 0000:0006C465       P0301_MISFIRE_CYLINDER_1
 0000:0006C466       P0302_MISFIRE_CYLINDER_2
 0000:0006C467       P0303_MISFIRE_CYLINDER_3
 0000:0006C468       P0304_MISFIRE_CYLINDER_4
 0000:0006C46B       P0000_PASS_CODE_NO_DTC_DETECTED
 0000:0006C46C       P0000_PASS_CODE_NO_DTC_DETECTED_
 0000:0006C46E       P0131_FRONT_O2_SENSOR_LOW_INPUT
 0000:0006C46F       P0132_FRONT_O2_SENSOR_HIGH_INPUT
 0000:0006C471       P0112_IAT_SENSOR_LOW_INPUT
 0000:0006C472       P0113_IAT_SENSOR_HIGH_INPUT
 0000:0006C474       P0038_REAR_O2_SENSOR_HIGH_INPUT
 0000:0006C475       P0032_FRONT_O2_SENSOR_HIGH_INPUT
 0000:0006C476       P0037_REAR_O2_SENSOR_LOW_INPUT
 0000:0006C477       P0031_FRONT_O2_SENSOR_LOW_INPUT
 0000:0006C478       P0107_MAP_SENSOR_LOW_INPUT
 0000:0006C479       P0108_MAP_SENSOR_HIGH_INPUT
 0000:0006C47C       P1560_BACKUP_VOLTAGE_MALFUNCTION
 0000:0006C47F       P0245_WASTEGATE_SOLENOID_A_LOW
 0000:0006C480       P0246_WASTEGATE_SOLENOID_A_HIGH
 0000:0006C481       P0244_WASTEGATE_SOLENOID_A_RANGEPERF
 0000:0006C48A       P0502_VEHICLE_SPEED_SENSOR_LOW_INPUT
 0000:0006C48B       P0230_FUEL_PUMP_PRIMARY_CIRCUIT
 0000:0006C48D       P0519_IDLE_CONTROL_MALFUNCTION_FAILSAFE
 0000:0006C48F       P0134_FRONT_O2_SENSOR_NO_ACTIVITY
 0000:0006C490       P0030_FRONT_O2_SENSOR_RANGEPERF
 0000:0006C491       P0503_VEHICLE_SPEED_SENSOR_INTERMITTENT
 0000:0006C492       P2109_TPS_A_MINIMUM_STOP_PERF
 0000:0006C493       P0222_TPS_B_LOW_INPUT
 0000:0006C494       P0223_TPS_B_HIGH_INPUT
 0000:0006C495       P1160_ABNORMAL_RETURN_SPRING
 0000:0006C496       P2102_THROTTLE_ACTUATOR_CIRCUIT_LOW
 0000:0006C497       P2103_THROTTLE_ACTUATOR_CIRCUIT_HIGH
 0000:0006C498       P2101_THROTTLE_ACTUATOR_CIRCUIT_RANGEPERF
 0000:0006C49A       P0638_THROTTLE_ACTUATOR_RANGEPERF
 0000:0006C49B       P0607_CONTROL_MODULE_PERFORMANCE
 0000:0006C49C       P2138_TPS_DE_VOLTAGE
 0000:0006C49D       P2127_TPS_E_CIRCUIT_LOW_INPUT
 0000:0006C49E       P2128_TPS_E_CIRCUIT_HIGH_INPUT
 0000:0006C49F       P2122_TPS_D_CIRCUIT_LOW_INPUT
 0000:0006C4A0       P2123_TPS_D_CIRCUIT_HIGH_INPUT
 0000:0006C4A1       P2135_TPS_AB_VOLTAGE
 0000:0006C4A6       P0345_CAMSHAFT_POS_SENSOR_A_BANK_2
 0000:0006C4A7       P0340_CAMSHAFT_POS_SENSOR_A_MALFUNCTION_
 0000:0006C4A8       P0605_CONTROL_MODULE_ROM_ERROR
 0000:0006C4AD       P2093_OCV_SOLENOID_A2_CIRCUIT_SHORT
 0000:0006C4AE       P2092_OCV_SOLENOID_A2_CIRCUIT_OPEN
 0000:0006C4AF       P2089_OCV_SOLENOID_A1_CIRCUIT_SHORT
 0000:0006C4B0       P2088_OCV_SOLENOID_A1_CIRCUIT_OPEN
 0000:0006C4B2       P2504_CHARGING_SYSTEM_VOLTAGE_HIGH
 0000:0006C4B3       P2503_CHARGING_SYSTEM_VOLTAGE_LOW
 0000:0006C4B4       P2004_TGV__INTAKE_MANIFOLD_RUNNER_1_STUCK_OPEN
 0000:0006C4B5       P2006_TGV__INTAKE_MANIFOLD_RUNNER_1_STUCK_CLOSED
 0000:0006C4B6       P2005_TGV__INTAKE_MANIFOLD_RUNNER_2_STUCK_OPEN
 0000:0006C4B7       P2007_TGV__INTAKE_MANIFOLD_RUNNER_2_STUCK_CLOSED
 0000:0006C4BA       P2229_BARO_PRESSURE_CIRCUIT_HIGH_INPUT
 0000:0006C4BB       P2228_BARO_PRESSURE_CIRCUIT_LOW_INPUT
 0000:0006C4BC       P2016_TGV__INTAKE_MANIFOLD_RUNNER_1_POS_SENSOR_LOW
 0000:0006C4BD       P2017_TGV__INTAKE_MANIFOLD_RUNNER_1_POS_SENSOR_HIGH
 0000:0006C4BE       P2021_TGV__INTAKE_MANIFOLD_RUNNER_2_POS_SENSOR_LOW
 0000:0006C4BF       P2022_TGV__INTAKE_MANIFOLD_RUNNER_2_POS_SENSOR_HIGH
 0000:0006C4C0       P2009_TGV__INTAKE_MANIFOLD_RUNNER_1_CIRCUIT_LOW
 0000:0006C4C1       P2012_TGV__INTAKE_MANIFOLD_RUNNER_2_CIRCUIT_LOW
 0000:0006C4C2       P2008_TGV__INTAKE_MANIFOLD_RUNNER_1_CIRCUIT_OPEN
 0000:0006C4C3       P2011_TGV__INTAKE_MANIFOLD_RUNNER_2_CIRCUIT_OPEN
 0000:0006C4C4       P2444_SECONDARY_AIR_PUMP_1_STUCK_ON_B1
 0000:0006C4C6       P0410_SECONDARY_AIR_PUMP_SYSTEM
 0000:0006C4C8       P2433_SECONDARY_AIR_PUMP_CIRCUIT_HIGH
 0000:0006C4C9       P2432_SECONDARY_AIR_PUMP_CIRCUIT_LOW
 0000:0006C4CA       P0413_SECONDARY_AIR_PUMP_A_OPEN
 0000:0006C4CB       P0418_SECONDARY_AIR_PUMP_RELAY_A
 0000:0006C4CC       P0140_REAR_O2_SENSOR_NO_ACTIVITY
 0000:0006C4CD       P0414_SECONDARY_AIR_PUMP_A_SHORTED
 0000:0006C4CE       P1418_SECONDARY_AIR_PUMP_CIRCUIT_SHORTED
 0000:0006C4D1       P1410_SECONDARY_AIR_PUMP_VALVE_STUCK_OPEN
 0000:0006C4D4       P2441_SECONDARY_AIR_PUMP_VALVE_1_STUCK_CLOSED
 0000:0006C4D5       P2440_SECONDARY_AIR_PUMP_VALVE_1_STUCK_OPEN
 0000:0006F46D       P0336_CRANKSHAFT_POS_SENSOR_A_RANGEPERF
 0000:0006F47B       P0464_FUEL_LEVEL_SENSOR_INTERMITTENT
 0000:0006F47F       P0461_FUEL_LEVEL_SENSOR_RANGEPERF
 0000:0006F483       P0452_EVAP_PRESSURE_SENSOR_LOW_INPUT
 0000:0006F484       P0453_EVAP_PRESSURE_SENSOR_HIGH_INPUT
 0000:0006F485       P0451_EVAP_PRESSURE_SENSOR_RANGEPERF
 0000:0006F487       P0182_FUEL_TEMP_SENSOR_A_LOW_INPUT
 0000:0006F488       P0183_FUEL_TEMP_SENSOR_A_HIGH_INPUT
 0000:0006F489       P0181_FUEL_TEMP_SENSOR_A_RANGEPERF
 0000:0006F48B       P1446_FUEL_TANK_SENSOR_CONTROL_CIRCUIT_LOW
 0000:0006F48C       P1447_FUEL_TANK_SENSOR_CONTROL_CIRCUIT_HIGH
 0000:0006F48F       P0506_IDLE_CONTROL_RPM_LOWER_THAN_EXPECTED
 0000:0006F490       P0507_IDLE_CONTROL_RPM_HIGH_THAN_EXPECTED
 0000:0006F491       P1448_FUEL_TANK_SENSOR_CONTROL_RANGEPERF
 0000:0006F494       P0483_RADIATOR_FAN_RATIONALITY_CHECK
 0000:0006F49A       P1400_FUEL_TANK_PRESSURE_SOL_LOW
 0000:0006F49B       P1420_FUEL_TANK_PRESSURE_SOL_HIGH_INPUT
 0000:0006F4A0       P1443_VENT_CONTROL_SOLENOID_FUNCTION_PROBLEM
 0000:0006F4A1       P0447_EVAP_VENT_CONTROL_CIRCUIT_OPEN
 0000:0006F4A2       P0448_EVAP_VENT_CONTROL_CIRCUIT_SHORTED
 0000:0006F4A4       P0139_REAR_O2_SENSOR_SLOW_RESPONSE
 0000:0006F4A5       P1152_FRONT_O2_SENSOR_RANGEPERF_LOW_B1_S1
 0000:0006F4A6       P1153_FRONT_O2_SENSOR_RANGEPERF_HIGH_B1_S1
 0000:0006F4A8       P0442_EVAP_LEAK_DETECTED_SMALL
 0000:0006F4A9       P0456_EVAP_LEAK_DETECTED_VERY_SMALL
 0000:0006F4B0       P1301_MISFIRE_HIGH_TEMP_EXHAUST_GAS
 0000:0006F4B1       P0457_EVAP_LEAK_DETECTED_FUEL_CAP
 0000:0006F4B4       P0137_REAR_O2_SENSOR_LOW_VOLTAGE
 0000:0006F4B7       P0138_REAR_O2_SENSOR_HIGH_VOLTAGE
 0000:0006F4BA       P0111_IAT_SENSOR_RANGEPERF
 0000:0006F4C1       P0128_THERMOSTAT_MALFUNCTION
 0000:0006F4C2       P1491_PCV_BLOWBY_FUNCTION_PROBLEM
 0000:0006F4CD       P0545_EGT_SENSOR_CIRCUIT_LOW
 0000:0006F4CE       P0546_EGT_SENSOR_CIRCUIT_HIGH
 0000:0006F4CF       P1312_EGT_SENSOR_MALFUNCTION
 0000:0006F4D0       P1544_EGT_TOO_HIGH
 0000:0006F4D3       P0068_MAP_SENSOR_RANGEPERF
 0000:0006F4D5       P0101_MAF_SENSOR_RANGEPERF
 0000:0006F4E0       P2096_POST_CATALYST_TOO_LEAN_B1
 0000:0006F4E9       P2097_POST_CATALYST_TOO_RICH_B1
 0000:0006F4EA       P0600_SERIAL_COMMUNICATION_LINK
 0000:0006F4F8       P0700_TRANSMISSION_CONTROL_SYSTEM
 0000:0006F4FF       P2227_BARO_PRESSURE_CIRCUIT_RANGEPERF
 0000:0006F500       P0126_INSUFFICIENT_COOLANT_TEMP_OPERATION
 0000:0006F97A       Force_Pass_Readiness_Monitors
 0000:00072854       aBBF
 0000:00072CEA       nullsub_13
 0000:00072CEE       nullsub_14
 0000:00074F67       P0500_VEHICLE_SPEED_SENSOR_A
 0000:0007811E       aCOFFlF
 0000:0007D1C4       Coolant_Temp_Sensor_Scaling_Y_Axis
 0000:0007D234       Coolant_Temp_Sensor_Scaling
 0000:0007D2A4       Intake_Temp_Sensor_Scaling_Y_Axis
 0000:0007D31C       Intake_Temp_Sensor_Scaling
 0000:000BF2A4       aMsr_rfcc1_00r1
 0000:000C0000       aA8dh200u
 0000:000C0250       Atmospheric_Pressure_Sensor_Scaling
 0000:000C028C       Manifold_Pressure_Sensor_Scaling
 0000:000C0534       Max_Wastegate_Duty_Alternate_Fix
 0000:000C0588       Wastegate_Duty_Ramping_Fix
 0000:000C0665       Boost_Control_Disable_Delay_Fine_Correction
 0000:000C0678       TD_Activation_Thresholds_Target_Boost
 0000:000C0684       TD_Integral_Negative_Activation_Boost_Error
 0000:000C068C       TD_Integral_Positive_Activation_Boost_Error
 0000:000C0690       TD_Integral_Positive_Activation_Wastegate_Duty
 0000:000C069C       TD_Activation_Thresholds_RPM
 0000:000C06A4       TD_Integral_Cumulative_Range_WGDC_Correction
 0000:000C06C4       Boost_Control_Disable_Fine_Correction
 0000:000C06C8       Boost_Control_Disable_IAM
 0000:000C06D4       Target_Boost_Compensation_1st_Gear_Speed_Disable
 0000:000C06D8       Target_Boost_Compensation_1st_Gear
 0000:000C06E0       InitialMax_Wastegate_Duty_Compensation_ECT_Y_Axis
 0000:000C06F4       InitialMax_Wastegate_Duty_Alternate_Compensation_IAT_Y_Axis
 0000:000C0720       TD_Proportional_Compensation_IAT_Y_Axis
 0000:000C0730       TD_Proportional_Compensation_IAT
 0000:000C0734       InitialMax_Wastegate_Duty_Alternate_Compensation_IAT
 0000:000C0744       TD_Integral_Negative_Compensation_IAT
 0000:000C0748       TD_Integral_Positive_Compensation_IAT_Y_Axis
 0000:000C0758       TD_Integral_Positive_Compensation_IAT
 0000:000C0768       InitialMax_Wastegate_Duty_Compensation_IAT_Y_Axis
 0000:000C07A8       InitialMax_Wastegate_Duty_Compensation_IAT
 0000:000C0868       InitialMax_Wastegate_Duty_Compensation_ECT
 0000:000C0884       Max_Wastegate_Duty_Alternate_RPM_Y_Axis
 0000:000C0888       Target_Boost_Compensation_ECT
 0000:000C0898       Max_Wastegate_Duty_Alternate_RPM
 0000:000C08AC       Target_Boost_Compensation_Atm_Pressure_Multiplier_Offset_Y_Axis
 0000:000C08BC       Target_Boost_Compensation_Atm_Pressure_Multiplier_Offset
 0000:000C08C0       Turbo_Dynamics_Proportional_Y_Axis
 0000:000C08E4       Turbo_Dynamics_Proportional
 0000:000C08F8       Turbo_Dynamics_Integral_Negative_Y_Axis
 0000:000C091C       Turbo_Dynamics_Integral_Negative
 0000:000C0930       Turbo_Dynamics_Integral_Positive_Y_Axis
 0000:000C0954       Turbo_Dynamics_Integral_Positive
 0000:000C0980       Target_Boost_Compensation_Atm_Pressure_Multiplier_Y_Axis
 0000:000C0990       Target_Boost_Compensation_Atm_Pressure_Multiplier
 0000:000C0A24       InitialMax_Wastegate_Duty_Compensation_Atm_Pressure_X_Axis
 0000:000C0A3C       InitialMax_Wastegate_Duty_Compensation_Atm_Pressure_Y_Axis
 0000:000C0A4C       InitialMax_Wastegate_Duty_Compensation_Atm_Pressure
 0000:000C0AAC       Initial_Wastegate_Duty_X_Axis
 0000:000C0ACC       Initial_Wastegate_Duty_Y_Axis
 0000:000C0AEC       Initial_Wastegate_Duty
 0000:000C0B74       Initial_Wastegate_Duty_A_X_Axis
 0000:000C0B84       Max_Wastegate_Duty_X_Axis
 0000:000C0B94       Initial_Wastegate_Duty_A_Y_Axis
 0000:000C0BA4       Max_Wastegate_Duty_Y_Axis
 0000:000C0BC0       Initial_Wastegate_Duty_A
 0000:000C0BC4       Max_Wastegate_Duty
 0000:000C0C70       Initial_Wastegate_Duty_B_X_Axis
 0000:000C0C8C       Target_Boost_X_Axis
 0000:000C0C90       Initial_Wastegate_Duty_B_Y_Axis
 0000:000C0CAC       Target_Boost_Y_Axis
 0000:000C0CBC       Initial_Wastegate_Duty_B
 0000:000C0CD8       Target_Boost
 0000:000C0E00       a?Pg?bgoO4?m?cA
 0000:000C0E74       aA1?Lla?AkA
 0000:000C0E88       a@a
 0000:000C0F44       MAF_Limit_Maximum
 0000:000C0F64       dLoadSmoothingA
 0000:000C0F68       dLoadSmoothingB
 0000:000C0F74       dLoadSmoothingFinal
 0000:000C116C       Gear_Determination_Thresholds
 0000:000C1184       Target_Boost_A_X_Axis
 0000:000C11A4       Target_Boost_A_Y_Axis
 0000:000C11D4       Target_Boost_A
 0000:000C1294       Target_Boost_B_X_Axis
 0000:000C12B4       Target_Boost_B_Y_Axis
 0000:000C12C0       Front_Oxygen_Sensor_Compensation_Atm_Pressure_Y_Axis
 0000:000C12D0       Front_Oxygen_Sensor_Compensation_Atm_Pressure
 0000:000C12E4       Target_Boost_B
 0000:000C1544       aEMyuxQfOWfa
 0000:000C1558       a@a_4
 0000:000C162C       aGUPSgoLLDc
 0000:000C1874       MAF_Compensation_IAT_X_Axis
 0000:000C1888       MAF_Compensation_IAT_Y_Axis
 0000:000C18A8       MAF_Compensation_IAT
 0000:000C18D0       Engine_Load_Compensation_MP_X_Axis
 0000:000C18FC       Engine_Load_Compensation_MP_Y_Axis
 0000:000C1938       Engine_Load_Compensation_MP
 0000:000C1EFE       Manifold_Pressure_Sensor_CEL_Delays
 0000:000C24A4       aAi33axqiazAfQc
 0000:000C25D4       Gear_Determination_Thresholds_A
 0000:000C25E8       Gear_Determination_Thresholds_B
 0000:000C32EC       aUPTJEAAiMshAI
 0000:000C3324       aD
 0000:000C361C       a33P?
 0000:000C3A9C       aLLLLLLLL
 0000:000C3AB0       aLLLLLLLL_0
 0000:000C3AC4       aLLLLLLLL_1
 0000:000C3AD8       aLLLLLLLL_2
 0000:000C5D06       Tipin_Enrichment_Disable_Applied_Counter_Threshold
 0000:000C5D07       Tipin_Enrichment_Applied_Counter_Reset
 0000:000C5D08       Tipin_Throttle_Cumulative_Reset
 0000:000C5D3A       CL_Delay_Engine_Load_Counter_Threshold
 0000:000C5D3E       CL_to_OL_Delay
 0000:000C5DFC       CL_Delay_Maximum_EGT
 0000:000C5E3C       Injector_Flow_Scaling
 0000:000C5E40       Min_Primary_Base_Enrich_3_Decay_Multiplier
 0000:000C5E58       aLLEAUPGGG8qi?a
 0000:000C5FC0       a?yssL?fff?@
 0000:000C5FD4       a?333?s33A
 0000:000C5FE0       a@a_3
 0000:000C5FE4       aB_0
 0000:000C5FE8       a?yss?fff?a
 0000:000C6080       Min_Primary_Base_Enrichment_1_Y_Axis
 0000:000C60BC       AF_Learning_1_Limits
 0000:000C60CC       AF_Learning_1_Airflow_Ranges
 0000:000C60E8       Primary_Open_Loop_Fuel_Map_Switch_IAM
 0000:000C60EC       Minimum_Active_Primary_Open_Loop_Enrichment
 0000:000C60F0       CL_to_OL_Transition_with_Delay_Throttle_Hysteresis
 0000:000C60F4       CL_to_OL_Transition_with_Delay_BPW_Hysteresis
 0000:000C60F8       CL_Delay_Minimum_ECT
 0000:000C60FC       CL_Delay_Maximum_Engine_Speed_Per_Gear
 0000:000C614C       CL_Delay_Maximum_Engine_Speed_Neutral
 0000:000C616C       CL_Delay_Maximum_Throttle
 0000:000C6170       CL_Delay_Maximum_Vehicle_Speed
 0000:000C617E       Min_Primary_Base_Enrichment_1
 0000:000C6180       CL_Delay_Maximum_Engine_Load
 0000:000C62B0       Minimum_Tipin_Enrichment_Activation_Throttle
 0000:000C62B4       Tipin_Enrichment_Disable_Throttle_Cumulative_Threshold
 0000:000C62B8       Minimum_Tipin_Enrichment_Activation
 0000:000C62FC       CL_to_OL_Transition_with_Delay_A_Throttle_Y_Axis
 0000:000C6300       Rev_Limit_Fuel_Cut
 0000:000C6308       Rev_Limit_Fuel_Resume_Boost
 0000:000C633C       CL_to_OL_Transition_with_Delay_A_Throttle
 0000:000C634C       CL_to_OL_Transition_with_Delay_B_Throttle_Y_Axis
 0000:000C6350       Speed_Limiting_Enable_Fuel_Cut
 0000:000C635C       Speed_Limiting_Disable_Fuel_Cut
 0000:000C638C       CL_to_OL_Transition_with_Delay_B_Throttle
 0000:000C639C       CL_to_OL_Transition_with_Delay_C_Throttle_Y_Axis
 0000:000C63DC       CL_to_OL_Transition_with_Delay_C_Throttle
 0000:000C640C       Primary_Open_Loop_Fueling_Compensation_Timing_Compensation__Y_Axis
 0000:000C6424       Primary_Open_Loop_Fueling_Compensation_Timing_Compensation_
 0000:000C6488       Min_Primary_Base_Enrich_3_Decay_Delay_B_Y_Axis
 0000:000C655C       Cranking_Fuel_IPW_Compensation_Accelerator_Y_Axis
 0000:000C6574       Cranking_Fuel_IPW_Compensation_Accelerator
 0000:000C658A       Min_Primary_Base_Enrich_3_Decay_Delay_A
 0000:000C659A       Min_Primary_Base_Enrich_3_Decay_Delay_B
 0000:000C6780       Primary_Open_Loop_Fueling_Compensation_Timing_Compensation_Y_Axis
 0000:000C6798       Primary_Open_Loop_Fueling_Compensation_Timing_Compensation
 0000:000C67A0       CL_to_OL_Transition_with_Delay_Throttle_Y_Axis
 0000:000C67E0       CL_to_OL_Transition_with_Delay_Throttle
 0000:000C67F0       Minimum_Primary_Open_Loop_Enrichment_Throttle_Y_Axis
 0000:000C6808       Minimum_Primary_Open_Loop_Enrichment_Throttle
 0000:000C6868       Tipin_Enrichment_Compensation_Boost_Error_Y_Axis
 0000:000C688C       Tipin_Enrichment_Compensation_Boost_Error
 0000:000C6918       aEeeeeeee333mfa
 0000:000C69F6       Cranking_Fuel_Injector_Pulse_Width_A_ECT
 0000:000C6A16       Cranking_Fuel_Injector_Pulse_Width_B_ECT
 0000:000C6A36       Cranking_Fuel_Injector_Pulse_Width_C_ECT
 0000:000C6A56       Cranking_Fuel_Injector_Pulse_Width_D_ECT
 0000:000C6A76       Cranking_Fuel_Injector_Pulse_Width_E_ECT
 0000:000C6A96       Cranking_Fuel_Injector_Pulse_Width_F_ECT
 0000:000C6AB6       Min_Primary_Base_Enrich_3_Initial_Start_1A
 0000:000C6AC8       CL_to_OL_Transition_with_Delay_A_Base_Pulse_Width_Y_Axis
 0000:000C6AD6       Min_Primary_Base_Enrich_3_Initial_Start_1B
 0000:000C6AF6       Min_Primary_Base_Enrich_3_Initial_Start_2A
 0000:000C6B08       CL_to_OL_Transition_with_Delay_A_Base_Pulse_Width
 0000:000C6B16       Min_Primary_Base_Enrich_3_Initial_Start_2B
 0000:000C6B28       CL_to_OL_Transition_with_Delay_B_Base_Pulse_Width_Y_Axis
 0000:000C6B36       Min_Primary_Base_Enrich_2_Initial_Start_1A
 0000:000C6B56       Min_Primary_Base_Enrich_2_Initial_Start_2A
 0000:000C6B68       CL_to_OL_Transition_with_Delay_B_Base_Pulse_Width
 0000:000C6B76       Min_Primary_Base_Enrich_2_Initial_Start_1B
 0000:000C6B88       CL_to_OL_Transition_with_Delay_C_Base_Pulse_Width_Y_Axis
 0000:000C6B96       Min_Primary_Base_Enrich_2_Initial_Start_2B
 0000:000C6BB6       Min_Primary_Base_Enrich_2_Decay_Step_1
 0000:000C6BC8       CL_to_OL_Transition_with_Delay_C_Base_Pulse_Width
 0000:000C6BD6       Min_Primary_Base_Enrich_2_Decay_Step_2
 0000:000C6F08       aJfjfjfjfjfjfjf
 0000:000C6F2A       aA_2
 0000:000C6F2C       aA_3
 0000:000C6F2E       aA_4
 0000:000C6F30       aA_5
 0000:000C6F32       aA_6
 0000:000C6F34       aA_7
 0000:000C6F36       aA_8
 0000:000C6F38       aA_9
 0000:000C6F3A       aA_10
 0000:000C6F3C       aA_11
 0000:000C6F3E       aA_12
 0000:000C6F40       aA_13
 0000:000C6F42       aA_14
 0000:000C6F44       aA_15
 0000:000C6F46       aA_16
 0000:000C6F48       aSSSSSSSSSSSSSS
 0000:000C7034       CL_to_OL_Transition_with_Delay_Base_Pulse_Width_Y_Axis
 0000:000C7074       CL_to_OL_Transition_with_Delay_Base_Pulse_Width
 0000:000C7094       CL_to_OL_Transition_Counter_Step_Value_MAF_Y_Axis
 0000:000C70BC       CL_to_OL_Transition_Counter_Step_Value_MAF
 0000:000C7148       Primary_Open_Loop_Fueling_Compensation_ECT
 0000:000C7150       a1KDzgoqYA
 0000:000C7160       aA_17
 0000:000C7162       aA_18
 0000:000C7164       aA_19
 0000:000C7166       aA_20
 0000:000C7224       Cranking_Fuel_IPW_Compensation_RPM_X_Axis
 0000:000C7238       Cranking_Fuel_IPW_Compensation_RPM_Y_Axis
 0000:000C7254       Cranking_Fuel_IPW_Compensation_RPM
 0000:000C7508       Throttle_Tipin_Enrichment_Y_Axis
 0000:000C7550       Throttle_Tipin_Enrichment
 0000:000C7574       Tipin_Enrichment_Compensation_ECT
 0000:000C75E4       Boost_Limit_Fuel_Cut_Y_Axis
 0000:000C75FC       Boost_Limit_Fuel_Cut
 0000:000C7648       Injector_Latency_Y_Axis
 0000:000C765C       Injector_Latency
 0000:000C76FC       Per_Injector_Primary_Fuel_Offset_Compensation_A_X_Axis
 0000:000C771C       Per_Injector_Primary_Fuel_Offset_Compensation_A_Y_Axis
 0000:000C774C       Per_Injector_Primary_Fuel_Offset_Compensation_A
 0000:000C77AC       Per_Injector_Primary_Fuel_Offset_Compensation_B_X_Axis
 0000:000C77CC       Per_Injector_Primary_Fuel_Offset_Compensation_B_Y_Axis
 0000:000C77D0       Cranking_Fuel_IPW_Compensation_A_RPM_X_Axis
 0000:000C77E4       Cranking_Fuel_IPW_Compensation_A_RPM_Y_Axis
 0000:000C77FC       Per_Injector_Primary_Fuel_Offset_Compensation_B
 0000:000C7800       Cranking_Fuel_IPW_Compensation_A_RPM
 0000:000C7838       Cranking_Fuel_IPW_Compensation_B_RPM_X_Axis
 0000:000C784C       Cranking_Fuel_IPW_Compensation_B_RPM_Y_Axis
 0000:000C785C       Per_Injector_Primary_Fuel_Offset_Compensation_C_X_Axis
 0000:000C7868       Cranking_Fuel_IPW_Compensation_B_RPM
 0000:000C787C       Per_Injector_Primary_Fuel_Offset_Compensation_C_Y_Axis
 0000:000C78AC       Per_Injector_Primary_Fuel_Offset_Compensation_C
 0000:000C78FC       Min_Primary_Base_Enrichment_1_A_Y_Axis
 0000:000C790C       Per_Injector_Primary_Fuel_Offset_Compensation_D_X_Axis
 0000:000C791C       Min_Primary_Base_Enrichment_1_A
 0000:000C792C       Per_Injector_Primary_Fuel_Offset_Compensation_D_Y_Axis
 0000:000C795C       Per_Injector_Primary_Fuel_Offset_Compensation_D
 0000:000C799C       Min_Primary_Base_Enrichment_1_B_Y_Axis
 0000:000C79BC       Min_Primary_Base_Enrichment_1_B
 0000:000C7A3C       Min_Primary_Base_Enrichment_1_NonPrimary_OL_X_Axis
 0000:000C7A64       Min_Primary_Base_Enrichment_1_NonPrimary_OL_Y_Axis
 0000:000C7A70       Min_Primary_Base_Enrichment_1_NonPrimary_OL
 0000:000C7AA4       Primary_Open_Loop_Fueling_X_Axis
 0000:000C7AE0       Primary_Open_Loop_Fueling_Y_Axis
 0000:000C7B28       Primary_Open_Loop_Fueling
 0000:000C7C4C       Primary_Open_Loop_Fueling_Failsafe_X_Axis
 0000:000C7C88       Primary_Open_Loop_Fueling_Failsafe_Y_Axis
 0000:000C7CD0       Primary_Open_Loop_Fueling_Failsafe
 0000:000C7DE0       Per_Injector_Pulse_Width_Compensation_A_X_Axis
 0000:000C7E24       Per_Injector_Pulse_Width_Compensation_A_Y_Axis
 0000:000C7E60       Per_Injector_Pulse_Width_Compensation_A
 0000:000C7F60       Per_Injector_Pulse_Width_Compensation_B_X_Axis
 0000:000C7FA4       Per_Injector_Pulse_Width_Compensation_B_Y_Axis
 0000:000C7FE0       Per_Injector_Pulse_Width_Compensation_B
 0000:000C80E0       Per_Injector_Pulse_Width_Compensation_C_X_Axis
 0000:000C8124       Per_Injector_Pulse_Width_Compensation_C_Y_Axis
 0000:000C813C       Fine_Correction_Range_RPM
 0000:000C8160       Per_Injector_Pulse_Width_Compensation_C
 0000:000C81B0       Base_Timing_Idle_Y_Axis
 0000:000C8260       Per_Injector_Pulse_Width_Compensation_D_X_Axis
 0000:000C82A4       Per_Injector_Pulse_Width_Compensation_D_Y_Axis
 0000:000C82E0       Per_Injector_Pulse_Width_Compensation_D
 0000:000C830D       Base_Timing_Idle
 0000:000C8610       CL_Fueling_Target_Compensation_A_ECT_Y_Axis
 0000:000C861C       CL_Fueling_Target_Compensation_A_ECT
 0000:000C86C4       CL_Fueling_Target_Compensation_B_ECT_Y_Axis
 0000:000C86D0       CL_Fueling_Target_Compensation_B_ECT
 0000:000C86E0       aA_21
 0000:000C86E2       aA_22
 0000:000C86E4       aA_23
 0000:000C86E6       aA_24
 0000:000C86E8       aAdadadadjfjfjf
 0000:000C8704       aA_25
 0000:000C8706       aA_26
 0000:000C8730       Timing_Compensation_Per_Cylinder_A___Y_Axis
 0000:000C8748       CL_Fueling_Target_Compensation_Load_X_Axis
 0000:000C8768       Timing_Compensation_Per_Cylinder_A__
 0000:000C8774       CL_Fueling_Target_Compensation_Load_Y_Axis
 0000:000C8778       Timing_Compensation_Per_Cylinder_B___Y_Axis
 0000:000C879C       CL_Fueling_Target_Compensation_Load
 0000:000C87B0       Timing_Compensation_Per_Cylinder_B__
 0000:000C87C0       Timing_Compensation_Per_Cylinder_C___Y_Axis
 0000:000C87F8       Timing_Compensation_Per_Cylinder_C__
 0000:000C8808       Timing_Compensation_Per_Cylinder_D___Y_Axis
 0000:000C8840       Timing_Compensation_Per_Cylinder_D__
 0000:000C8860       CL_Fueling_Target_Compensation_A_Load_X_Axis
 0000:000C8876       aYLSss?
 0000:000C888C       CL_Fueling_Target_Compensation_A_Load_Y_Axis
 0000:000C88B4       CL_Fueling_Target_Compensation_A_Load
 0000:000C89A8       CL_Fueling_Target_Compensation_B_Load_X_Axis
 0000:000C89D4       CL_Fueling_Target_Compensation_B_Load_Y_Axis
 0000:000C89FC       CL_Fueling_Target_Compensation_B_Load
 0000:000C9060       a33333333
 0000:000C909C       Feedback_Correction_Negative_Advance_Delay
 0000:000C90AA       Fine_Correction_Advance_Delay
 0000:000C90CC       Timing_Comp_Maximum_RPM_Per_Cylinder
 0000:000C90D0       Timing_Comp_Minimum_Load_Per_Cylinder
 0000:000C90D4       Timing_Comp_Minimum_Coolant_Temp_Per_Cylinder
 0000:000C90D8       Feedback_Correction_Minimum_Load
 0000:000C90E0       Feedback_Correction_Range_RPM
 0000:000C90F8       Feedback_Correction_Retard_Limit
 0000:000C90FC       Feedback_Correction_Retard_Value
 0000:000C9104       Feedback_Correction_Negative_Advance_Value
 0000:000C910C       Extended_Feedback_Correction_High_RPM_Compensation
 0000:000C9118       Fine_Correction_Minimum_RPM
 0000:000C91A8       Rough_Correction_Range_RPM
 0000:000C91B8       Rough_Correction_Range_Load
 0000:000C91C8       Rough_Correction_Minimum_KC_Advance_Map_Value
 0000:000C91CC       Advance_Multiplier_Initial
 0000:000C91D0       Advance_Multiplier_Step_Value
 0000:000C91F8       Fine_Correction_Columns_Load
 0000:000C9208       Fine_Correction_Rows_RPM
 0000:000C9228       Fine_Correction_Advance_Limit
 0000:000C922C       Fine_Correction_Advance_Value
 0000:000C9230       Fine_Correction_Retard_Limit
 0000:000C9234       Fine_Correction_Retard_Value
 0000:000C9238       Fine_Correction_Maximum_RPM
 0000:000C9240       Fine_Correction_Range_Load
 0000:000C928C       a?333?333?333?3
 0000:000C92F0       Base_Timing_Idle_Minimum_Vehicle_Speed_Enable
 0000:000C93F4       aLLB
 0000:000C9428       Timing_Compensation_B_IAT_Max_Additive
 0000:000C9444       Timing_Compensation_B_IAT_IAM_Activation
 0000:000C946C       Timing_Compensation_ECT_Y_Axis
 0000:000C94EC       Rough_Correction_Learning_Delay_Increasing_Y_Axis
 0000:000C9514       Rough_Correction_Learning_Delay_Increasing
 0000:000C951E       Base_Timing_Alternate_ECT
 0000:000C953E       aRrrrrrrrdug
 0000:000C9550       aRrrrrrdug
 0000:000C95B4       Base_Timing_Idle_Minimum_Y_Axis
 0000:000C95D8       Base_Timing_Idle_Minimum
 0000:000C95E1       Base_Timing_Idle_A_InGear
 0000:000C95F1       Base_Timing_Idle_B_InGear
 0000:000C9601       Base_Timing_Idle_A_Neutral
 0000:000C9611       Base_Timing_Idle_B_Neutral
 0000:000C9641       Timing_Compensation_ECT
 0000:000C9654       Timing_Compensation_A_IAT_Y_Axis
 0000:000C9694       Timing_Compensation_A_IAT
 0000:000C978C       aGggggggg
 0000:000C982C       a99999999
 0000:000C987C       aUuggg999
 0000:000C9944       Timing_Compensation_B_IAT_Y_Axis
 0000:000C9984       Timing_Compensation_B_IAT
 0000:000C9CA4       Timing_Compensation_Per_Cylinder_A_X_Axis
 0000:000C9CDC       Timing_Compensation_Per_Cylinder_A_Y_Axis
 0000:000C9CEC       Timing_Compensation_Per_Cylinder_A
 0000:000C9D24       Timing_Compensation_Per_Cylinder_B_X_Axis
 0000:000C9D5C       Timing_Compensation_Per_Cylinder_B_Y_Axis
 0000:000C9D6C       Timing_Compensation_Per_Cylinder_B
 0000:000C9DA4       Timing_Compensation_Per_Cylinder_C_X_Axis
 0000:000C9DDC       Timing_Compensation_Per_Cylinder_C_Y_Axis
 0000:000C9DEC       Timing_Compensation_Per_Cylinder_C
 0000:000C9E24       Timing_Compensation_Per_Cylinder_D_X_Axis
 0000:000C9E5C       Timing_Compensation_Per_Cylinder_D_Y_Axis
 0000:000C9E6C       Timing_Compensation_Per_Cylinder_D
 0000:000C9ED8       Knock_Correction_Advance_Max_X_Axis
 0000:000C9F14       Knock_Correction_Advance_Max_Y_Axis
 0000:000C9F5C       Knock_Correction_Advance_Max
 0000:000CA094       Base_Timing_X_Axis
 0000:000CA0D0       Base_Timing_Y_Axis
 0000:000CA118       Base_Timing
 0000:000CA228       Timing_Compensation_A_IAT_Activation_X_Axis
 0000:000CA248       Timing_Compensation_A_IAT_Activation_Y_Axis
 0000:000CA268       Timing_Compensation_A_IAT_Activation
 0000:000CA278       aAaaaaaaaaaaaaa
 0000:000CA478       Timing_Compensation_MRP_X_Axis
 0000:000CA48C       Timing_Compensation_MRP_Y_Axis
 0000:000CA498       Timing_Compensation_MRP
 0000:000CA4D4       aBPbPafpAfpA
 0000:000CA4E8       aA@
 0000:000CA618       Target_Throttle_Plate_Position_Requested_Torque_X_Axis
 0000:000CA65C       Target_Throttle_Plate_Position_Requested_Torque_Y_Axis
 0000:000CA69C       Target_Throttle_Plate_Position_Requested_Torque
 0000:000CA964       aP
 0000:000CA978       a@333
 0000:000CA980       aBa
 0000:000CA984       aL
 0000:000CA990       aBh
 0000:000CA994       aB
 0000:000CA998       aC
 0000:000CA99C       aA
 0000:000CA9A0       a@a_0
 0000:000CAA2C       Idle_Speed_Target_C_Y_Axis
 0000:000CAE08       Idle_Speed_Target_A
 0000:000CAE48       Idle_Speed_Target_B
 0000:000CAE88       Idle_Speed_Target_C
 0000:000CB0F8       Fuel_Temp_Sensor_Scaling_Y_Axis
 0000:000CB170       Fuel_Temp_Sensor_Scaling
 0000:000CB368       EGT_Sensor_Scaling_Y_Axis
 0000:000CB3E0       EGT_Sensor_Scaling
 0000:000CBC08       Radiator_Fan_Modes_ECT
 0000:000CBD04       Manifold_Pressure_Sensor_Limits_CEL
 0000:000CC09C       MAF_Sensor_Scaling_Y_Axis
 0000:000CC15C       MAF_Sensor_Scaling
 0000:000CC21C       Front_Oxygen_Sensor_Scaling_Y_Axis
 0000:000CC250       Front_Oxygen_Sensor_Scaling
 0000:000CC2D8       a@fff@fff@fff@c
 0000:000CC2EE       a33@fff@iss@iss
 0000:000CC7A0       aSssSss?fff?
 0000:000CC9D8       Radiator_Fan_Modes_A_ECT
 0000:000CC9E8       Radiator_Fan_Modes_B_ECT
 0000:000CC9F8       Radiator_Fan_Modes_Veh_Speed
 0000:000CCF88       dEcuId
 0000:000CD360       a?La33bs33b
 0000:000CD374       aA_0
 0000:000CD378       a@a_1
 0000:000CD37C       aA_1
 0000:000CD380       a@a_2
 0000:000CD384       a?a
 0000:000CD388       a?a_0
 0000:000CD38C       a?
 0000:000CD390       a?_0
 0000:000CD394       a?a_1
 0000:000CD398       a?a_2
 0000:000CDB8C       Intake_Cam_Advance_Angle_AVCS_X_Axis
 0000:000CDBC8       Intake_Cam_Advance_Angle_AVCS_Y_Axis
 0000:000CDC08       Intake_Cam_Advance_Angle_AVCS
 0000:000CDC14       aLLLLLLLLL
 0000:000DB808       aAtqia733atqia7
 0000:000DB81C       a@En
 0000:000DB824       a@
 0000:000DB83C       Speed_Limiting_Throttle
 0000:000DBC6C       Target_Throttle_Plate_Position_A_Requested_Torque_X_Axis
 0000:000DBCB0       Target_Throttle_Plate_Position_A_Requested_Torque_Y_Axis
 0000:000DBCF0       Target_Throttle_Plate_Position_A_Requested_Torque
 0000:000DBF10       Target_Throttle_Plate_Position_B_Requested_Torque_X_Axis
 0000:000DBF54       Target_Throttle_Plate_Position_B_Requested_Torque_Y_Axis
 0000:000DBF94       Target_Throttle_Plate_Position_B_Requested_Torque
 0000:000DC1B4       Requested_Torque_Accelerator_Pedal_X_Axis
 0000:000DC1F0       Requested_Torque_Accelerator_Pedal_Y_Axis
 0000:000DC234       Requested_Torque_Accelerator_Pedal
 0000:000E1000       dRomHoleStart
 0000:000FFAF0       dRomHoleEnd
 0000:000FFB80       Checksum_Fix
 0000:FFFF2890       E_AF_Learning_1_A_StoredExt_E44
 0000:FFFF2898       E_AF_Learning_1_B_StoredExt_E45
 0000:FFFF28A0       E_AF_Learning_1_C_StoredExt_E46
 0000:FFFF28A8       E_AF_Learning_1_D_StoredExt_E47
 0000:FFFF28F4       E_IAM_4byteExt_E31
 0000:FFFF5BFE       pMafSensorVoltage
 0000:FFFF5C9C       pIntakeAirTemp
 0000:FFFF5CAC       pCoolantTemp
 0000:FFFF5CD0       pMassAirFlow
 0000:FFFF5CD4       pAtmoPress
 0000:FFFF63C4       E_Boost_ErrorExt_E35
 0000:FFFF63C8       E_Target_Boost_4byteExt_E36
 0000:FFFF63CC       E_Turbo_Dynamics_Proportional_4byteExt_E37
 0000:FFFF63D0       E_Turbo_Dynamics_Integral_4byteExt_E34
 0000:FFFF63EC       E_Primary_Wastegate_Duty_MaximumExt_4byteExt__E77
 0000:FFFF6464       E_Manifold_Relative_Sea_Level_Pressure_4byteExt_E52
 0000:FFFF6468       E_Manifold_Relative_Pressure_4byteExt_E113
 0000:FFFF6508       E_Throttle_Plate_Opening_Angle_4byteExt_E38
 0000:FFFF6510       E_Tipin_ThrottleExt_E54
 0000:FFFF660C       E_Engine_Load_4ByteExt_E32
 0000:FFFF676C       E_AF_Sensor_1_4byteExt_E91
 0000:FFFF67B5       pClutchFlags
 0000:FFFF67D4       pVehicleSpeed
 0000:FFFF67DC       pEngineSpeed
 0000:FFFF68E5       E_Gear_CalculatedExt_E59
 0000:FFFF68F4       E_Primary_Wastegate_Duty_MaximumExt_2byteExtExt_E78
 0000:FFFF68F6       E_Turbo_Dynamics_Integral_2byteExtExt_E79
 0000:FFFF68F8       E_Turbo_Dynamics_Proportional_2byteExtExt_E80
 0000:FFFF68FC       E_AF_Correction_1_2byteExtExt_E82
 0000:FFFF6900       E_AF_Learning_1_2byteExtExt_E83
 0000:FFFF6902       E_Primary_Open_Loop_Map_Enrichment_2byteExtExt_E85
 0000:FFFF6906       E_Final_Fueling_Base_2byteExt_E124
 0000:FFFF6908       E_Engine_Load_2byteExtExt_E87
 0000:FFFF6916       E_Manifold_Relative_Sea_Level_Pressure_2byteExtExt_E89
 0000:FFFF691C       E_Target_Boost_2byteExtExt_E90
 0000:FFFF691E       E_AF_Sensor_1_2byteExtExt_E92
 0000:FFFF6924       E_Closed_Loop_Fueling_Target_2byteExt_E122
 0000:FFFF6926       E_Throttle_Plate_Opening_Angle_2byteExtExt_E93
 0000:FFFF6930       E_Feedback_Knock_Correction_1byteExtExt_E94
 0000:FFFF6933       E_Fine_Learning_Knock_Correction_1byteExtExt_E95
 0000:FFFF6935       E_IAM_1byteExtExt_E96
 0000:FFFF6B24       E_Final_Fueling_Base_4byteExt_E123
 0000:FFFF6B54       E_Primary_Enrichment_Final_4byteExt_E115
 0000:FFFF6BCC       E_AF_Correction_1_4byteExt_E81
 0000:FFFF6C14       E_Closed_Loop_Fueling_Target_4byteExt_E121
 0000:FFFF6D88       E_AF_Learning_1_4byteExt_E48
 0000:FFFF6D91       E_AF_Learning_Airflow_Range_CurrentExt_E61
 0000:FFFF6E74       E_Primary_Open_Loop_Map_Enrichment_4byteExt_E84
 0000:FFFF6FB0       E_Tipin_Enrichment_Last_CalculatedExt_E55
 0000:FFFF7008       pFlagsRevLim
 0000:FFFF7064       E_Fuel_Injector_1_Pulse_Width_4byteExt_E60
 0000:FFFF7078       E_Fuel_Injector_1_Latency_4byteExt_E50
 0000:FFFF71A0       E_Ignition_Base_TimingExt_E53
 0000:FFFF72B4       E_Knock_SumExt_E114
 0000:FFFF72DC       E_Feedback_Knock_Correction_4byteExt_E39
 0000:FFFF7320       E_Knock_Correction_Advance_IAM_onlyExt_E40
 0000:FFFF7338       E_Fine_Learning_Knock_Correction_4byteExt_E41
 0000:FFFF733E       E_Fine_Learning_Table_OffsetExt_E58
 0000:FFFF75C8       E_Target_Throttle_Plate_PositionExt_E57
 0000:FFFF75D0       E_Requested_TorqueExt_E56
 0000:FFFF7794       E_Idle_Speed_Map_SelectionExt_E49
 0000:FFFF7D54       E_Map_Ratio_PrimaryExt_E42
 0000:FFFF8945       E_CLOL_FuelingExt_E33
 0000:FFFF8D80       pRamHoleStart
 0000:FFFFBF70       pRamHoleEnd
 0000:FFFFBFBB       pMemoryResetLimit
