
 Start         Length     Name                   Class
 0000:00000000 000100000H ROM                    CODE
 0000:00000000 00000BFFFH RAM                    


  Address         Publics by Value

 0000:00000000       off_0
 0000:00002000       dCalId
 0000:00002038       aPf_24uh4tVer1_
 0000:0000209C       sPull2DFloat
 0000:00002150       sPull3DFloat
 0000:00004DB2       nullsub_5
 0000:00004DB6       nullsub_1
 0000:00004DBA       nullsub_6
 0000:00004F9E       nullsub_2
 0000:00004FE0       nullsub_7
 0000:00004FF6       nullsub_3
 0000:00004FFA       nullsub_8
 0000:00005016       nullsub_9
 0000:000050FE       nullsub_4
 0000:00005102       nullsub_10
 0000:00005172       nullsub_11
 0000:00005546       aFrcatqPmftoFkc
 0000:000064D8       nullsub_12
 0000:0000831C       sMafCalc
 0000:00008332       HOOK_MAF_JSR
 0000:00008378       hMafCalc
 0000:0000DC38       hMemoryReset
 0000:0000F97C       sMemoryReset
 0000:000123A0       hMemoryResetLimit
 0000:000126EC       aOJCJC
 0000:00014C16       HOOK_CELFLASH_JSR
 0000:00014DD0       hWgdc
 0000:00014F7A       aCoDcNcCbDuCcDu
 0000:00014FA1       aAc
 0000:00014FA7       a@b
 0000:00014FAD       a@c
 0000:00014FB3       a?bDu?c
 0000:00014FBF       aBDuC
 0000:0001533C       hRevLimDelete
 0000:000176EC       sWgdc
 0000:00017992       SBR_TARGET_BOOST_PULL
 0000:00017E60       sWgdc0
 0000:000182B8       Max_Wastegate_Duty_Limit_PostCompensation
 0000:0001BC20       a?f0?II@C
 0000:0001CC6C       SBR_Cruise_Light
 0000:00021C70       sLoadCalcs
 0000:0002212C       Engine_Load_Limit_Maximum
 0000:000240F0       Front_Oxygen_Sensor_Rich_Limit
 0000:000255EC       sClutchSwGet
 0000:000255F0       ClutchBitMask_0x80
 0000:0002A220       aCuJC
 0000:00034A80       sRevLimStart
 0000:00034A94       RevLimBitMask_0x80
 0000:00034AB6       sRevLimEnd
 0000:0003600C       aCO8AU
 0000:0003E6FC       aCOBcF
 0000:00042AC4       aOFm@A@B
 0000:0004F6E0       aDEcp0dqaadrabd
 0000:0004FA18       SsmGet_Engine_Load_Relative_P1
 0000:0004FA1E       SsmGet_Coolant_Temperature_P2
 0000:0004FA2C       SsmGet_AF_Correction_1_P3
 0000:0004FA48       SsmGet_AF_Learning_1_P4
 0000:0004FA58       SsmGet_SCV_Step_P81
 0000:0004FA5E       SsmGet_Manifold_Absolute_Pressure_P7
 0000:0004FA6C       SsmGet_Engine_Speed_P8
 0000:0004FA9A       SsmGet_Vehicle_Speed_P9
 0000:0004FAA6       SsmGet_Ignition_Total_Timing_P10
 0000:0004FAB6       SsmGet_Intake_Air_Temp_P11
 0000:0004FAC4       SsmGet_Mass_Airflow_P12
 0000:0004FAF2       SsmGet_Throttle_Opening_Angle_P13
 0000:0004FB00       SsmGet_Rear_O2_Sensor_P15
 0000:0004FB2E       SsmGet_Battery_Voltage_P17
 0000:0004FB3C       SsmGet_Mass_Airflow_Sensor_Voltage_P18
 0000:0004FB60       SsmGet_Throttle_Sensor_Voltage_P19
 0000:0004FB84       SsmGet_Fuel_Injector_1_Pulse_Width_P21
 0000:0004FB98       SsmGet_Atmospheric_Pressure_P24
 0000:0004FBB0       SsmGet_Manifold_Relative_Pressure_P25
 0000:0004FBCE       SsmGet_Fuel_Tank_Pressure_P27
 0000:0004FBDE       SsmGet_Learned_Ignition_Timing_P29
 0000:0004FBF4       SsmGet_Accelerator_Pedal_Angle_P30
 0000:0004FCD4       SsmGet_Fuel_Temperature_P31
 0000:0004FCE2       SsmGet_Fuel_Level_P35
 0000:0004FCF0       SsmGet_Primary_Wastegate_Duty_Cycle_P36
 0000:0004FCFE       SsmGet_CPC_Valve_Duty_Ratio_P38
 0000:0004FD16       SsmGet_Tumble_Valve_Position_Sensor_Right_P39
 0000:0004FD3A       SsmGet_Tumble_Valve_Position_Sensor_Left_P40
 0000:0004FD5E       SsmGet_Idle_Speed_Control_Valve_Duty_Ratio_P41
 0000:0004FD70       SsmGet_Alternator_Duty_P46
 0000:0004FD80       SsmGet_Fuel_Pump_Duty_P47
 0000:0004FD8E       SsmGet_Intake_VVT_Advance_Angle_Right_P48
 0000:0004FD9C       SsmGet_Intake_VVT_Advance_Angle_Left_P49
 0000:0004FDAA       SsmGet_Intake_OCV_Duty_Right_P50
 0000:0004FDB8       SsmGet_Intake_OCV_Duty_Left_P51
 0000:0004FDC6       SsmGet_Intake_OCV_Current_Right_P52
 0000:0004FDD4       SsmGet_Intake_OCV_Current_Left_P53
 0000:0004FDE2       SsmGet_AF_Sensor_1_Current_P54
 0000:0004FDF2       SsmGet_AF_Sensor_1_Resistance_P56
 0000:0004FDFE       SsmGet_AF_Sensor_1_P58
 0000:0004FE16       SsmGet_Switches_1_2_3
 0000:0004FF98       SsmGet_Switches_4_5_6_7_8_9
 0000:00050070       SsmGet_Switches_10_11_12_13_14_15_16_17
 0000:00050122       SsmGet_Switches_18_19_20_21_22_23_24_25
 0000:0005028A       SsmGet_Switches_26_27_28_29_30_31_32_33
 0000:0005033A       SsmGet_Switches_34_35_36_37_38_39_40_41
 0000:000503F8       SsmGet_Switches_42_43_44_45_46_47_48_49
 0000:00050410       SsmGet_Switches_50_51_52_53
 0000:00050522       SsmGet_Switches_54_55_56_57_58_59_60_61
 0000:000506A0       SsmGet_Roughness_Monitor_Cylinder_1_P63
 0000:000506A6       SsmGet_Roughness_Monitor_Cylinder_2_P64
 0000:000506AC       SsmGet_AF_Correction_3_32bit_ECU_P89
 0000:000506BC       SsmGet_AF_Learning_3_P66
 0000:000508BC       SsmGet_Roughness_Monitor_Cylinder_3_P69
 0000:000508C2       SsmGet_Roughness_Monitor_Cylinder_4_P70
 0000:00050B72       SsmGet_IAM_P90
 0000:00050B80       SsmGet_Throttle_Motor_Duty_P71
 0000:00050B90       SsmGet_Throttle_Motor_Voltage_P72
 0000:00050B9E       SsmGet_Sub_Throttle_Sensor_P73
 0000:00050BC2       SsmGet_Main_Throttle_Sensor_P74
 0000:00050BE6       SsmGet_Sub_Accelerator_Sensor_P75
 0000:00050C0A       SsmGet_Main_Accelerator_Sensor_P76
 0000:00050C2E       SsmGet_Exhaust_Gas_Temperature_P79
 0000:00050C3C       SsmGet_Cold_Start_Injector_Air_Pump_P80
 0000:00050C4A       SsmGet_Memorised_Cruise_Speed_P82
 0000:00050C8A       SsmGet_Exhaust_VVT_Advance_Angle_Right_P83
 0000:00050C96       SsmGet_Exhaust_VVT_Advance_Angle_Left_P84
 0000:00050D40       SsmGet_Exhaust_OCV_Duty_Right_P85
 0000:00050D52       SsmGet_Exhaust_OCV_Duty_Left_P86
 0000:00050D64       SsmGet_Exhaust_OCV_Current_Right_P87
 0000:00050D72       SsmGet_Exhaust_OCV_Current_Left_P88
 0000:00050D80       SsmGet_Switches_62
 0000:00050E84       SsmGet_Switches_63_64_65_66_67_68
 0000:00050EF6       CoastBitMask_0x01
 0000:00050F14       ResumeBitMask_0x01
 0000:00050F34       BrakeBitMask_0x01
 0000:00051138       SsmGet_Fine_Learning_Knock_Correction_P91
 0000:00058FC0       PtrSsmGet_Engine_Load_Relative_P1
 0000:00058FC4       PtrSsmGet_Coolant_Temperature_P2
 0000:00058FC8       PtrSsmGet_AF_Correction_1_P3
 0000:00058FCC       PtrSsmGet_AF_Learning_1_P4
 0000:00058FD0       PtrSsmGet_AF_Correction_2_P5
 0000:00058FD4       PtrSsmGet_AF_Learning_2_P6
 0000:00058FD8       PtrSsmGet_Manifold_Absolute_Pressure_P7
 0000:00058FDC       PtrSsmGet_Engine_Speed_P8
 0000:00058FE4       PtrSsmGet_Vehicle_Speed_P9
 0000:00058FE8       PtrSsmGet_Ignition_Total_Timing_P10
 0000:00058FEC       PtrSsmGet_Intake_Air_Temperature_P11
 0000:00058FF0       PtrSsmGet_Mass_Airflow_P12
 0000:00058FF8       PtrSsmGet_Throttle_Opening_Angle_P13
 0000:00058FFC       PtrSsmGet_Front_O2_Sensor_1_P14
 0000:00059004       PtrSsmGet_Rear_O2_Sensor_P15
 0000:0005900C       PtrSsmGet_Front_O2_Sensor_2_P16
 0000:00059014       PtrSsmGet_Battery_Voltage_P17
 0000:00059018       PtrSsmGet_Mass_Airflow_Sensor_Voltage_P18
 0000:0005901C       PtrSsmGet_Throttle_Sensor_Voltage_P19
 0000:00059020       PtrSsmGet_Differential_Pressure_Sensor_Voltage_P20
 0000:00059024       PtrSsmGet_Fuel_Injector_1_Pulse_Width_P21
 0000:00059028       PtrSsmGet_Fuel_Injector_2_Pulse_Width_P22
 0000:0005902C       PtrSsmGet_Knock_Correction_Advance_P23
 0000:00059030       PtrSsmGet_Atmospheric_Pressure_P24
 0000:00059034       PtrSsmGet_Manifold_Relative_Pressure_P25
 0000:00059038       PtrSsmGet_Pressure_Differential_Sensor_P26
 0000:0005903C       PtrSsmGet_Fuel_Tank_Pressure_P27
 0000:00059040       PtrSsmGet_CO_Adjustment_P28
 0000:00059044       PtrSsmGet_Learned_Ignition_Timing_P29
 0000:00059048       PtrSsmGet_Accelerator_Pedal_Angle_P30
 0000:0005904C       PtrSsmGet_Fuel_Temperature_P31
 0000:00059050       PtrSsmGet_Front_O2_Heater_Current_1_P32
 0000:00059054       PtrSsmGet_Rear_O2_Heater_Current_P33
 0000:00059058       PtrSsmGet_Front_O2_Heater_Current_2_P34
 0000:0005905C       PtrSsmGet_Fuel_Level_P35
 0000:00059064       PtrSsmGet_Primary_Wastegate_Duty_Cycle_P36
 0000:00059068       PtrSsmGet_Secondary_Wastegate_Duty_Cycle_P37
 0000:0005906C       PtrSsmGet_CPC_Valve_Duty_Ratio_P38
 0000:00059070       PtrSsmGet_Tumble_Valve_Position_Sensor_Right_P39
 0000:00059074       PtrSsmGet_Tumble_Valve_Position_Sensor_Left_P40
 0000:00059078       PtrSsmGet_Idle_Speed_Control_Valve_Duty_Ratio_P41
 0000:0005907C       PtrSsmGet_AF_Lean_Correction_P42
 0000:00059080       PtrSsmGet_AF_Heater_Duty_P43
 0000:00059084       PtrSsmGet_Idle_Speed_Control_Valve_Step_P44
 0000:00059088       PtrSsmGet_Number_of_Exh_Gas_Recirc_Steps_P45
 0000:0005908C       PtrSsmGet_Alternator_Duty_P46
 0000:00059090       PtrSsmGet_Fuel_Pump_Duty_P47
 0000:00059094       PtrSsmGet_Intake_VVT_Advance_Angle_Right_P48
 0000:00059098       PtrSsmGet_Intake_VVT_Advance_Angle_Left_P49
 0000:0005909C       PtrSsmGet_Intake_OCV_Duty_Right_P50
 0000:000590A0       PtrSsmGet_Intake_OCV_Duty_Left_P51
 0000:000590A4       PtrSsmGet_Intake_OCV_Current_Right_P52
 0000:000590A8       PtrSsmGet_Intake_OCV_Current_Left_P53
 0000:000590AC       PtrSsmGet_AF_Sensor_1_Current_P54
 0000:000590B0       PtrSsmGet_AF_Sensor_2_Current_P55
 0000:000590B4       PtrSsmGet_AF_Sensor_1_Resistance_P56
 0000:000590B8       PtrSsmGet_AF_Sensor_2_Resistance_P57
 0000:000590BC       PtrSsmGet_AF_Sensor_1_P58
 0000:000590C0       PtrSsmGet_AF_Sensor_2_P59
 0000:000590CC       PtrSsmGet_Gear_Position_P60
 0000:000590F0       PtrSsmGet_AF_Sensor_1_Heater_Current_P61
 0000:000590F4       PtrSsmGet_AF_Sensor_2_Heater_Current_P62
 0000:00059128       PtrSsmGet_Switches_1_2_3
 0000:0005912C       PtrSsmGet_Switches_4_5_6_7_8_9
 0000:00059130       PtrSsmGet_Switches_10_11_12_13_14_15_16_17
 0000:00059134       PtrSsmGet_Switches_18_19_20_21_22_23_24_25
 0000:00059138       PtrSsmGet_Switches_26_27_28_29_30_31_32_33
 0000:0005913C       PtrSsmGet_Switches_34_35_36_37_38_39_40_41
 0000:00059140       PtrSsmGet_Switches_42_43_44_45_46_47_48_49
 0000:00059144       PtrSsmGet_Switches_50_51_52_53
 0000:00059148       PtrSsmGet_Switches_54_55_56_57_58_59_60_61
 0000:000592DC       PtrSsmGet_Roughness_Monitor_Cylinder_1_P63
 0000:000592E0       PtrSsmGet_Roughness_Monitor_Cylinder_2_P64
 0000:000592E4       PtrSsmGet_AF_Correction_3_32bit_ECU_P89
 0000:000592E8       PtrSsmGet_AF_Learning_3_P66
 0000:000592EC       PtrSsmGet_Rear_O2_Heater_Voltage_P67
 0000:000592F0       PtrSsmGet_AF_Adjustment_Voltage_P68
 0000:00059304       PtrSsmGet_Roughness_Monitor_Cylinder_3_P69
 0000:00059308       PtrSsmGet_Roughness_Monitor_Cylinder_4_P70
 0000:00059388       PtrSsmGet_IAM_P90
 0000:0005938C       PtrSsmGet_Throttle_Motor_Duty_P71
 0000:00059390       PtrSsmGet_Throttle_Motor_Voltage_P72
 0000:000593A4       PtrSsmGet_Sub_Throttle_Sensor_P73
 0000:000593A8       PtrSsmGet_Main_Throttle_Sensor_P74
 0000:000593AC       PtrSsmGet_Sub_Accelerator_Sensor_P75
 0000:000593B0       PtrSsmGet_Main_Accelerator_Sensor_P76
 0000:000593B4       PtrSsmGet_Brake_Booster_Pressure_P77
 0000:000593B8       PtrSsmGet_Fuel_Pressure_High_P78
 0000:000593BC       PtrSsmGet_Exhaust_Gas_Temperature_P79
 0000:000593C4       PtrSsmGet_Cold_Start_Injector_Air_Pump_P80
 0000:000593C8       PtrSsmGet_SCV_Step_P81
 0000:000593CC       PtrSsmGet_Memorised_Cruise_Speed_P82
 0000:00059404       PtrSsmGet_Exhaust_VVT_Advance_Angle_Right_P83
 0000:00059408       PtrSsmGet_Exhaust_VVT_Advance_Angle_Left_P84
 0000:0005940C       PtrSsmGet_Exhaust_OCV_Duty_Right_P85
 0000:00059410       PtrSsmGet_Exhaust_OCV_Duty_Left_P86
 0000:00059414       PtrSsmGet_Exhaust_OCV_Current_Right_P87
 0000:00059418       PtrSsmGet_Exhaust_OCV_Current_Left_P88
 0000:00059424       PtrSsmGet_Switches_62
 0000:00059428       PtrSsmGet_Switches_63_64_65_66_67_68
 0000:00059608       PtrSsmGet_Fine_Learning_Knock_Correction_P91
 0000:0005AAF8       a34512345
 0000:0006CB84       aCJC
 0000:0006EA7C       aCOC
 0000:0006FD34       aCOOOf0O
 0000:00072E64       aCoDstCm3P
 0000:0007312C       aCoDstCm3P_0
 0000:00082730       aCJCoEEZEcA
 0000:0008AEC8       P0335_CRANKSHAFT_POS_SENSOR_A_MALFUNCTION
 0000:0008AEC9       P0336_CRANKSHAFT_POS_SENSOR_A_RANGEPERF
 0000:0008AECC       P0604_CONTROL_MODULE_RAM_ERROR
 0000:0008AECD       P0102_MAF_SENSOR_LOW_INPUT
 0000:0008AECE       P0103_MAF_SENSOR_HIGH_INPUT
 0000:0008AED2       P0327_KNOCK_SENSOR_1_LOW_INPUT
 0000:0008AED3       P0328_KNOCK_SENSOR_1_HIGH_INPUT
 0000:0008AED4       P0122_TPS_A_LOW_INPUT
 0000:0008AED5       P0123_TPS_A_HIGH_INPUT
 0000:0008AED6       P0117_COOLANT_TEMP_SENSOR_LOW_INPUT
 0000:0008AED7       P0118_COOLANT_TEMP_SENSOR_HIGH_INPUT
 0000:0008AED8       P0464_FUEL_LEVEL_SENSOR_INTERMITTENT
 0000:0008AED9       P0125_INSUFFICIENT_COOLANT_TEMP_FUELING
 0000:0008AEDA       P0462_FUEL_LEVEL_SENSOR_LOW_INPUT
 0000:0008AEDB       P0463_FUEL_LEVEL_SENSOR_HIGH_INPUT
 0000:0008AEDC       P0461_FUEL_LEVEL_SENSOR_RANGEPERF
 0000:0008AEDE       P1518_STARTER_SWITCH_LOW_INPUT
 0000:0008AEDF       P0512_STARTER_REQUEST_CIRCUIT
 0000:0008AEE0       P0452_EVAP_PRESSURE_SENSOR_LOW_INPUT
 0000:0008AEE1       P0453_EVAP_PRESSURE_SENSOR_HIGH_INPUT
 0000:0008AEE2       P0451_EVAP_PRESSURE_SENSOR_RANGEPERF
 0000:0008AEE3       P0851_NEUTRAL_SWITCH_INPUT_LOW
 0000:0008AEE4       P0182_FUEL_TEMP_SENSOR_A_LOW_INPUT
 0000:0008AEE5       P0183_FUEL_TEMP_SENSOR_A_HIGH_INPUT
 0000:0008AEE6       P0181_FUEL_TEMP_SENSOR_A_RANGEPERF
 0000:0008AEE7       P0852_NEUTRAL_SWITCH_INPUT_HIGH
 0000:0008AEF0       P0506_IDLE_CONTROL_RPM_LOWER_THAN_EXPECTED
 0000:0008AEF1       P0507_IDLE_CONTROL_RPM_HIGH_THAN_EXPECTED
 0000:0008AEF2       P0691_RADIATOR_FAN_CIRCUIT_LOW
 0000:0008AEF3       P0692_RADIATOR_FAN_CIRCUIT_HIGH
 0000:0008AEF4       P0483_RADIATOR_FAN_RATIONALITY_CHECK
 0000:0008AEF5       P0011_CAMSHAFT_POS__TIMING_OVERADVANCED_1
 0000:0008AEF6       P0021_CAMSHAFT_POS__TIMING_OVERADVANCED_2
 0000:0008AEF7       P1400_FUEL_TANK_PRESSURE_SOL_LOW
 0000:0008AEF8       P1420_FUEL_TANK_PRESSURE_SOL_HIGH_INPUT
 0000:0008AEF9       P0458_EVAP_PURGE_VALVE_CIRCUIT_LOW
 0000:0008AEFA       P0459_EVAP_PURGE_VALVE_CIRCUIT_HIGH
 0000:0008AEFB       P1443_VENT_CONTROL_SOLENOID_FUNCTION_PROBLEM
 0000:0008AEFC       P0447_EVAP_VENT_CONTROL_CIRCUIT_OPEN
 0000:0008AEFD       P0448_EVAP_VENT_CONTROL_CIRCUIT_SHORTED
 0000:0008AEFE       P0133_FRONT_O2_SENSOR_SLOW_RESPONSE
 0000:0008AEFF       P0139_REAR_O2_SENSOR_SLOW_RESPONSE
 0000:0008AF00       P1152_FRONT_O2_SENSOR_RANGEPERF_LOW_B1_S1
 0000:0008AF01       P1153_FRONT_O2_SENSOR_RANGEPERF_HIGH_B1_S1
 0000:0008AF04       P0420_CAT_EFFICIENCY_BELOW_THRESHOLD
 0000:0008AF05       P0442_EVAP_LEAK_DETECTED_SMALL
 0000:0008AF06       P0456_EVAP_LEAK_DETECTED_VERY_SMALL
 0000:0008AF08       P0171_SYSTEM_TOO_LEAN
 0000:0008AF09       P0172_SYSTEM_TOO_RICH
 0000:0008AF0A       P0301_MISFIRE_CYLINDER_1
 0000:0008AF0B       P0302_MISFIRE_CYLINDER_2
 0000:0008AF0C       P0303_MISFIRE_CYLINDER_3
 0000:0008AF0D       P0304_MISFIRE_CYLINDER_4
 0000:0008AF10       P0457_EVAP_LEAK_DETECTED_FUEL_CAP
 0000:0008AF11       P0000_PASS_CODE_NO_DTC_DETECTED
 0000:0008AF12       P0000_PASS_CODE_NO_DTC_DETECTED_
 0000:0008AF13       P0137_REAR_O2_SENSOR_LOW_VOLTAGE
 0000:0008AF14       P0131_FRONT_O2_SENSOR_LOW_INPUT
 0000:0008AF16       P0132_FRONT_O2_SENSOR_HIGH_INPUT
 0000:0008AF18       P0138_REAR_O2_SENSOR_HIGH_VOLTAGE
 0000:0008AF1A       P0112_IAT_SENSOR_LOW_INPUT
 0000:0008AF1B       P0113_IAT_SENSOR_HIGH_INPUT
 0000:0008AF1C       P0111_IAT_SENSOR_RANGEPERF
 0000:0008AF1D       P0038_REAR_O2_SENSOR_HIGH_INPUT
 0000:0008AF1E       P0032_FRONT_O2_SENSOR_HIGH_INPUT
 0000:0008AF1F       P0037_REAR_O2_SENSOR_LOW_INPUT
 0000:0008AF20       P0031_FRONT_O2_SENSOR_LOW_INPUT
 0000:0008AF21       P0107_MAP_SENSOR_LOW_INPUT
 0000:0008AF22       P0108_MAP_SENSOR_HIGH_INPUT
 0000:0008AF27       P0128_THERMOSTAT_MALFUNCTION
 0000:0008AF28       P1491_PCV_BLOWBY_FUNCTION_PROBLEM
 0000:0008AF29       P1560_BACKUP_VOLTAGE_MALFUNCTION
 0000:0008AF2C       P0245_WASTEGATE_SOLENOID_A_LOW
 0000:0008AF2D       P0246_WASTEGATE_SOLENOID_A_HIGH
 0000:0008AF2E       P0244_WASTEGATE_SOLENOID_A_RANGEPERF
 0000:0008AF37       P0502_VEHICLE_SPEED_SENSOR_LOW_INPUT
 0000:0008AF38       P0230_FUEL_PUMP_PRIMARY_CIRCUIT
 0000:0008AF39       P0068_MAP_SENSOR_RANGEPERF
 0000:0008AF3A       P0519_IDLE_CONTROL_MALFUNCTION_FAILSAFE
 0000:0008AF3B       P0101_MAF_SENSOR_RANGEPERF
 0000:0008AF3D       P0134_FRONT_O2_SENSOR_NO_ACTIVITY
 0000:0008AF3F       P0030_FRONT_O2_SENSOR_RANGEPERF
 0000:0008AF40       P0503_VEHICLE_SPEED_SENSOR_INTERMITTENT
 0000:0008AF46       P2109_TPS_A_MINIMUM_STOP_PERF
 0000:0008AF47       P0222_TPS_B_LOW_INPUT
 0000:0008AF48       P0223_TPS_B_HIGH_INPUT
 0000:0008AF49       P1160_ABNORMAL_RETURN_SPRING
 0000:0008AF4A       P2102_THROTTLE_ACTUATOR_CIRCUIT_LOW
 0000:0008AF4B       P2103_THROTTLE_ACTUATOR_CIRCUIT_HIGH
 0000:0008AF4C       P2101_THROTTLE_ACTUATOR_CIRCUIT_RANGEPERF
 0000:0008AF4D       P2096_POST_CATALYST_TOO_LEAN_B1
 0000:0008AF4E       P0638_THROTTLE_ACTUATOR_RANGEPERF
 0000:0008AF4F       P0607_CONTROL_MODULE_PERFORMANCE
 0000:0008AF50       P2138_TPS_DE_VOLTAGE
 0000:0008AF51       P2127_TPS_E_CIRCUIT_LOW_INPUT
 0000:0008AF52       P2128_TPS_E_CIRCUIT_HIGH_INPUT
 0000:0008AF53       P2122_TPS_D_CIRCUIT_LOW_INPUT
 0000:0008AF54       P2123_TPS_D_CIRCUIT_HIGH_INPUT
 0000:0008AF55       P2135_TPS_AB_VOLTAGE
 0000:0008AF56       P2097_POST_CATALYST_TOO_RICH_B1
 0000:0008AF57       P0600_SERIAL_COMMUNICATION_LINK
 0000:0008AF5A       P0345_CAMSHAFT_POS_SENSOR_A_BANK_2
 0000:0008AF5B       P0340_CAMSHAFT_POS_SENSOR_A_MALFUNCTION_
 0000:0008AF5C       P0605_CONTROL_MODULE_ROM_ERROR
 0000:0008AF61       P2093_OCV_SOLENOID_A2_CIRCUIT_SHORT
 0000:0008AF62       P2092_OCV_SOLENOID_A2_CIRCUIT_OPEN
 0000:0008AF63       P2089_OCV_SOLENOID_A1_CIRCUIT_SHORT
 0000:0008AF64       P2088_OCV_SOLENOID_A1_CIRCUIT_OPEN
 0000:0008AF68       P0700_TRANSMISSION_CONTROL_SYSTEM
 0000:0008AF73       P2004_TGV__INTAKE_MANIFOLD_RUNNER_1_STUCK_OPEN
 0000:0008AF74       P2006_TGV__INTAKE_MANIFOLD_RUNNER_1_STUCK_CLOSED
 0000:0008AF75       P2005_TGV__INTAKE_MANIFOLD_RUNNER_2_STUCK_OPEN
 0000:0008AF76       P2007_TGV__INTAKE_MANIFOLD_RUNNER_2_STUCK_CLOSED
 0000:0008AF78       P0126_INSUFFICIENT_COOLANT_TEMP_OPERATION
 0000:0008AF7B       P2016_TGV__INTAKE_MANIFOLD_RUNNER_1_POS_SENSOR_LOW
 0000:0008AF7C       P2017_TGV__INTAKE_MANIFOLD_RUNNER_1_POS_SENSOR_HIGH
 0000:0008AF7D       P2021_TGV__INTAKE_MANIFOLD_RUNNER_2_POS_SENSOR_LOW
 0000:0008AF7E       P2022_TGV__INTAKE_MANIFOLD_RUNNER_2_POS_SENSOR_HIGH
 0000:0008AF7F       P2009_TGV__INTAKE_MANIFOLD_RUNNER_1_CIRCUIT_LOW
 0000:0008AF80       P2012_TGV__INTAKE_MANIFOLD_RUNNER_2_CIRCUIT_LOW
 0000:0008AF81       P2008_TGV__INTAKE_MANIFOLD_RUNNER_1_CIRCUIT_OPEN
 0000:0008AF82       P2011_TGV__INTAKE_MANIFOLD_RUNNER_2_CIRCUIT_OPEN
 0000:0008AF83       P2444_SECONDARY_AIR_PUMP_1_STUCK_ON_B1
 0000:0008AF84       P0411_SECONDARY_AIR_PUMP_INCORRECT_FLOW
 0000:0008AF85       P0410_SECONDARY_AIR_PUMP_SYSTEM
 0000:0008AF86       P2431_SECONDARY_AIR_PUMP_CIRCUIT_RANGEPERF
 0000:0008AF87       P2433_SECONDARY_AIR_PUMP_CIRCUIT_HIGH
 0000:0008AF88       P2432_SECONDARY_AIR_PUMP_CIRCUIT_LOW
 0000:0008AF89       P0413_SECONDARY_AIR_PUMP_A_OPEN
 0000:0008AF8A       P0418_SECONDARY_AIR_PUMP_RELAY_A
 0000:0008AF8B       P0140_REAR_O2_SENSOR_NO_ACTIVITY
 0000:0008AF8D       P1602_CONTROL_MODULE_PROGRAMMING_ERROR
 0000:0008AF8E       P0414_SECONDARY_AIR_PUMP_A_SHORTED
 0000:0008AF8F       P1418_SECONDARY_AIR_PUMP_CIRCUIT_SHORTED
 0000:0008AF90       P0018_CRANKSHAFTCAMSHAFT_CORRELATION_2A
 0000:0008AF91       P0016_CRANKSHAFTCAMSHAFT_CORRELATION_1A
 0000:0008AF92       P1410_SECONDARY_AIR_PUMP_VALVE_STUCK_OPEN
 0000:0008AF93       P2443_SECONDARY_AIR_PUMP_2_STUCK_CLOSED
 0000:0008AF94       P2442_SECONDARY_AIR_PUMP_VALVE_2_STUCK_OPEN
 0000:0008AF95       P2441_SECONDARY_AIR_PUMP_VALVE_1_STUCK_CLOSED
 0000:0008AF96       P2440_SECONDARY_AIR_PUMP_VALVE_1_STUCK_OPEN
 0000:0008AF97       P0417_SECONDARY_AIR_PUMP_B_SHORTED
 0000:0008AF98       P0416_SECONDARY_AIR_PUMP_B_OPEN
 0000:0008AF99       P0441_EVAP_INCORRECT_PURGE_FLOW
 0000:0008AF9A       P2419_EVAP_SWITCHING_VALVE_LOW
 0000:0008AF9B       P2420_EVAP_SWITCHING_VALVE_HIGH
 0000:0008E392       SBR_CEL_EVAL_JUMPS
 0000:0008E66E       nullsub_13
 0000:0008E672       nullsub_14
 0000:0008E9CC       sCelTrigger
 0000:0008EAE4       hCelSignal
 0000:0008F732       SBR_CEL_EVAL
 0000:00090009       aJCJo112cRt1i3f
 0000:00093D54       aCOFGlF
 0000:0009600E       Force_Pass_Readiness_Monitors
 0000:000989F8       aBBF
 0000:000993DC       Table_TD_Proportional_Compensation_IAT
 0000:000993F0       Table_TD_Integral_Negative_Compensation_IAT
 0000:00099404       Table_TD_Integral_Positive_Compensation_IAT
 0000:000994CC       Table_Target_Boost_Compensation_Atm_Pressure_Multiplier_Offset
 0000:000994E0       Table_Turbo_Dynamics_Proportional
 0000:000994F4       Table_Turbo_Dynamics_Integral_Negative
 0000:00099508       Table_Turbo_Dynamics_Integral_Positive
 0000:00099530       Table_Target_Boost_Compensation_Atm_Pressure_Multiplier
 0000:00099584       Table_InitialMax_Wastegate_Duty_Compensation_Atm_Pressure
 0000:000995F4       Table_Initial_Wastegate_Duty
 0000:0009962C       Table_Max_Wastegate_Duty
 0000:0009969C       Table_Target_Boost
 0000:00099AC0       Table_Front_Oxygen_Sensor_Compensation_Atm_Pressure
 0000:00099C40       Table_MAF_Compensation_IAT
 0000:00099C5C       Table_Engine_Load_Compensation_MP
 0000:0009A780       Table_Cranking_Fuel_IPW_Compensation_Accelerator
 0000:0009A910       Table_Primary_Open_Loop_Fueling_Compensation_Timing_Compensation
 0000:0009A924       Table_CL_to_OL_Transition_with_Delay_Throttle
 0000:0009A938       Table_Minimum_Primary_Open_Loop_Enrichment_Throttle
 0000:0009A9D8       Table_Tipin_Enrichment_Compensation_Boost_Error
 0000:0009AA64       Table_Cranking_Fuel_Injector_Pulse_Width_D_ECT
 0000:0009AAA0       Table_Injector_Latency
 0000:0009AAAC       Table_Min_Primary_Base_Enrich_3_Initial_Start_1A
 0000:0009AAFC       Table_Min_Primary_Base_Enrich_2_Initial_Start_1A
 0000:0009AB38       Table_Min_Primary_Base_Enrich_2_Initial_Start_2B
 0000:0009AE50       Table_CL_to_OL_Transition_with_Delay_Base_Pulse_Width
 0000:0009AE64       Table_CL_to_OL_Transition_Counter_Step_Value_MAF
 0000:0009AFE8       Table_Boost_Limit_Fuel_Cut
 0000:0009B06C       Table_Cranking_Fuel_IPW_Compensation_A_RPM
 0000:0009B0A4       Table_Cranking_Fuel_IPW_Compensation_B_RPM
 0000:0009B0F8       Table_Min_Primary_Base_Enrichment_1_A
 0000:0009B130       Table_Min_Primary_Base_Enrichment_1_NonPrimary_OL
 0000:0009B168       Table_Primary_Open_Loop_Fueling
 0000:0009B1A0       Table_Primary_Open_Loop_Fueling_Failsafe
 0000:0009B328       Table_CL_Fueling_Target_Compensation_A_Load
 0000:0009B360       Table_CL_Fueling_Target_Compensation_B_Load
 0000:0009B5F0       Table_Base_Timing_Idle_Minimum
 0000:0009B7A8       Table_Rough_Correction_Learning_Delay_Increasing
 0000:0009B8E0       Table_Base_Timing
 0000:0009B8FC       Table_Timing_Compensation_A_IAT_Activation
 0000:0009B9F8       Table_Timing_Compensation_MRP
 0000:0009BA14       Table_Timing_Compensation_Per_Cylinder_A
 0000:0009BA30       Table_Timing_Compensation_Per_Cylinder_B
 0000:0009BA4C       Table_Timing_Compensation_Per_Cylinder_C
 0000:0009BA68       Table_Timing_Compensation_Per_Cylinder_D
 0000:0009BABC       Table_Knock_Correction_Advance_Max
 0000:0009BD24       Table_Idle_Speed_Target_C
 0000:0009C288       Table_Requested_Torque_Accelerator_Pedal
 0000:0009C3AC       Table_MAF_Sensor_Scaling
 0000:0009C3B8       Table_Front_Oxygen_Sensor_Scaling
 0000:0009C7E0       Table_Intake_Cam_Advance_Angle_AVCS
 0000:0009C824       Coolant_Temp_Sensor_Scaling_Y_Axis
 0000:0009C894       Coolant_Temp_Sensor_Scaling
 0000:0009C904       Intake_Temp_Sensor_Scaling_Y_Axis
 0000:0009C97C       Intake_Temp_Sensor_Scaling
 0000:000BF2A4       aMsr_rfcc1_00r1
 0000:000C0000       aA8dk101x
 0000:000C0250       Atmospheric_Pressure_Sensor_Scaling
 0000:000C028C       Manifold_Pressure_Sensor_Scaling
 0000:000C05C5       Boost_Control_Disable_Delay_Fine_Correction
 0000:000C05D8       TD_Activation_Thresholds_Target_Boost
 0000:000C05E4       TD_Integral_Negative_Activation_Boost_Error
 0000:000C05EC       TD_Integral_Positive_Activation_Boost_Error
 0000:000C05F0       TD_Integral_Positive_Activation_Wastegate_Duty
 0000:000C05FC       TD_Activation_Thresholds_RPM
 0000:000C0604       TD_Integral_Cumulative_Range_WGDC_Correction
 0000:000C0624       Boost_Control_Disable_Fine_Correction
 0000:000C0628       Boost_Control_Disable_IAM
 0000:000C0634       Target_Boost_Compensation_1st_Gear_Speed_Disable
 0000:000C0638       Target_Boost_Compensation_1st_Gear
 0000:000C0640       InitialMax_Wastegate_Duty_Compensation_ECT_Y_Axis
 0000:000C0680       TD_Proportional_Compensation_IAT_Y_Axis
 0000:000C0690       TD_Proportional_Compensation_IAT
 0000:000C0694       TD_Integral_Negative_Compensation_IAT_Y_Axis
 0000:000C06A4       TD_Integral_Negative_Compensation_IAT
 0000:000C06A8       TD_Integral_Positive_Compensation_IAT_Y_Axis
 0000:000C06B8       TD_Integral_Positive_Compensation_IAT
 0000:000C06C8       InitialMax_Wastegate_Duty_Compensation_IAT_Y_Axis
 0000:000C0708       InitialMax_Wastegate_Duty_Compensation_IAT
 0000:000C07C8       InitialMax_Wastegate_Duty_Compensation_ECT
 0000:000C07E8       Target_Boost_Compensation_ECT
 0000:000C080C       Target_Boost_Compensation_Atm_Pressure_Multiplier_Offset_Y_Axis
 0000:000C081C       Target_Boost_Compensation_Atm_Pressure_Multiplier_Offset
 0000:000C0820       Turbo_Dynamics_Proportional_Y_Axis
 0000:000C0844       Turbo_Dynamics_Proportional
 0000:000C0858       Turbo_Dynamics_Integral_Negative_Y_Axis
 0000:000C087C       Turbo_Dynamics_Integral_Negative
 0000:000C0890       Turbo_Dynamics_Integral_Positive_Y_Axis
 0000:000C08B4       Turbo_Dynamics_Integral_Positive
 0000:000C08E0       Target_Boost_Compensation_Atm_Pressure_Multiplier_Y_Axis
 0000:000C08F0       Target_Boost_Compensation_Atm_Pressure_Multiplier
 0000:000C0984       InitialMax_Wastegate_Duty_Compensation_Atm_Pressure_X_Axis
 0000:000C099C       InitialMax_Wastegate_Duty_Compensation_Atm_Pressure_Y_Axis
 0000:000C09AC       InitialMax_Wastegate_Duty_Compensation_Atm_Pressure
 0000:000C0A0C       Initial_Wastegate_Duty_X_Axis
 0000:000C0A2C       Initial_Wastegate_Duty_Y_Axis
 0000:000C0A4C       Initial_Wastegate_Duty
 0000:000C0AE4       Max_Wastegate_Duty_X_Axis
 0000:000C0B04       Max_Wastegate_Duty_Y_Axis
 0000:000C0B24       Max_Wastegate_Duty
 0000:000C0BEC       Target_Boost_X_Axis
 0000:000C0C0C       Target_Boost_Y_Axis
 0000:000C0C38       Target_Boost
 0000:000C1C90       aLLSss@
 0000:000C1FA0       aLLSss@_0
 0000:000C22D4       aA1?Lla?AkA
 0000:000C22E8       a@a
 0000:000C23A4       MAF_Limit_Maximum
 0000:000C23C4       dLoadSmoothingA
 0000:000C23C8       dLoadSmoothingB
 0000:000C23D4       dLoadSmoothingFinal
 0000:000C25B0       a?Pg?bgoO4?m?cA
 0000:000C262C       Gear_Determination_Thresholds
 0000:000C28C0       Front_Oxygen_Sensor_Compensation_Atm_Pressure_Y_Axis
 0000:000C28D0       Front_Oxygen_Sensor_Compensation_Atm_Pressure
 0000:000C29E4       aEMyuxQfOWfa
 0000:000C29F8       a@a_4
 0000:000C2ACC       aGUPSgoLLDc
 0000:000C2D14       MAF_Compensation_IAT_X_Axis
 0000:000C2D28       MAF_Compensation_IAT_Y_Axis
 0000:000C2D48       MAF_Compensation_IAT
 0000:000C2D70       Engine_Load_Compensation_MP_X_Axis
 0000:000C2D9C       Engine_Load_Compensation_MP_Y_Axis
 0000:000C2DD8       Engine_Load_Compensation_MP
 0000:000C33E5       Manifold_Pressure_Sensor_CEL_Delays
 0000:000C36E0       aAi33axqiazAfQc
 0000:000C3804       aA33ac33?Ss?Ssa
 0000:000C381C       a?_1
 0000:000C3820       aDma
 0000:000C3824       aB_0
 0000:000C3828       aB_1
 0000:000C382C       a?bp?a
 0000:000C3838       a?_2
 0000:000C383C       a?fff
 0000:000C3844       aA_2
 0000:000C384C       a@_1
 0000:000C39B0       aLL?333bm
 0000:000C39C4       aAa
 0000:000C39C8       a@_0
 0000:000C39D0       aBh_0
 0000:000C3BAC       aHbsahbsa@Ffd
 0000:000C3BBC       aLcxe
 0000:000C4EA0       aUPTJEAAiMshAI
 0000:000C4ED8       aD
 0000:000C5964       aS3y93333s3pd70
 0000:000C7EF8       a?sss@333@yss@y
 0000:000C7F48       a@yss@yss@yss@y
 0000:000C7F60       a@yss@yss@yss_0
 0000:000C7F78       a@yss@yss@yss_1
 0000:000C7F90       a@yss@yss@yss_2
 0000:000C84C3       Tipin_Enrichment_Disable_Applied_Counter_Threshold
 0000:000C84C4       Tipin_Enrichment_Applied_Counter_Reset
 0000:000C84C5       Tipin_Throttle_Cumulative_Reset
 0000:000C8504       CL_Delay_Engine_Load_Counter_Threshold
 0000:000C8506       CL_to_OL_Delay
 0000:000C85CC       Speed_Limiting_Enable_Fuel_Cut
 0000:000C85D8       Speed_Limiting_Disable_Fuel_Cut
 0000:000C8600       Injector_Flow_Scaling
 0000:000C8604       Min_Primary_Base_Enrich_3_Decay_Multiplier
 0000:000C861C       aLLEAUPGGG8qi?a
 0000:000C8784       a?yssL?fff?@
 0000:000C8798       a?333?s33A
 0000:000C87A4       a@a_3
 0000:000C87A8       aB_2
 0000:000C87AC       a?yss?fff?a
 0000:000C8880       AF_Learning_1_Limits
 0000:000C8890       AF_Learning_1_Airflow_Ranges
 0000:000C8968       Primary_Open_Loop_Fuel_Map_Switch_IAM
 0000:000C896C       Minimum_Active_Primary_Open_Loop_Enrichment
 0000:000C8970       CL_to_OL_Transition_with_Delay_Throttle_Hysteresis
 0000:000C8974       CL_to_OL_Transition_with_Delay_BPW_Hysteresis
 0000:000C8978       CL_Delay_Minimum_ECT
 0000:000C897C       CL_Delay_Maximum_Engine_Speed_Per_Gear
 0000:000C89CC       CL_Delay_Maximum_Engine_Speed_Neutral
 0000:000C89EC       CL_Delay_Maximum_Throttle
 0000:000C89F0       CL_Delay_Maximum_Vehicle_Speed
 0000:000C8A00       CL_Delay_Maximum_Engine_Load
 0000:000C8B98       Minimum_Tipin_Enrichment_Activation_Throttle
 0000:000C8B9C       Tipin_Enrichment_Disable_Throttle_Cumulative_Threshold
 0000:000C8BA0       Minimum_Tipin_Enrichment_Activation
 0000:000C8BE8       Rev_Limit_Fuel_Cut
 0000:000C8BF0       Rev_Limit_Fuel_Resume_Boost
 0000:000C8CBC       Min_Primary_Base_Enrich_3_Decay_Delay_B_Y_Axis
 0000:000C8D90       Cranking_Fuel_IPW_Compensation_Accelerator_Y_Axis
 0000:000C8DA8       Cranking_Fuel_IPW_Compensation_Accelerator
 0000:000C8DBE       Min_Primary_Base_Enrich_3_Decay_Delay_A
 0000:000C8DCE       Min_Primary_Base_Enrich_3_Decay_Delay_B
 0000:000C8FD4       aEeeeeeee333mfa
 0000:000C9054       Primary_Open_Loop_Fueling_Compensation_Timing_Compensation_Y_Axis
 0000:000C906C       Primary_Open_Loop_Fueling_Compensation_Timing_Compensation
 0000:000C9074       CL_to_OL_Transition_with_Delay_Throttle_Y_Axis
 0000:000C90B4       CL_to_OL_Transition_with_Delay_Throttle
 0000:000C90C4       Minimum_Primary_Open_Loop_Enrichment_Throttle_Y_Axis
 0000:000C90DC       Minimum_Primary_Open_Loop_Enrichment_Throttle
 0000:000C91AC       Tipin_Enrichment_Compensation_Boost_Error_Y_Axis
 0000:000C91D0       Tipin_Enrichment_Compensation_Boost_Error
 0000:000C922A       Cranking_Fuel_Injector_Pulse_Width_A_ECT
 0000:000C924A       Cranking_Fuel_Injector_Pulse_Width_B_ECT
 0000:000C926A       Cranking_Fuel_Injector_Pulse_Width_C_ECT
 0000:000C928A       Cranking_Fuel_Injector_Pulse_Width_D_ECT
 0000:000C92AA       Cranking_Fuel_Injector_Pulse_Width_E_ECT
 0000:000C92CA       Cranking_Fuel_Injector_Pulse_Width_F_ECT
 0000:000C92EC       Injector_Latency_Y_Axis
 0000:000C9300       Injector_Latency
 0000:000C930A       Min_Primary_Base_Enrich_3_Initial_Start_1A
 0000:000C932A       Min_Primary_Base_Enrich_3_Initial_Start_1B
 0000:000C934A       Min_Primary_Base_Enrich_3_Initial_Start_2A
 0000:000C936A       Min_Primary_Base_Enrich_3_Initial_Start_2B
 0000:000C938A       Min_Primary_Base_Enrich_2_Initial_Start_1A
 0000:000C93AA       Min_Primary_Base_Enrich_2_Initial_Start_2A
 0000:000C93CA       Min_Primary_Base_Enrich_2_Initial_Start_1B
 0000:000C93EA       Min_Primary_Base_Enrich_2_Initial_Start_2B
 0000:000C940A       Min_Primary_Base_Enrich_2_Decay_Step_1
 0000:000C942A       Min_Primary_Base_Enrich_2_Decay_Step_2
 0000:000C975C       aJfjfjfjfjfjfjf
 0000:000C977E       aA_3
 0000:000C9780       aA_4
 0000:000C9782       aA_5
 0000:000C9784       aA_6
 0000:000C9786       aA_7
 0000:000C9788       aA_8
 0000:000C978A       aA_9
 0000:000C978C       aA_10
 0000:000C978E       aA_11
 0000:000C9790       aA_12
 0000:000C9792       aA_13
 0000:000C9794       aA_14
 0000:000C9796       aA_15
 0000:000C9798       aA_16
 0000:000C979A       aA_17
 0000:000C979C       aSSSSSSSSSSSSSS
 0000:000C9994       CL_to_OL_Transition_with_Delay_Base_Pulse_Width_Y_Axis
 0000:000C99D4       CL_to_OL_Transition_with_Delay_Base_Pulse_Width
 0000:000C99F4       CL_to_OL_Transition_Counter_Step_Value_MAF_Y_Axis
 0000:000C9A1C       CL_to_OL_Transition_Counter_Step_Value_MAF
 0000:000C9AA8       Primary_Open_Loop_Fueling_Compensation_ECT
 0000:000C9AB0       a1KDzgoqYA
 0000:000C9AC0       aA_18
 0000:000C9AC2       aA_19
 0000:000C9AC4       aA_20
 0000:000C9AC6       aA_21
 0000:000C9E68       Throttle_Tipin_Enrichment_Y_Axis
 0000:000C9EB0       Throttle_Tipin_Enrichment
 0000:000C9ED4       Tipin_Enrichment_Compensation_ECT
 0000:000C9F84       Boost_Limit_Fuel_Cut_Y_Axis
 0000:000C9F9C       Boost_Limit_Fuel_Cut
 0000:000CA094       Cranking_Fuel_IPW_Compensation_A_RPM_X_Axis
 0000:000CA0A8       Cranking_Fuel_IPW_Compensation_A_RPM_Y_Axis
 0000:000CA0C4       Cranking_Fuel_IPW_Compensation_A_RPM
 0000:000CA0FC       Cranking_Fuel_IPW_Compensation_B_RPM_X_Axis
 0000:000CA110       Cranking_Fuel_IPW_Compensation_B_RPM_Y_Axis
 0000:000CA12C       Cranking_Fuel_IPW_Compensation_B_RPM
 0000:000CA1C0       Min_Primary_Base_Enrichment_1_A_Y_Axis
 0000:000CA1E0       Min_Primary_Base_Enrichment_1_A
 0000:000CA260       Min_Primary_Base_Enrichment_1_B_Y_Axis
 0000:000CA280       Min_Primary_Base_Enrichment_1_B
 0000:000CA300       Min_Primary_Base_Enrichment_1_NonPrimary_OL_X_Axis
 0000:000CA328       Min_Primary_Base_Enrichment_1_NonPrimary_OL_Y_Axis
 0000:000CA334       Min_Primary_Base_Enrichment_1_NonPrimary_OL
 0000:000CA368       Primary_Open_Loop_Fueling_X_Axis
 0000:000CA3A4       Primary_Open_Loop_Fueling_Y_Axis
 0000:000CA3EC       Primary_Open_Loop_Fueling
 0000:000CA510       Primary_Open_Loop_Fueling_Failsafe_X_Axis
 0000:000CA54C       Primary_Open_Loop_Fueling_Failsafe_Y_Axis
 0000:000CA594       Primary_Open_Loop_Fueling_Failsafe
 0000:000CA6A4       Per_Injector_Pulse_Width_Compensation_A_X_Axis
 0000:000CA6E8       Per_Injector_Pulse_Width_Compensation_A_Y_Axis
 0000:000CA724       Per_Injector_Pulse_Width_Compensation_A
 0000:000CA824       Per_Injector_Pulse_Width_Compensation_B_X_Axis
 0000:000CA868       Per_Injector_Pulse_Width_Compensation_B_Y_Axis
 0000:000CA8A4       Per_Injector_Pulse_Width_Compensation_B
 0000:000CA9A4       Per_Injector_Pulse_Width_Compensation_C_X_Axis
 0000:000CA9E8       Per_Injector_Pulse_Width_Compensation_C_Y_Axis
 0000:000CAA24       Per_Injector_Pulse_Width_Compensation_C
 0000:000CAB24       Per_Injector_Pulse_Width_Compensation_D_X_Axis
 0000:000CAB68       Per_Injector_Pulse_Width_Compensation_D_Y_Axis
 0000:000CABA4       Per_Injector_Pulse_Width_Compensation_D
 0000:000CAED4       CL_Fueling_Target_Compensation_A_ECT_Y_Axis
 0000:000CAEE0       CL_Fueling_Target_Compensation_A_ECT
 0000:000CAF88       CL_Fueling_Target_Compensation_B_ECT_Y_Axis
 0000:000CAF94       CL_Fueling_Target_Compensation_B_ECT
 0000:000CAFA4       aA_22
 0000:000CAFA6       aA_23
 0000:000CAFA8       aA_24
 0000:000CAFAA       aA_25
 0000:000CAFAC       aAdadadadjfjfjf
 0000:000CAFC8       aA_26
 0000:000CAFCA       aA_27
 0000:000CAFE0       aJfjfjfsSMAdada
 0000:000CB00C       CL_Fueling_Target_Compensation_A_Load_X_Axis
 0000:000CB038       CL_Fueling_Target_Compensation_A_Load_Y_Axis
 0000:000CB060       CL_Fueling_Target_Compensation_A_Load
 0000:000CB154       CL_Fueling_Target_Compensation_B_Load_X_Axis
 0000:000CB180       CL_Fueling_Target_Compensation_B_Load_Y_Axis
 0000:000CB1A8       CL_Fueling_Target_Compensation_B_Load
 0000:000CBA6C       a33333333
 0000:000CBAC6       Feedback_Correction_Negative_Advance_Delay
 0000:000CBAD4       Fine_Correction_Advance_Delay
 0000:000CBB20       aLLB
 0000:000CBB80       a?333?333?333?3
 0000:000CBBE4       Base_Timing_Idle_Minimum_Vehicle_Speed_Enable
 0000:000CBCF8       Timing_Compensation_B_IAT_Max_Additive
 0000:000CBD14       Timing_Compensation_B_IAT_IAM_Activation
 0000:000CBD18       Timing_Comp_Maximum_RPM_Per_Cylinder
 0000:000CBD1C       Timing_Comp_Minimum_Load_Per_Cylinder
 0000:000CBD20       Timing_Comp_Minimum_Coolant_Temp_Per_Cylinder
 0000:000CBD24       Feedback_Correction_Minimum_Load
 0000:000CBD2C       Feedback_Correction_Range_RPM
 0000:000CBD44       Feedback_Correction_Retard_Limit
 0000:000CBD48       Feedback_Correction_Retard_Value
 0000:000CBD50       Feedback_Correction_Negative_Advance_Value
 0000:000CBD58       Extended_Feedback_Correction_High_RPM_Compensation
 0000:000CBD64       Fine_Correction_Minimum_RPM
 0000:000CBDF4       Rough_Correction_Range_RPM
 0000:000CBE04       Rough_Correction_Range_Load
 0000:000CBE14       Rough_Correction_Minimum_KC_Advance_Map_Value
 0000:000CBE18       Advance_Multiplier_Initial
 0000:000CBE1C       Advance_Multiplier_Step_Value
 0000:000CBE44       Fine_Correction_Columns_Load
 0000:000CBE54       Fine_Correction_Rows_RPM
 0000:000CBE74       Fine_Correction_Advance_Limit
 0000:000CBE78       Fine_Correction_Advance_Value
 0000:000CBE7C       Fine_Correction_Retard_Limit
 0000:000CBE80       Fine_Correction_Retard_Value
 0000:000CBE84       Fine_Correction_Maximum_RPM
 0000:000CBE8C       Fine_Correction_Range_Load
 0000:000CBE9C       Timing_Compensation_ECT_Y_Axis
 0000:000CBF64       aGggggggg
 0000:000CC004       a99999999
 0000:000CC054       aUuggg999
 0000:000CC11C       Base_Timing_Alternate_ECT
 0000:000CC13C       aRrrrrrrrdug
 0000:000CC14C       aRrrrrrrrdug_0
 0000:000CC1B0       Base_Timing_Idle_Minimum_Y_Axis
 0000:000CC1D4       Base_Timing_Idle_Minimum
 0000:000CC1DD       Base_Timing_Idle_A_InGear
 0000:000CC1ED       Base_Timing_Idle_B_InGear
 0000:000CC1FD       Base_Timing_Idle_A_Neutral
 0000:000CC20D       Base_Timing_Idle_B_Neutral
 0000:000CC23D       Timing_Compensation_ECT
 0000:000CC250       Timing_Compensation_A_IAT_Y_Axis
 0000:000CC290       Timing_Compensation_A_IAT
 0000:000CC474       Timing_Compensation_B_IAT_Y_Axis
 0000:000CC4B4       Timing_Compensation_B_IAT
 0000:000CC4C4       Rough_Correction_Learning_Delay_Increasing_Y_Axis
 0000:000CC4EC       Rough_Correction_Learning_Delay_Increasing
 0000:000CC81C       Base_Timing_X_Axis
 0000:000CC858       Base_Timing_Y_Axis
 0000:000CC8A0       Base_Timing
 0000:000CC9B0       Timing_Compensation_A_IAT_Activation_X_Axis
 0000:000CC9D0       Timing_Compensation_A_IAT_Activation_Y_Axis
 0000:000CC9F0       Timing_Compensation_A_IAT_Activation
 0000:000CCA00       aAaaaaaaaaaaaaa
 0000:000CCC00       Timing_Compensation_MRP_X_Axis
 0000:000CCC14       Timing_Compensation_MRP_Y_Axis
 0000:000CCC20       Timing_Compensation_MRP
 0000:000CCC30       Timing_Compensation_Per_Cylinder_A_X_Axis
 0000:000CCC68       Timing_Compensation_Per_Cylinder_A_Y_Axis
 0000:000CCC78       Timing_Compensation_Per_Cylinder_A
 0000:000CCCB0       Timing_Compensation_Per_Cylinder_B_X_Axis
 0000:000CCCE8       Timing_Compensation_Per_Cylinder_B_Y_Axis
 0000:000CCCF8       Timing_Compensation_Per_Cylinder_B
 0000:000CCD30       Timing_Compensation_Per_Cylinder_C_X_Axis
 0000:000CCD68       Timing_Compensation_Per_Cylinder_C_Y_Axis
 0000:000CCD78       Timing_Compensation_Per_Cylinder_C
 0000:000CCDB0       Timing_Compensation_Per_Cylinder_D_X_Axis
 0000:000CCDE8       Timing_Compensation_Per_Cylinder_D_Y_Axis
 0000:000CCDF8       Timing_Compensation_Per_Cylinder_D
 0000:000CCE64       Knock_Correction_Advance_Max_X_Axis
 0000:000CCEA0       Knock_Correction_Advance_Max_Y_Axis
 0000:000CCEE8       Knock_Correction_Advance_Max
 0000:000CD038       aBPbPafpAfpA
 0000:000CD04C       aA@
 0000:000CD500       aP
 0000:000CD514       a@333
 0000:000CD51C       aBa
 0000:000CD520       aL
 0000:000CD52C       aBh
 0000:000CD530       aB
 0000:000CD534       aC
 0000:000CD538       aA
 0000:000CD53C       a@a_0
 0000:000CD544       a@@
 0000:000CD5BC       Idle_Speed_Target_C_Y_Axis
 0000:000CD998       Idle_Speed_Target_A
 0000:000CD9D8       Idle_Speed_Target_B
 0000:000CDA18       Idle_Speed_Target_C
 0000:000CE0B4       aAjffbFfbyssbjf
 0000:000CEDB6       Manifold_Pressure_Sensor_Limits_CEL
 0000:000CF044       Fuel_Temp_Sensor_Scaling_Y_Axis
 0000:000CF0BC       Fuel_Temp_Sensor_Scaling
 0000:000CF134       MAF_Sensor_Scaling_Y_Axis
 0000:000CF1F4       MAF_Sensor_Scaling
 0000:000CF2B4       Front_Oxygen_Sensor_Scaling_Y_Axis
 0000:000CF2E8       Front_Oxygen_Sensor_Scaling
 0000:000CF370       a@fff@fff@fff@c
 0000:000CF386       a33@fff@iss@iss
 0000:000CF838       aSssSss?fff?
 0000:000CFA70       Radiator_Fan_Modes_A_ECT
 0000:000CFA80       Radiator_Fan_Modes_B_ECT
 0000:000CFA90       Radiator_Fan_Modes_Veh_Speed
 0000:000D0020       dEcuId
 0000:000D0428       a?La33bs33b
 0000:000D043C       aA_0
 0000:000D0440       a@a_1
 0000:000D0444       aA_1
 0000:000D0448       a@a_2
 0000:000D044C       a?a
 0000:000D0450       a?a_0
 0000:000D0454       a?
 0000:000D0458       a?_0
 0000:000D045C       a?a_1
 0000:000D0460       a?a_2
 0000:000D0C54       Intake_Cam_Advance_Angle_AVCS_X_Axis
 0000:000D0C90       Intake_Cam_Advance_Angle_AVCS_Y_Axis
 0000:000D0CD0       Intake_Cam_Advance_Angle_AVCS
 0000:000D0CDC       aLLLLLLLLL
 0000:000DB808       aAtqia733atqia7
 0000:000DB81C       a@Ebr
 0000:000DB824       a@
 0000:000DB83C       Speed_Limiting_Throttle
 0000:000DBC6C       Target_Throttle_Plate_Position_Requested_Torque_X_Axis
 0000:000DBCB0       Target_Throttle_Plate_Position_Requested_Torque_Y_Axis
 0000:000DBCF0       Target_Throttle_Plate_Position_Requested_Torque
 0000:000DBF10       Target_Throttle_Plate_Position_Maximum_Requested_Torque_X_Axis
 0000:000DBF54       Target_Throttle_Plate_Position_Maximum_Requested_Torque_Y_Axis
 0000:000DBF94       Target_Throttle_Plate_Position_Maximum_Requested_Torque
 0000:000DC1B4       Requested_Torque_Accelerator_Pedal_X_Axis
 0000:000DC1F0       Requested_Torque_Accelerator_Pedal_Y_Axis
 0000:000DC234       Requested_Torque_Accelerator_Pedal
 0000:000E1000       dRomHoleStart
 0000:000FFB80       Checksum_Fix
 0000:FFFF2DD4       E_AF_Learning_1_A_StoredExt_E44
 0000:FFFF2DDC       E_AF_Learning_1_B_StoredExt_E45
 0000:FFFF2DE4       E_AF_Learning_1_C_StoredExt_E46
 0000:FFFF2DEC       E_AF_Learning_1_D_StoredExt_E47
 0000:FFFF2E38       E_IAM_4byteExt_E31
 0000:FFFF5C02       pMafSensorVoltage
 0000:FFFF5CA4       pIntakeAirTemp
 0000:FFFF5CB4       pCoolantTemp
 0000:FFFF5CD8       pMassAirFlow
 0000:FFFF5F10       pAf1Res
 0000:FFFF63FC       E_Boost_ErrorExt_E35
 0000:FFFF6400       E_Target_Boost_4byteExt_E36
 0000:FFFF6404       E_Turbo_Dynamics_Proportional_4byteExt_E37
 0000:FFFF6408       E_Turbo_Dynamics_Integral_4byteExt_E34
 0000:FFFF6424       E_Primary_Wastegate_Duty_MaximumExt_4byteExt__E77
 0000:FFFF650D       pCoastFlags
 0000:FFFF650E       pResumeFlags
 0000:FFFF650F       pBrakeFlags
 0000:FFFF66C4       E_CruiseLight_Trigger_66C4
 0000:FFFF66CA       E_CruiseLight_unk_FFFF66CA
 0000:FFFF6710       E_Manifold_Relative_Sea_Level_Pressure_4byteExt_E52
 0000:FFFF6714       E_Manifold_Relative_Pressure_4byteExt_E113
 0000:FFFF67B4       E_Throttle_Plate_Opening_Angle_4byteExt_E38
 0000:FFFF67BC       E_Tipin_ThrottleExt_E54
 0000:FFFF68CC       E_Engine_Load_4ByteExt_E32
 0000:FFFF6A2C       E_AF_Sensor_1_4byteExt_E91
 0000:FFFF6A89       pClutchFlags
 0000:FFFF6AA8       pVehicleSpeed
 0000:FFFF6AB0       pEngineSpeed
 0000:FFFF6BB9       E_Gear_CalculatedExt_E59
 0000:FFFF6BC8       E_Primary_Wastegate_Duty_MaximumExt_2byteExtExt_E78
 0000:FFFF6BCA       E_Turbo_Dynamics_Integral_2byteExtExt_E79
 0000:FFFF6BCC       E_Turbo_Dynamics_Proportional_2byteExtExt_E80
 0000:FFFF6BD0       E_AF_Correction_1_2byteExtExt_E82
 0000:FFFF6BD4       E_AF_Learning_1_2byteExtExt_E83
 0000:FFFF6BD6       E_Primary_Open_Loop_Map_Enrichment_2byteExtExt_E85
 0000:FFFF6BDA       E_Final_Fueling_Base_2byteExt_E124
 0000:FFFF6BDC       E_Engine_Load_2byteExtExt_E87
 0000:FFFF6BEA       E_Manifold_Relative_Sea_Level_Pressure_2byteExtExt_E89
 0000:FFFF6BF0       E_Target_Boost_2byteExtExt_E90
 0000:FFFF6BF2       E_AF_Sensor_1_2byteExtExt_E92
 0000:FFFF6BF8       E_Closed_Loop_Fueling_Target_2byteExt_E122
 0000:FFFF6BFA       E_Throttle_Plate_Opening_Angle_2byteExtExt_E93
 0000:FFFF6C04       E_Feedback_Knock_Correction_1byteExtExt_E94
 0000:FFFF6C07       E_Fine_Learning_Knock_Correction_1byteExtExt_E95
 0000:FFFF6C09       E_IAM_1byteExtExt_E96
 0000:FFFF708C       E_Final_Fueling_Base_4byteExt_E123
 0000:FFFF70BC       E_Primary_Enrichment_Final_4byteExt_E115
 0000:FFFF7138       E_AF_Correction_1_4byteExt_E81
 0000:FFFF7180       E_Closed_Loop_Fueling_Target_4byteExt_E121
 0000:FFFF72F4       E_AF_Learning_1_4byteExt_E48
 0000:FFFF72FD       E_AF_Learning_Airflow_Range_CurrentExt_E61
 0000:FFFF73E0       E_Primary_Open_Loop_Map_Enrichment_4byteExt_E84
 0000:FFFF7550       E_Tipin_Enrichment_Last_CalculatedExt_E55
 0000:FFFF75A8       pFlagsRevLim
 0000:FFFF762C       E_Fuel_Injector_1_Pulse_Width_4byteExt_E60
 0000:FFFF7640       E_Fuel_Injector_1_Latency_4byteExt_E50
 0000:FFFF7768       E_Ignition_Base_TimingExt_E53
 0000:FFFF7898       E_Knock_SumExt_E114
 0000:FFFF78BC       E_Knock_Correction_Advance_4byteExt_E43
 0000:FFFF78C0       E_Feedback_Knock_Correction_4byteExt_E39
 0000:FFFF7904       E_Knock_Correction_Advance_IAM_onlyExt_E40
 0000:FFFF791C       E_Fine_Learning_Knock_Correction_4byteExt_E41
 0000:FFFF7922       E_Fine_Learning_Table_OffsetExt_E58
 0000:FFFF7BAC       E_Target_Throttle_Plate_PositionExt_E57
 0000:FFFF7BB4       E_Requested_TorqueExt_E56
 0000:FFFF7D78       E_Idle_Speed_Map_SelectionExt_E49
 0000:FFFF8444       E_Map_Ratio_PrimaryExt_E42
 0000:FFFF8630       pAtmoPress
 0000:FFFF9712       pCelSignalOem
 0000:FFFF98D1       E_CLOL_FuelingExt_E33
 0000:FFFF9B34       E_CEL_SW_UNK
 0000:FFFF9B60       pRamHoleStart
 0000:FFFFBF70       pRamHoleEnd
 0000:FFFFBFBB       pMemoryResetLimit
