
 Start         Length     Name                   Class
 0000:00000000 000100000H ROM                    CODE
 0000:00000000 00000BFFFH RAM                    


  Address         Publics by Value

 0000:00000000       off_0
 0000:00002004       dCalId
 0000:0000203C       aPf_09cyh4tVer_
 0000:0000205C       aObd_07cyh4nVer
 0000:00003374       aCopyright1999H
 0000:00004170       nullsub_15
 0000:0000498C       sMafCalc
 0000:000049E8       hMafCalc
 0000:00004C2A       nullsub_16
 0000:00004E4A       nullsub_1
 0000:00006500       nullsub_13
 0000:00006B06       nullsub_17
 0000:00008F2A       nullsub_18
 0000:0000A4B4       nullsub_19
 0000:0000ADF2       nullsub_6
 0000:0000ADF6       nullsub_2
 0000:0000ADFA       nullsub_7
 0000:0000B016       nullsub_3
 0000:0000B01A       nullsub_8
 0000:0000B05A       nullsub_4
 0000:0000B05E       nullsub_9
 0000:0000B0D8       nullsub_10
 0000:0000B1E4       nullsub_5
 0000:0000B1E8       nullsub_11
 0000:0000B252       nullsub_12
 0000:0000C740       nullsub_14
 0000:0000C744       nullsub_20
 0000:0000C95A       nullsub_21
 0000:0000E73C       aFzcatOFaftcatv
 0000:0000F6D0       aCMcLsDJdXf
 0000:0000FA3C       hMemoryReset
 0000:0000FFE4       sMemoryReset
 0000:000104BE       aCJo04cX
 0000:00011988       hMemoryResetLimit
 0000:0001254E       nullsub_27
 0000:000134CC       sWgdc
 0000:000139E8       sWgdc0
 0000:00013C94       Max_Wastegate_Duty_Limit_PostCompensation
 0000:0001FD0E       sLoadCalcs
 0000:0002024C       Engine_Load_Limit_A_Maximum
 0000:00021C98       Front_Oxygen_Sensor_Rich_Limit
 0000:00025858       aJCoSa
 0000:000258E0       aJCoB
 0000:0002B83C       aOSUfpbDlQo
 0000:0002D1B0       aJCJCo
 0000:00030FDC       aCoBAqBArAsDu5x
 0000:0003A924       sRevLimStart
 0000:0003A94E       RevLimBitMask_0x01
 0000:0003A964       sRevLimEnd
 0000:0003C7D8       aJCJCoR
 0000:00045C56       aVbEBsbB2xbB
 0000:00045F88       aCJCoEb
 0000:00045F9B       aDia
 0000:00048AB0       hWgdc
 0000:00049210       hRevLimDelete
 0000:0004A0D4       Fuel_Pump_Duty_Cycle
 0000:00056840       aOJCJC
 0000:00058D1C       aBFPaaC
 0000:0005AAC4       aZbZDaaqdbardca
 0000:0005AD18       SsmGet_Switches_168_169_170_171_172_x_x_x
 0000:0005AD46       SsmGet_Engine_Load_Relative_P1
 0000:0005AD4C       SsmGet_Coolant_Temperature_P2
 0000:0005AE08       SsmGet_AF_Correction_1_P3
 0000:0005AE22       SsmGet_AF_Learning_1_P4
 0000:0005AE3A       SsmGet_AF_Correction_2_P5
 0000:0005AE50       SsmGet_AF_Learning_2_P6
 0000:0005AE66       SsmGet_Manifold_Absolute_Pressure_P7
 0000:0005AE7C       SsmGet_Engine_Speed_P8
 0000:0005AEB2       SsmGet_Vehicle_Speed_P9
 0000:0005AEC6       SsmGet_Ignition_Total_Timing_P10
 0000:0005AEDE       SsmGet_Intake_Air_Temperature_P11
 0000:0005AEF4       SsmGet_Mass_Airflow_P12
 0000:0005AF2A       SsmGet_Throttle_Opening_Angle_P13
 0000:0005AF40       SsmGet_Front_O2_Sensor_1_P14
 0000:0005AF48       SsmGet_Rear_O2_Sensor_P15
 0000:0005AF7E       SsmGet_Front_O2_Sensor_2_P16
 0000:0005AF86       SsmGet_Battery_Voltage_P17
 0000:0005AF9C       SsmGet_Mass_Airflow_Sensor_Voltage_P18
 0000:0005AFC0       SsmGet_Fuel_Injector_1_Pulse_Width_P21
 0000:0005AFD6       SsmGet_Fuel_Injector_2_Pulse_Width_P22
 0000:0005AFEE       SsmGet_Atmospheric_Pressure_P24
 0000:0005B004       SsmGet_Manifold_Relative_Pressure_P25
 0000:0005B022       SsmGet_Learned_Ignition_Timing_P29
 0000:0005B040       SsmGet_Accelerator_Pedal_Angle_P30
 0000:0005B056       SsmGet_Fuel_Temperature_P31
 0000:0005B06C       SsmGet_Fuel_Level_P35
 0000:0005B082       SsmGet_Radiator_Fan_Control_P92
 0000:0005B094       SsmGet_Primary_Wastegate_Duty_Cycle_P36
 0000:0005B0AA       SsmGet_CPC_Valve_Duty_Ratio_P38
 0000:0005B16C       SsmGet_Tumble_Valve_Position_Sensor_Right_P39
 0000:0005B190       SsmGet_Tumble_Valve_Position_Sensor_Left_P40
 0000:0005B1B8       SsmGet_Number_of_Exh_Gas_Recirc_Steps_P45
 0000:0005B1CA       SsmGet_Alternator_Duty_P46
 0000:0005B1DC       SsmGet_Fuel_Pump_Duty_P47
 0000:0005B1F2       SsmGet_Intake_VVT_Advance_Angle_Right_P48
 0000:0005B208       SsmGet_Intake_VVT_Advance_Angle_Left_P49
 0000:0005B21E       SsmGet_Intake_OCV_Duty_Right_P50
 0000:0005B234       SsmGet_Intake_OCV_Duty_Left_P51
 0000:0005B24A       SsmGet_Intake_OCV_Current_Right_P52
 0000:0005B260       SsmGet_Intake_OCV_Current_Left_P53
 0000:0005B276       SsmGet_AF_Sensor_1_Current_P54
 0000:0005B28E       SsmGet_AF_Sensor_2_Current_P55
 0000:0005B2A4       SsmGet_AF_Sensor_1_Resistance_P56
 0000:0005B2B8       SsmGet_AF_Sensor_2_Resistance_P57
 0000:0005B2CA       SsmGet_AF_Sensor_1_P58
 0000:0005B2E0       SsmGet_AF_Sensor_2_P59
 0000:0005B306       SsmGet_Switches_x_1_2_3_x_69_70_71
 0000:0005B3F8       SsmGet_Switches_4_5_x_6_7_8_9_x
 0000:0005B498       SsmGet_Switches_10_11_12_13_14_15_16_17
 0000:0005B4EC       SsmGet_Switches_18_19_20_21_22_23_24_25
 0000:0005B578       SsmGet_Switches_26_27_28_29_30_31_32_33
 0000:0005B5D8       SsmGet_Switches_34_35_36_37_38_39_40_41
 0000:0005B64E       SsmGet_Switches_42_43_44_45_46_47_48_49
 0000:0005B6C4       SsmGet_Switches_72_73_74_75_50_51_52_53
 0000:0005B75A       SsmGet_Switches_54_55_56_57_58_59_60_61
 0000:0005B778       SsmGet_Switches_x_x_x_x_x_x_82_x
 0000:0005B7B4       SsmGet_Switches_108_x_x_x_x_x_x_x
 0000:0005B852       SsmGet_Roughness_Monitor_Cylinder_1_P63
 0000:0005B858       SsmGet_Roughness_Monitor_Cylinder_2_P64
 0000:0005B85E       SsmGet_AF_Correction_3_32bit_ECU_P89
 0000:0005B876       SsmGet_AF_Learning_3_P66
 0000:0005B958       SsmGet_Switches_148_149_x_150_151_152_153_154
 0000:0005BA04       SsmGet_Roughness_Monitor_Cylinder_3_P69
 0000:0005BA0A       SsmGet_Roughness_Monitor_Cylinder_4_P70
 0000:0005BB48       SsmGet_Roughness_Monitor_Cylinder_5_P151
 0000:0005BB4C       SsmGet_Roughness_Monitor_Cylinder_6_P152
 0000:0005BB50       SsmGet_Learned_Ignition_Timing_Correction_P153
 0000:0005BB66       SsmGet_Throttle_Motor_Duty_P71
 0000:0005BB7E       SsmGet_Throttle_Motor_Voltage_P72
 0000:0005BB94       SsmGet_Sub_Throttle_Sensor_P73
 0000:0005BC58       SsmGet_Main_Throttle_Sensor_P74
 0000:0005BC7C       SsmGet_Sub_Accelerator_Sensor_P75
 0000:0005BCA0       SsmGet_Main_Accelerator_Sensor_P76
 0000:0005BCC4       SsmGet_Brake_Booster_Pressure_P77
 0000:0005BCD8       SsmGet_Cold_Start_Injector_Air_Pump_P80
 0000:0005BCEE       SsmGet_Memorised_Cruise_Speed_P82
 0000:0005BD02       SsmGet_AirFuel_Correction_4_P117
 0000:0005BD18       SsmGet_AirFuel_Learning_4_P118
 0000:0005BD2E       SsmGet_Fuel_Level_Sensor_Resistance_P119
 0000:0005BD44       SsmGet_Estimated_odometer_P120
 0000:0005BD6E       SsmGet_Oil_Temperature_P122
 0000:0005BD82       SsmGet_Oil_Switching_Solenoid_Valve_OSV_Duty_Right_P123
 0000:0005BD96       SsmGet_Oil_Switching_Solenoid_Valve_OSV_Duty_Left_P124
 0000:0005BDAA       SsmGet_Oil_Switching_Solenoid_Valve_OSV_Current_Right_P125
 0000:0005BDBE       SsmGet_Oil_Switching_Solenoid_Valve_OSV_Current_Left_P126
 0000:0005BDD2       SsmGet_Exhaust_VVT_Advance_Angle_Right_P83
 0000:0005BDE8       SsmGet_Exhaust_VVT_Advance_Angle_Left_P84
 0000:0005BDFE       SsmGet_Exhaust_OCV_Duty_Right_P85
 0000:0005BE14       SsmGet_Exhaust_OCV_Duty_Left_P86
 0000:0005BE2A       SsmGet_Exhaust_OCV_Current_Right_P87
 0000:0005BE40       SsmGet_Exhaust_OCV_Current_Left_P88
 0000:0005BE56       SsmGet_VVL_Lift_Mode_P127
 0000:0005BE5A       SsmGet_Switches_130_62_131_x_x_x_x_x
 0000:0005BF70       SsmGet_Switches_63_64_65_66_67_132_68_133
 0000:0005BFA6       ClutchBitMask_0x01
 0000:0005BFB4       CoastBitMask_0x01
 0000:0005BFC2       ResumeBitMask_0x01
 0000:0005BFCE       BrakeBitMask_0x01
 0000:0005C04E       SsmGet_SIDrive_Mode_P114
 0000:0005C108       SsmGet_Switches_155_156_157_x_x_x_x_x
 0000:0005C14C       SsmGet_Fine_Learning_Knock_Correction_P91
 0000:0005C164       SsmGet_Fuel_Tank_Pressure_P154
 0000:0005C1BE       SsmGet_Battery_Current_P183
 0000:0005C1D2       SsmGet_Alternator_Control_Mode_P185
 0000:0005C298       SsmGet_Battery_Temperature_P184
 0000:0005D9AC       nullsub_22
 0000:0005D9B0       nullsub_23
 0000:0005DB5E       nullsub_24
 0000:0006388C       PtrSsmGet_Engine_Load_Relative_P1
 0000:00063890       PtrSsmGet_Coolant_Temperature_P2
 0000:00063894       PtrSsmGet_AF_Correction_1_P3
 0000:00063898       PtrSsmGet_AF_Learning_1_P4
 0000:0006389C       PtrSsmGet_AF_Correction_2_P5
 0000:000638A0       PtrSsmGet_AF_Learning_2_P6
 0000:000638A4       PtrSsmGet_Manifold_Absolute_Pressure_P7
 0000:000638A8       PtrSsmGet_Engine_Speed_P8
 0000:000638B0       PtrSsmGet_Vehicle_Speed_P9
 0000:000638B4       PtrSsmGet_Ignition_Total_Timing_P10
 0000:000638B8       PtrSsmGet_Intake_Air_Temperature_P11
 0000:000638BC       PtrSsmGet_Mass_Airflow_P12
 0000:000638C4       PtrSsmGet_Throttle_Opening_Angle_P13
 0000:000638C8       PtrSsmGet_Front_O2_Sensor_1_P14
 0000:000638D0       PtrSsmGet_Rear_O2_Sensor_P15
 0000:000638D8       PtrSsmGet_Front_O2_Sensor_2_P16
 0000:000638E0       PtrSsmGet_Battery_Voltage_P17
 0000:000638E4       PtrSsmGet_Mass_Airflow_Sensor_Voltage_P18
 0000:000638E8       PtrSsmGet_Throttle_Sensor_Voltage_P19
 0000:000638EC       PtrSsmGet_Differential_Pressure_Sensor_Voltage_P20
 0000:000638F0       PtrSsmGet_Fuel_Injector_1_Pulse_Width_P21
 0000:000638F4       PtrSsmGet_Fuel_Injector_2_Pulse_Width_P22
 0000:000638F8       PtrSsmGet_Knock_Correction_Advance_P23
 0000:000638FC       PtrSsmGet_Atmospheric_Pressure_P24
 0000:00063900       PtrSsmGet_Manifold_Relative_Pressure_P25
 0000:00063904       PtrSsmGet_Pressure_Differential_Sensor_P26
 0000:00063908       PtrSsmGet_Fuel_Tank_Pressure_P27
 0000:0006390C       PtrSsmGet_CO_Adjustment_P28
 0000:00063910       PtrSsmGet_Learned_Ignition_Timing_P29
 0000:00063914       PtrSsmGet_Accelerator_Pedal_Angle_P30
 0000:00063918       PtrSsmGet_Fuel_Temperature_P31
 0000:0006391C       PtrSsmGet_Front_O2_Heater_Current_1_P32
 0000:00063920       PtrSsmGet_Rear_O2_Heater_Current_P33
 0000:00063924       PtrSsmGet_Front_O2_Heater_Current_2_P34
 0000:00063928       PtrSsmGet_Fuel_Level_P35
 0000:0006392C       PtrSsmGet_Radiator_Fan_Control_P92
 0000:00063930       PtrSsmGet_Primary_Wastegate_Duty_Cycle_P36
 0000:00063934       PtrSsmGet_Secondary_Wastegate_Duty_Cycle_P37
 0000:00063938       PtrSsmGet_CPC_Valve_Duty_Ratio_P38
 0000:0006393C       PtrSsmGet_Tumble_Valve_Position_Sensor_Right_P39
 0000:00063940       PtrSsmGet_Tumble_Valve_Position_Sensor_Left_P40
 0000:00063944       PtrSsmGet_Idle_Speed_Control_Valve_Duty_Ratio_P41
 0000:00063948       PtrSsmGet_AF_Lean_Correction_P42
 0000:0006394C       PtrSsmGet_AF_Heater_Duty_P43
 0000:00063950       PtrSsmGet_Idle_Speed_Control_Valve_Step_P44
 0000:00063954       PtrSsmGet_Number_of_Exh_Gas_Recirc_Steps_P45
 0000:00063958       PtrSsmGet_Alternator_Duty_P46
 0000:0006395C       PtrSsmGet_Fuel_Pump_Duty_P47
 0000:00063960       PtrSsmGet_Intake_VVT_Advance_Angle_Right_P48
 0000:00063964       PtrSsmGet_Intake_VVT_Advance_Angle_Left_P49
 0000:00063968       PtrSsmGet_Intake_OCV_Duty_Right_P50
 0000:0006396C       PtrSsmGet_Intake_OCV_Duty_Left_P51
 0000:00063970       PtrSsmGet_Intake_OCV_Current_Right_P52
 0000:00063974       PtrSsmGet_Intake_OCV_Current_Left_P53
 0000:00063978       PtrSsmGet_AF_Sensor_1_Current_P54
 0000:0006397C       PtrSsmGet_AF_Sensor_2_Current_P55
 0000:00063980       PtrSsmGet_AF_Sensor_1_Resistance_P56
 0000:00063984       PtrSsmGet_AF_Sensor_2_Resistance_P57
 0000:00063988       PtrSsmGet_AF_Sensor_1_P58
 0000:0006398C       PtrSsmGet_AF_Sensor_2_P59
 0000:00063998       PtrSsmGet_Gear_Position_P60
 0000:000639BC       PtrSsmGet_AF_Sensor_1_Heater_Current_P61
 0000:000639C0       PtrSsmGet_AF_Sensor_2_Heater_Current_P62
 0000:000639F4       PtrSsmGet_Switches_x_1_2_3_x_69_70_71
 0000:000639F8       PtrSsmGet_Switches_4_5_x_6_7_8_9_x
 0000:000639FC       PtrSsmGet_Switches_10_11_12_13_14_15_16_17
 0000:00063A00       PtrSsmGet_Switches_18_19_20_21_22_23_24_25
 0000:00063A04       PtrSsmGet_Switches_26_27_28_29_30_31_32_33
 0000:00063A08       PtrSsmGet_Switches_34_35_36_37_38_39_40_41
 0000:00063A0C       PtrSsmGet_Switches_42_43_44_45_46_47_48_49
 0000:00063A10       PtrSsmGet_Switches_72_73_74_75_50_51_52_53
 0000:00063A14       PtrSsmGet_Switches_54_55_56_57_58_59_60_61
 0000:00063A18       PtrSsmGet_Switches_x_x_x_x_x_x_82_x
 0000:00063A28       PtrSsmGet_Switches_108_x_x_x_x_x_x_x
 0000:00063BA8       PtrSsmGet_Roughness_Monitor_Cylinder_1_P63
 0000:00063BAC       PtrSsmGet_Roughness_Monitor_Cylinder_2_P64
 0000:00063BB0       PtrSsmGet_AF_Correction_3_32bit_ECU_P89
 0000:00063BB4       PtrSsmGet_AF_Learning_3_P66
 0000:00063BB8       PtrSsmGet_Rear_O2_Heater_Voltage_P67
 0000:00063BBC       PtrSsmGet_AF_Adjustment_Voltage_P68
 0000:00063BCC       PtrSsmGet_Switches_148_149_x_150_151_152_153_154
 0000:00063BD0       PtrSsmGet_Roughness_Monitor_Cylinder_3_P69
 0000:00063BD4       PtrSsmGet_Roughness_Monitor_Cylinder_4_P70
 0000:00063C2C       PtrSsmGet_Roughness_Monitor_Cylinder_5_P151
 0000:00063C50       PtrSsmGet_Roughness_Monitor_Cylinder_6_P152
 0000:00063C54       PtrSsmGet_Learned_Ignition_Timing_Correction_P153
 0000:00063C58       PtrSsmGet_Throttle_Motor_Duty_P71
 0000:00063C5C       PtrSsmGet_Throttle_Motor_Voltage_P72
 0000:00063C70       PtrSsmGet_Sub_Throttle_Sensor_P73
 0000:00063C74       PtrSsmGet_Main_Throttle_Sensor_P74
 0000:00063C78       PtrSsmGet_Sub_Accelerator_Sensor_P75
 0000:00063C7C       PtrSsmGet_Main_Accelerator_Sensor_P76
 0000:00063C80       PtrSsmGet_Brake_Booster_Pressure_P77
 0000:00063C84       PtrSsmGet_Fuel_Pressure_High_P78
 0000:00063C88       PtrSsmGet_Exhaust_Gas_Temperature_P79
 0000:00063C8C       PtrSsmGet_Exhaust_Gas_Temperature_2_P116
 0000:00063C90       PtrSsmGet_Cold_Start_Injector_Air_Pump_P80
 0000:00063C94       PtrSsmGet_SCV_Step_P81
 0000:00063C98       PtrSsmGet_Memorised_Cruise_Speed_P82
 0000:00063C9C       PtrSsmGet_AirFuel_Correction_4_P117
 0000:00063CA0       PtrSsmGet_AirFuel_Learning_4_P118
 0000:00063CA4       PtrSsmGet_Fuel_Level_Sensor_Resistance_P119
 0000:00063CA8       PtrSsmGet_Estimated_odometer_P120
 0000:00063CBC       PtrSsmGet_Oil_Temperature_P122
 0000:00063CC0       PtrSsmGet_Oil_Switching_Solenoid_Valve_OSV_Duty_Right_P123
 0000:00063CC4       PtrSsmGet_Oil_Switching_Solenoid_Valve_OSV_Duty_Left_P124
 0000:00063CC8       PtrSsmGet_Oil_Switching_Solenoid_Valve_OSV_Current_Right_P125
 0000:00063CCC       PtrSsmGet_Oil_Switching_Solenoid_Valve_OSV_Current_Left_P126
 0000:00063CD0       PtrSsmGet_Exhaust_VVT_Advance_Angle_Right_P83
 0000:00063CD4       PtrSsmGet_Exhaust_VVT_Advance_Angle_Left_P84
 0000:00063CD8       PtrSsmGet_Exhaust_OCV_Duty_Right_P85
 0000:00063CDC       PtrSsmGet_Exhaust_OCV_Duty_Left_P86
 0000:00063CE0       PtrSsmGet_Exhaust_OCV_Current_Right_P87
 0000:00063CE4       PtrSsmGet_Exhaust_OCV_Current_Left_P88
 0000:00063CE8       PtrSsmGet_VVL_Lift_Mode_P127
 0000:00063CF0       PtrSsmGet_Switches_130_62_131_x_x_x_x_x
 0000:00063CF4       PtrSsmGet_Switches_63_64_65_66_67_132_68_133
 0000:00063E18       PtrSsmGet_SIDrive_Mode_P114
 0000:00063E1C       PtrSsmGet_Throttle_Sensor_Closed_Voltage_P115
 0000:00063E38       PtrSsmGet_Fuel_Tank_Air_Pressure_P121
 0000:00063EC8       PtrSsmGet_Switches_155_156_157_x_x_x_x_x
 0000:00063ECC       PtrSsmGet_Switches_158_159_160_161_162_163_164_165
 0000:00063ED4       PtrSsmGet_Fine_Learning_Knock_Correction_P91
 0000:00063ED8       PtrSsmGet_Fuel_Tank_Pressure_P154
 0000:00063FA8       PtrSsmGet_Switches_168_169_170_171_172_x_x_x
 0000:00063FF4       PtrSsmGet_Main_Injection_Period_P155
 0000:00063FF8       PtrSsmGet_Final_Injection_Amount_P156
 0000:00064000       PtrSsmGet_Number_of_Times_Injected_P157
 0000:00064004       PtrSsmGet_Target_Intake_Manifold_Pressure_P158
 0000:00064008       PtrSsmGet_Target_Intake_Air_Amount_P159
 0000:0006400C       PtrSsmGet_Air_Mass_P160
 0000:00064010       PtrSsmGet_Exhaust_Gas_Recirculation_EGR_Target_Valve_Opening_Angle_P161
 0000:00064014       PtrSsmGet_Exhaust_Gas_Recirculation_EGR_Valve_Opening_Angle_P162
 0000:00064018       PtrSsmGet_Exhaust_Gas_Recirculation_EGR_Duty_P163
 0000:0006401C       PtrSsmGet_Common_Rail_Target_Pressure_P164
 0000:00064020       PtrSsmGet_Common_Rail_Pressure_P165
 0000:00064024       PtrSsmGet_Intake_Air_Temperature_combined_P166
 0000:00064028       PtrSsmGet_Target_Engine_Speed_P167
 0000:00064030       PtrSsmGet_Boost_Pressure_Feedback_P168
 0000:00064044       PtrSsmGet_Electric_Power_Steering_Current_P169
 0000:00064048       PtrSsmGet_Fuel_Pump_Suction_Control_Valve_Current_Target_P170
 0000:00064050       PtrSsmGet_Fuel_Pump_Suction_Control_Valve_Current_Actual_P175
 0000:00064058       PtrSsmGet_Mileage_after_Injector_Learning_P176
 0000:00064080       PtrSsmGet_Mileage_after_Injector_Replacement_P177
 0000:000640EC       PtrSsmGet_Actual_Common_Rail_Pressure_Time_Synchronized_P204
 0000:0006412C       PtrSsmGet_PreInjection_Amount_P234
 0000:00064134       PtrSsmGet_PreInjection_Interval_P235
 0000:00064138       PtrSsmGet_Final_Initial_Torque_P238
 0000:00064150       PtrSsmGet_Individual_Pump_Difference_Learning_Value_P228
 0000:00064164       PtrSsmGet_MicroQuantityInjection_Final_Learning_Value_11_P208
 0000:00064168       PtrSsmGet_MicroQuantityInjection_Final_Learning_Value_12_P209
 0000:0006416C       PtrSsmGet_MicroQuantityInjection_Final_Learning_Value_13_P210
 0000:00064170       PtrSsmGet_MicroQuantityInjection_Final_Learning_Value_14_P211
 0000:00064174       PtrSsmGet_MicroQuantityInjection_Final_Learning_Value_21_P212
 0000:00064178       PtrSsmGet_MicroQuantityInjection_Final_Learning_Value_22_P213
 0000:0006417C       PtrSsmGet_MicroQuantityInjection_Final_Learning_Value_23_P214
 0000:00064180       PtrSsmGet_MicroQuantityInjection_Final_Learning_Value_24_P215
 0000:00064184       PtrSsmGet_MicroQuantityInjection_Final_Learning_Value_31_P216
 0000:00064188       PtrSsmGet_MicroQuantityInjection_Final_Learning_Value_32_P217
 0000:0006418C       PtrSsmGet_MicroQuantityInjection_Final_Learning_Value_33_P218
 0000:00064190       PtrSsmGet_MicroQuantityInjection_Final_Learning_Value_34_P219
 0000:00064194       PtrSsmGet_MicroQuantityInjection_Final_Learning_Value_41_P220
 0000:00064198       PtrSsmGet_MicroQuantityInjection_Final_Learning_Value_42_P221
 0000:0006419C       PtrSsmGet_MicroQuantityInjection_Final_Learning_Value_43_P222
 0000:000641A0       PtrSsmGet_MicroQuantityInjection_Final_Learning_Value_44_P223
 0000:000641A4       PtrSsmGet_MicroQuantityInjection_Final_Learning_Value_51_P224
 0000:000641A8       PtrSsmGet_MicroQuantityInjection_Final_Learning_Value_52_P225
 0000:000641AC       PtrSsmGet_MicroQuantityInjection_Final_Learning_Value_53_P226
 0000:000641B0       PtrSsmGet_MicroQuantityInjection_Final_Learning_Value_54_P227
 0000:000641C4       PtrSsmGet_PreInjection_Final_Period_P233
 0000:000641CC       PtrSsmGet_Final_Main_Injection_Period_P229
 0000:000641E4       PtrSsmGet_Quantity_Correction_Cylinder_1_P179
 0000:000641E8       PtrSsmGet_Quantity_Correction_Cylinder_2_P180
 0000:000641EC       PtrSsmGet_Quantity_Correction_Cylinder_3_P181
 0000:000641F0       PtrSsmGet_Quantity_Correction_Cylinder_4_P182
 0000:00064230       PtrSsmGet_Interior_Heater_P178
 0000:00064234       PtrSsmGet_Battery_Current_P183
 0000:00064238       PtrSsmGet_Alternator_Control_Mode_P185
 0000:0006423C       PtrSsmGet_Battery_Temperature_P184
 0000:00064244       PtrSsmGet_Cumulative_Ash_Ratio_P186
 0000:00064248       PtrSsmGet_Pressure_Difference_between_Diesel_Particulate_Filter_DPF_Inlet_and_Outlet_P187
 0000:0006424C       PtrSsmGet_Exhaust_Gas_Temperature_at_Catalyst_Inlet_P188
 0000:00064250       PtrSsmGet_Exhaust_Gas_Temperature_at_Diesel_Particulate_Filter_DPF_Inlet_P189
 0000:00064254       PtrSsmGet_Estimated_Catalyst_Temperature_P190
 0000:00064258       PtrSsmGet_Estimated_Temperature_of_the_Diesel_Particulate_Filter_DPF_P191
 0000:0006425C       PtrSsmGet_Soot_Accumulation_Ratio_P192
 0000:00064260       PtrSsmGet_Oil_Dilution_Ratio_P193
 0000:000642D0       PtrSsmGet_Accumulated_Count_of_Overspeed_Instances_Very_High_RPM_P198
 0000:000642D4       PtrSsmGet_Accumulated_Count_of_Overspeed_Instances_High_RPM_P199
 0000:000642D8       PtrSsmGet_Estimated_Distance_to_Oil_Change_P205
 0000:000642DC       PtrSsmGet_Running_Distance_since_last_Diesel_Particulate_Filter_DPF_Regeneration_P206
 0000:000642E4       PtrSsmGet_Diesel_Particulate_Filter_DPF_Regeneration_Count_P207
 0000:000642F8       PtrSsmGet_Cumulative_oil_diesel_entry_P236
 0000:000653C4       a34512345
 0000:00079068       aCDloCDlC
 0000:00088638       aCoNbLOfF
 0000:00095F58       aJCkcDS
 0000:00097794       P0335_CRANKSHAFT_POS_SENSOR_A_MALFUNCTION
 0000:00097795       P0336_CRANKSHAFT_POS_SENSOR_A_RANGEPERF
 0000:00097798       P0604_CONTROL_MODULE_RAM_ERROR
 0000:00097799       P0102_MAF_SENSOR_LOW_INPUT
 0000:0009779A       P0103_MAF_SENSOR_HIGH_INPUT
 0000:0009779B       P0500_VEHICLE_SPEED_SENSOR_A
 0000:0009779E       P0327_KNOCK_SENSOR_1_LOW_INPUT
 0000:0009779F       P0328_KNOCK_SENSOR_1_HIGH_INPUT
 0000:000977A0       P0122_TPS_A_LOW_INPUT
 0000:000977A1       P0123_TPS_A_HIGH_INPUT
 0000:000977A2       P0117_COOLANT_TEMP_SENSOR_LOW_INPUT
 0000:000977A3       P0118_COOLANT_TEMP_SENSOR_HIGH_INPUT
 0000:000977A4       P0464_FUEL_LEVEL_SENSOR_INTERMITTENT
 0000:000977A5       P0125_INSUFFICIENT_COOLANT_TEMP_FUELING
 0000:000977A6       P0462_FUEL_LEVEL_SENSOR_LOW_INPUT
 0000:000977A7       P0463_FUEL_LEVEL_SENSOR_HIGH_INPUT
 0000:000977A8       P0461_FUEL_LEVEL_SENSOR_RANGEPERF
 0000:000977A9       P1518_STARTER_SWITCH_LOW_INPUT
 0000:000977AA       P0512_STARTER_REQUEST_CIRCUIT
 0000:000977AB       P0452_EVAP_PRESSURE_SENSOR_LOW_INPUT
 0000:000977AC       P0453_EVAP_PRESSURE_SENSOR_HIGH_INPUT
 0000:000977AD       P0451_EVAP_PRESSURE_SENSOR_RANGEPERF
 0000:000977AE       P0851_NEUTRAL_SWITCH_INPUT_LOW
 0000:000977AF       P0182_FUEL_TEMP_SENSOR_A_LOW_INPUT
 0000:000977B0       P0183_FUEL_TEMP_SENSOR_A_HIGH_INPUT
 0000:000977B1       P0181_FUEL_TEMP_SENSOR_A_RANGEPERF
 0000:000977B2       P0852_NEUTRAL_SWITCH_INPUT_HIGH
 0000:000977BB       P0506_IDLE_CONTROL_RPM_LOWER_THAN_EXPECTED
 0000:000977BC       P0507_IDLE_CONTROL_RPM_HIGH_THAN_EXPECTED
 0000:000977BD       P0011_CAMSHAFT_POS__TIMING_OVERADVANCED_1
 0000:000977BE       P0021_CAMSHAFT_POS__TIMING_OVERADVANCED_2
 0000:000977BF       P1400_FUEL_TANK_PRESSURE_SOL_LOW
 0000:000977C0       P1420_FUEL_TANK_PRESSURE_SOL_HIGH_INPUT
 0000:000977C1       P0458_EVAP_PURGE_VALVE_CIRCUIT_LOW
 0000:000977C2       P0459_EVAP_PURGE_VALVE_CIRCUIT_HIGH
 0000:000977C3       P1443_VENT_CONTROL_SOLENOID_FUNCTION_PROBLEM
 0000:000977C4       P0447_EVAP_VENT_CONTROL_CIRCUIT_OPEN
 0000:000977C5       P0448_EVAP_VENT_CONTROL_CIRCUIT_SHORTED
 0000:000977C6       P0141_REAR_O2_SENSOR_MALFUNCTION
 0000:000977C8       P0139_REAR_O2_SENSOR_SLOW_RESPONSE
 0000:000977C9       P1152_FRONT_O2_SENSOR_RANGEPERF_LOW_B1_S1
 0000:000977CA       P1153_FRONT_O2_SENSOR_RANGEPERF_HIGH_B1_S1
 0000:000977CD       P0420_CAT_EFFICIENCY_BELOW_THRESHOLD
 0000:000977CE       P0442_EVAP_LEAK_DETECTED_SMALL
 0000:000977CF       P0456_EVAP_LEAK_DETECTED_VERY_SMALL
 0000:000977D1       P0171_SYSTEM_TOO_LEAN
 0000:000977D2       P0172_SYSTEM_TOO_RICH
 0000:000977D3       P0301_MISFIRE_CYLINDER_1
 0000:000977D4       P0302_MISFIRE_CYLINDER_2
 0000:000977D5       P0303_MISFIRE_CYLINDER_3
 0000:000977D6       P0304_MISFIRE_CYLINDER_4
 0000:000977D9       P0457_EVAP_LEAK_DETECTED_FUEL_CAP
 0000:000977DA       P0000_PASS_CODE_NO_DTC_DETECTED
 0000:000977DB       P0000_PASS_CODE_NO_DTC_DETECTED_
 0000:000977DC       P0137_REAR_O2_SENSOR_LOW_VOLTAGE
 0000:000977DD       P0131_FRONT_O2_SENSOR_LOW_INPUT
 0000:000977DF       P0132_FRONT_O2_SENSOR_HIGH_INPUT
 0000:000977E1       P0138_REAR_O2_SENSOR_HIGH_VOLTAGE
 0000:000977E3       P0112_IAT_SENSOR_LOW_INPUT
 0000:000977E4       P0113_IAT_SENSOR_HIGH_INPUT
 0000:000977E5       P0111_IAT_SENSOR_RANGEPERF
 0000:000977E6       P0038_REAR_O2_SENSOR_HIGH_INPUT
 0000:000977E7       P0032_FRONT_O2_SENSOR_HIGH_INPUT
 0000:000977E8       P0037_REAR_O2_SENSOR_LOW_INPUT
 0000:000977E9       P0031_FRONT_O2_SENSOR_LOW_INPUT
 0000:000977EA       P0107_MAP_SENSOR_LOW_INPUT
 0000:000977EB       P0108_MAP_SENSOR_HIGH_INPUT
 0000:000977F0       P0128_THERMOSTAT_MALFUNCTION
 0000:000977F1       P1491_PCV_BLOWBY_FUNCTION_PROBLEM
 0000:000977F2       P1560_BACKUP_VOLTAGE_MALFUNCTION
 0000:000977F5       P0245_WASTEGATE_SOLENOID_A_LOW
 0000:000977F6       P0246_WASTEGATE_SOLENOID_A_HIGH
 0000:000977F7       P0244_WASTEGATE_SOLENOID_A_RANGEPERF
 0000:000977F9       P0230_FUEL_PUMP_PRIMARY_CIRCUIT
 0000:000977FA       P0068_MAP_SENSOR_RANGEPERF
 0000:000977FB       P0101_MAF_SENSOR_RANGEPERF
 0000:000977FD       P0134_FRONT_O2_SENSOR_NO_ACTIVITY
 0000:000977FF       P0030_FRONT_O2_SENSOR_RANGEPERF
 0000:00097806       P2109_TPS_A_MINIMUM_STOP_PERF
 0000:00097807       P0222_TPS_B_LOW_INPUT
 0000:00097808       P0223_TPS_B_HIGH_INPUT
 0000:00097809       P1160_ABNORMAL_RETURN_SPRING
 0000:0009780A       P2102_THROTTLE_ACTUATOR_CIRCUIT_LOW
 0000:0009780B       P2103_THROTTLE_ACTUATOR_CIRCUIT_HIGH
 0000:0009780C       P2101_THROTTLE_ACTUATOR_CIRCUIT_RANGEPERF
 0000:0009780D       P2096_POST_CATALYST_TOO_LEAN_B1
 0000:0009780E       P0638_THROTTLE_ACTUATOR_RANGEPERF
 0000:0009780F       P0607_CONTROL_MODULE_PERFORMANCE
 0000:00097810       P2138_TPS_DE_VOLTAGE
 0000:00097811       P2127_TPS_E_CIRCUIT_LOW_INPUT
 0000:00097812       P2128_TPS_E_CIRCUIT_HIGH_INPUT
 0000:00097813       P2122_TPS_D_CIRCUIT_LOW_INPUT
 0000:00097814       P2123_TPS_D_CIRCUIT_HIGH_INPUT
 0000:00097815       P2135_TPS_AB_VOLTAGE
 0000:00097816       P2097_POST_CATALYST_TOO_RICH_B1
 0000:00097818       P0390_CAMSHAFT_POS_SENSOR_B_BANK_2
 0000:00097819       P0365_CAMSHAFT_POS_SENSOR_B_BANK_1
 0000:0009781A       P0345_CAMSHAFT_POS_SENSOR_A_BANK_2
 0000:0009781B       P0340_CAMSHAFT_POS_SENSOR_A_MALFUNCTION
 0000:0009781C       P0605_CONTROL_MODULE_ROM_ERROR
 0000:0009781D       P2095_OCV_SOLENOID_B2_CIRCUIT_SHORT
 0000:0009781E       P2094_OCV_SOLENOID_B2_CIRCUIT_OPEN
 0000:0009781F       P2091_OCV_SOLENOID_B1_CIRCUIT_SHORT
 0000:00097820       P2090_OCV_SOLENOID_B1_CIRCUIT_OPEN
 0000:00097821       P2093_OCV_SOLENOID_A2_CIRCUIT_SHORT
 0000:00097822       P2092_OCV_SOLENOID_A2_CIRCUIT_OPEN
 0000:00097823       P2089_OCV_SOLENOID_A1_CIRCUIT_SHORT
 0000:00097824       P2088_OCV_SOLENOID_A1_CIRCUIT_OPEN
 0000:00097831       P2004_TGV__INTAKE_MANIFOLD_RUNNER_1_STUCK_OPEN
 0000:00097832       P2006_TGV__INTAKE_MANIFOLD_RUNNER_1_STUCK_CLOSED
 0000:00097833       P2005_TGV__INTAKE_MANIFOLD_RUNNER_2_STUCK_OPEN
 0000:00097834       P2007_TGV__INTAKE_MANIFOLD_RUNNER_2_STUCK_CLOSED
 0000:00097836       P0126_INSUFFICIENT_COOLANT_TEMP_OPERATION
 0000:00097839       P2016_TGV__INTAKE_MANIFOLD_RUNNER_1_POS_SENSOR_LOW
 0000:0009783A       P2017_TGV__INTAKE_MANIFOLD_RUNNER_1_POS_SENSOR_HIGH
 0000:0009783B       P2021_TGV__INTAKE_MANIFOLD_RUNNER_2_POS_SENSOR_LOW
 0000:0009783C       P2022_TGV__INTAKE_MANIFOLD_RUNNER_2_POS_SENSOR_HIGH
 0000:0009783D       P2009_TGV__INTAKE_MANIFOLD_RUNNER_1_CIRCUIT_LOW
 0000:0009783E       P2012_TGV__INTAKE_MANIFOLD_RUNNER_2_CIRCUIT_LOW
 0000:0009783F       P2008_TGV__INTAKE_MANIFOLD_RUNNER_1_CIRCUIT_OPEN
 0000:00097840       P2011_TGV__INTAKE_MANIFOLD_RUNNER_2_CIRCUIT_OPEN
 0000:00097841       P2444_SECONDARY_AIR_PUMP_1_STUCK_ON_B1
 0000:00097842       P0411_SECONDARY_AIR_PUMP_INCORRECT_FLOW
 0000:00097843       P0410_SECONDARY_AIR_PUMP_SYSTEM
 0000:00097844       P2431_SECONDARY_AIR_PUMP_CIRCUIT_RANGEPERF
 0000:00097845       P2433_SECONDARY_AIR_PUMP_CIRCUIT_HIGH
 0000:00097846       P2432_SECONDARY_AIR_PUMP_CIRCUIT_LOW
 0000:00097847       P0413_SECONDARY_AIR_PUMP_A_OPEN
 0000:00097848       P0418_SECONDARY_AIR_PUMP_RELAY_A
 0000:00097849       P0140_REAR_O2_SENSOR_NO_ACTIVITY
 0000:0009784B       P0414_SECONDARY_AIR_PUMP_A_SHORTED
 0000:0009784C       P1418_SECONDARY_AIR_PUMP_CIRCUIT_SHORTED
 0000:0009784D       P0018_CRANKSHAFTCAMSHAFT_CORRELATION_2A
 0000:0009784E       P0016_CRANKSHAFTCAMSHAFT_CORRELATION_1A
 0000:0009784F       P1410_SECONDARY_AIR_PUMP_VALVE_STUCK_OPEN
 0000:00097850       P2443_SECONDARY_AIR_PUMP_2_STUCK_CLOSED
 0000:00097851       P2442_SECONDARY_AIR_PUMP_VALVE_2_STUCK_OPEN
 0000:00097852       P2441_SECONDARY_AIR_PUMP_VALVE_1_STUCK_CLOSED
 0000:00097853       P2440_SECONDARY_AIR_PUMP_VALVE_1_STUCK_OPEN
 0000:00097854       P0417_SECONDARY_AIR_PUMP_B_SHORTED
 0000:00097855       P0416_SECONDARY_AIR_PUMP_B_OPEN
 0000:00097856       P0024_EXHAUST_AVCS_SYSTEM_2_RANGEPERF
 0000:00097857       P0014_EXHAUST_AVCS_SYSTEM_1_RANGEPERF
 0000:00097858       P1616_SBDS_INTERACTIVE_CODES
 0000:00097859       P1520_IMRC_CIRCUIT_MALFUNCTION
 0000:0009785A       P1519_IMRC_STUCK_CLOSED
 0000:0009785B       P0441_EVAP_INCORRECT_PURGE_FLOW
 0000:0009785C       P2419_EVAP_SWITCHING_VALVE_LOW
 0000:0009785D       P2420_EVAP_SWITCHING_VALVE_HIGH
 0000:00097860       P0019_CRANKCAM_TIMING_B_FAILURE_2
 0000:00097861       P0017_CRANKCAM_TIMING_B_FAILURE_1
 0000:0009B340       nullsub_25
 0000:0009B344       nullsub_26
 0000:0009B3EC       sCelTrigger
 0000:0009B470       hCelSignal
 0000:0009B484       aBAqAr
 0000:0009C040       aCoPbPNcOU
 0000:0009C09C       aCoYbPNcXU
 0000:0009C1C4       aJCJCoS
 0000:0009C65B       P0201_INJECTOR_CIRCUIT_MALFUNCTION_CYLINDER_1
 0000:0009C65C       P0204_INJECTOR_CIRCUIT_MALFUNCTION_CYLINDER_4
 0000:0009C65D       P0203_INJECTOR_CIRCUIT_MALFUNCTION_CYLINDER_3
 0000:0009C65E       P0202_INJECTOR_CIRCUIT_MALFUNCTION_CYLINDER_2
 0000:0009C65F       U0422_CAN_INVALID_DATA_RECEIVED_FROM_BIU
 0000:0009C660       U0140_CAN_LOST_COMMUNICATION_WITH_BIU
 0000:0009C661       U0402_CAN_INVALID_DATA_RECEIVED_FROM_TCM
 0000:0009C662       U0101_CAN_LOST_COMMUNICATION_WITH_TCM
 0000:0009C663       U0416_CAN_INVALID_DATA_RECEIVED_FROM_VDC
 0000:0009C664       U0122_CAN_LOST_COMMUNICATION_WITH_VDC
 0000:0009C665       U0073_CAN_COMMUNICATION_BUS_A_OFF
 0000:0009C667       P050B_COLD_START_IGNITION_TIMING_PERFORMANCE
 0000:0009C668       P050A_COLD_START_IDLE_AIR_CONTROL_SYSTEM_PERFORMANCE
 0000:0009C669       P2610_ECMPCM_INTERNAL_ENGINE_OFF_TIMER_PERFORMANCE
 0000:0009C66C       P2401_EVAP_LEAK_DETECTION_PUMP_CONTROL_CIRCUIT_LOW
 0000:0009C671       P015B_O2_SENSOR_DELAYED_RESPONSE_LEAN_TO_RICH_B1_S1
 0000:0009C672       P015A_O2_SENSOR_DELAYED_RESPONSE_RICH_TO_LEAN_B1_S1
 0000:0009C675       P014D_O2_SENSOR_SLOW_RESPONSE_LEAN_TO_RICH_B1_S1
 0000:0009C676       P014C_O2_SENSOR_SLOW_RESPONSE_RICH_TO_LEAN_B1_S1
 0000:0009C677       P1458_CANISTER_PURGE_CONTROL_SOLENOID_VALVE_2_LOW
 0000:0009C678       P1451_EVAPORATIVE_EMISSION_CONT_SYS
 0000:0009C679       P1449_EVAPORATIVE_EMISSION_CONT_SYS_AIR_FILTER_CLOG
 0000:0009C67A       P0455_EVAP_EMISSION_CONTROL_SYSTEM_LEAK_DETECTED_GROSS_LEAK
 0000:0009C67E       P219A_BANK_1_AFR_IMBALANCE
 0000:0009C67F       P2404_EVAP_LEAK_DETECTION_PUMP_SENSE_CIRCUIT_RANGEPERF
 0000:0009C680       P2402_EVAP_LEAK_DETECTION_PUMP_CONTROL_CIRCUIT_HIGH
 0000:0009C681       P1459_CANISTER_PURGE_CONTROL_SOLENOID_VALVE_2_HIGH
 0000:0009C684       P013F_O2_SENSOR_DELAYED_RESPONSE_LEAN_TO_RICH_B1_S2
 0000:0009C685       P013E_O2_SENSOR_DELAYED_RESPONSE_RICH_TO_LEAN_B1_S2
 0000:0009C688       P013B_O2_SENSOR_SLOW_RESPONSE_LEAN_TO_RICH_B1_S2
 0000:0009C689       P013A_O2_SENSOR_SLOW_RESPONSE_RICH_TO_LEAN_B1_S2
 0000:0009C68C       P0354_IGNITION_COIL_D_PRIMARYSECONDARY_CIRCUIT_MALFUNCTION
 0000:0009C68D       P0353_IGNITION_COIL_C_PRIMARYSECONDARY_CIRCUIT_MALFUNCTION
 0000:0009C68E       P0352_IGNITION_COIL_B_PRIMARYSECONDARY_CIRCUIT_MALFUNCTION
 0000:0009C68F       P0351_IGNITION_COIL_A_PRIMARYSECONDARY_CIRCUIT_MALFUNCTION
 0000:0009E31C       aCJCoW
 0000:000A1D96       aCoQfHlfu
 0000:000A3F10       Force_Pass_Readiness_Monitors_
 0000:000A7340       Table_InitialMax_Wastegate_Duty_Compensation_IAT
 0000:000A7368       Table_InitialMax_Wastegate_Duty_Compensation_ECT
 0000:000A737C       Table_TD_Proportional_Compensation_IAT
 0000:000A7390       Table_TD_Integral_Negative_Compensation_IAT
 0000:000A73A4       Table_TD_Integral_Positive_Compensation_IAT
 0000:000A73B8       Table_Target_Boost_Compensation_ECT
 0000:000A73CC       Table_Turbo_Dynamics_Proportional
 0000:000A73E0       Table_Turbo_Dynamics_Integral_Negative
 0000:000A73F4       Table_Turbo_Dynamics_Integral_Positive
 0000:000A742C       Table_Target_Boost_Compensation_IAT_
 0000:000A7438       Table_InitialMax_Wastegate_Duty_Compensation_Atm_Pressure
 0000:000A7454       Table_Target_Boost_Compensation_Atm_Pressure_
 0000:000A7470       Table_Max_Wastegate_Duty_
 0000:000A748C       Table_Initial_Wastegate_Duty_
 0000:000A74A8       Table_Target_Boost_
 0000:000A78CC       Table_Engine_Load_Limit_B_Maximum_RPM
 0000:000A7944       Table_Front_Oxygen_Sensor_Compensation_Atm_Pressure
 0000:000A7A4C       Table_MAF_Compensation_IAT
 0000:000A7A68       Table_Engine_Load_Compensation_Cruise_MP
 0000:000A7A84       Table_Engine_Load_Compensation_NonCruise_MP
 0000:000A8CF0       Table_Cranking_Fuel_IPW_Compensation_MAP
 0000:000A8D04       Table_Cranking_Fuel_IPW_Compensation_Accelerator
 0000:000A8D18       Table_Cranking_Fuel_IPW_Compensation_IAT
 0000:000A8D84       Table_Min_Primary_Base_Enrichment_1_NonPrimary_OL_
 0000:000A8F4C       Table_Primary_Open_Loop_Fueling_Compensation_Timing_Compensation_
 0000:000A8F60       Table_CL_to_OL_Transition_with_Delay_Throttle
 0000:000A8F74       Table_Minimum_Primary_Open_Loop_Enrichment_Throttle
 0000:000A8F88       Table_Minimum_Primary_Open_Loop_Enrichment_Accelerator
 0000:000A9154       Table_Tipin_Enrichment_Compensation_RPM
 0000:000A9168       Table_Tipin_Enrichment_Compensation_Boost_Error
 0000:000A917C       Table_Tipin_Enrichment_Compensation_A_ECT
 0000:000A9190       Table_Tipin_Enrichment_Disable_Applied_Counter_Threshold_A_ECT
 0000:000A919C       Table_Tipin_Enrichment_Disable_Applied_Counter_Threshold_B_ECT
 0000:000A9274       Table_Cranking_Fuel_Injector_Pulse_Width_A_ECT
 0000:000A9288       Table_Cranking_Fuel_Injector_Pulse_Width_B_ECT
 0000:000A929C       Table_Cranking_Fuel_Injector_Pulse_Width_C_ECT
 0000:000A92B0       Table_Cranking_Fuel_Injector_Pulse_Width_D_ECT
 0000:000A92C4       Table_Cranking_Fuel_Injector_Pulse_Width_E_ECT
 0000:000A92D8       Table_Cranking_Fuel_Injector_Pulse_Width_F_ECT
 0000:000A9A3C       Table_CL_to_OL_Transition_with_Delay_Base_Pulse_Width
 0000:000A9A50       Table_CL_to_OL_Transition_Counter_Step_Value_MAF
 0000:000A9A74       Table_Primary_Open_Loop_Fueling_Compensation_ECT
 0000:000A9D00       Table_Throttle_Tipin_Enrichment_A
 0000:000A9D14       Table_Throttle_Tipin_Enrichment_B
 0000:000A9D28       Table_Tipin_Enrichment_Compensation_B_ECT
 0000:000A9D3C       Table_Tipin_Enrichment_Compensation_C_ECT
 0000:000A9D5C       Table_Tipin_Enrichment_Compensation_D_ECT
 0000:000A9D70       Table_Tipin_Enrichment_Disable_Throttle_Cumulative_Threshold_A_ECT
 0000:000A9D84       Table_Tipin_Enrichment_Disable_Throttle_Cumulative_Threshold_B_ECT
 0000:000A9EE8       Table_Cranking_Fuel_IPW_Compensation_Imm_NonCruise_RPM
 0000:000A9F04       Table_Cranking_Fuel_IPW_Compensation_Imm_Cruise_RPM
 0000:000A9F74       Table_Min_Primary_Base_Enrichment_1_NonCruise
 0000:000A9F90       Table_Min_Primary_Base_Enrichment_1_Cruise
 0000:000AA000       Table_Primary_Open_Loop_Fueling_KCA_Alternate_Mode
 0000:000AA01C       Table_Primary_Open_Loop_Fueling_Failsafe_KCA_Alternate_Mode
 0000:000AA054       Table_Primary_Open_Loop_Fueling_KCA_Additive_B_Low
 0000:000AA070       Table_Primary_Open_Loop_Fueling_KCA_Additive_B_High
 0000:000AA08C       Table_Primary_Open_Loop_Fueling_Failsafe
 0000:000AA0C4       Table_Per_Injector_Pulse_Width_Compensation_A
 0000:000AA0E0       Table_Per_Injector_Pulse_Width_Compensation_B
 0000:000AA0FC       Table_Per_Injector_Pulse_Width_Compensation_C
 0000:000AA118       Table_Per_Injector_Pulse_Width_Compensation_D
 0000:000AA16C       Table_Injector_Latency_
 0000:000AA20C       Table_CL_Fueling_Target_Compensation_Imm_Cruise_ECT
 0000:000AA228       Table_CL_Fueling_Target_Compensation_Imm_NonCruise_ECT
 0000:000AA244       Table_CL_Fueling_Target_Compensation_A_Load
 0000:000AA27C       Table_CL_Fueling_Target_Compensation_B_Load
 0000:000AA394       Table_Boost_Limit_Fuel_Cut_
 0000:000AA4A8       Table_Base_Timing_Idle_Minimum
 0000:000AA4BC       Table_Base_Timing_Idle_A_InGear
 0000:000AA4D0       Table_Base_Timing_Idle_B_InGear
 0000:000AA4E4       Table_Base_Timing_Idle_A_Neutral
 0000:000AA4F8       Table_Base_Timing_Idle_B_Neutral
 0000:000AA534       Table_Timing_Compensation_Imm_NonCruise_A_ECT
 0000:000AA548       Table_Timing_Compensation_Imm_NonCruise_B_ECT
 0000:000AA55C       Table_Timing_Compensation_Imm_Cruise_A_ECT
 0000:000AA570       Table_Timing_Compensation_Imm_Cruise_B_ECT
 0000:000AA584       Table_Timing_Compensation_A_IAT
 0000:000AA8E0       Table_Timing_Compensation_B_IAT
 0000:000AAA34       Table_Rough_Correction_Learning_Delay_Increasing_
 0000:000AAC10       Table_Base_Timing_Primary_Cruise
 0000:000AAC2C       Table_Base_Timing_Primary_NonCruise
 0000:000AAC48       Table_Base_Timing_Reference_Cruise_AVCS_related
 0000:000AAC64       Table_Base_Timing_Reference_NonCruise_AVCS_related
 0000:000AAC80       Table_Timing_Compensation_A_IAT_Activation
 0000:000AADEC       Table_Timing_Compensation_Per_Gear_1st
 0000:000AAE08       Table_Timing_Compensation_Per_Gear_2nd
 0000:000AAE24       Table_Timing_Compensation_Per_Gear_3rd
 0000:000AAE40       Table_Timing_Compensation_Per_Gear_4th
 0000:000AAE5C       Table_Timing_Compensation_Per_Gear_5th
 0000:000AAE78       Table_Timing_Compensation_Per_Cylinder_A
 0000:000AAE94       Table_Timing_Compensation_Per_Cylinder_B
 0000:000AAEB0       Table_Timing_Compensation_Per_Cylinder_C
 0000:000AAECC       Table_Timing_Compensation_Per_Cylinder_D
 0000:000AAF04       Table_Knock_Correction_Advance_Max_Additive_A_Knock_Conditions_IAM
 0000:000AAF20       Table_Knock_Correction_Advance_Max_Primary_Cruise_IAM
 0000:000AAF3C       Table_Knock_Correction_Advance_Max_Primary_NonCruise_IAM
 0000:000AAF58       Table_Knock_Correction_Advance_Max_Additive_B_Knock_Conditions
 0000:000AB424       Table_Idle_Speed_Target_A
 0000:000AB44C       Table_Idle_Speed_Target_B
 0000:000AB474       Table_Idle_Speed_Target_C
 0000:000AB4D8       Table_Idle_Speed_Target_D
 0000:000ABA18       Table_Requested_Torque_Base_RPM
 0000:000ABB00       Table_Target_Throttle_Plate_Position_Cruise_Requested_Torque_Ratio
 0000:000ABB1C       Table_Target_Throttle_Plate_Position_NonCruise_Requested_Torque_Ratio
 0000:000ABB38       Table_Target_Throttle_Plate_Position_Maximum_Requested_Torque_Ratio
 0000:000ABB70       Table_Requested_Torque_Limit_A_Per_GearEngine_Speed
 0000:000ABB8C       Table_Requested_Torque_Limit_B_Per_GearEngine_Speed
 0000:000ABBA8       Table_Requested_Torque_Accelerator_Pedal_SIDRIVE_Sport
 0000:000ABBC4       Table_Requested_Torque_Accelerator_Pedal_SIDRIVE_Sport_Sharp
 0000:000ABBE0       Table_Requested_Torque_Accelerator_Pedal_SIDRIVE_Intelligent
 0000:000ABD1C       Table_MAF_Sensor_Scaling
 0000:000ABD28       Table_Front_Oxygen_Sensor_Scaling
 0000:000ABD34       Table_Coolant_Temp_Sensor_Scaling
 0000:000ABD40       Table_Intake_Temp_Sensor_Scaling
 0000:000ABD4C       Table_Fuel_Temp_Sensor_Scaling
 0000:000ABD88       Table_Ignition_Dwell
 0000:000AC274       Table_Intake_Cam_Advance_Angle_Cruise_AVCS
 0000:000AC290       Table_Intake_Cam_Advance_Angle_NonCruise_AVCS
 0000:000AC338       Table_Exhaust_Cam_Retard_Angle_Cruise_AVCS
 0000:000AC354       Table_Exhaust_Cam_Retard_Angle_NonCruise_AVCS
 0000:000BE7F4       sPull2DFloat
 0000:000BE8A8       sPull3DFloat
 0000:000BF258       aMsr_rfcc_shcv9
 0000:000C0000       aAe5ib00v
 0000:000C09F1       Boost_Control_Disable_Delay_Fine_Correction
 0000:000C0A18       TD_Activation_Thresholds_Target_Boost_
 0000:000C0A20       TD_Integral_Negative_Activation_Boost_Error
 0000:000C0A24       TD_Integral_Positive_Activation_Boost_Error
 0000:000C0A28       TD_Integral_Negative_Activation_Wastegate_Duty
 0000:000C0A2C       TD_Activation_Thresholds_RPM
 0000:000C0A34       TD_Integral_Cumulative_Range_WGDC_Correction
 0000:000C0A3C       Boost_Control_Disable_Fine_Correction
 0000:000C0A40       Boost_Control_Disable_IAM
 0000:000C0A4C       Target_Boost_Compensation_1st_Gear_Speed_Disable
 0000:000C0A50       Target_Boost_Compensation_1st_Gear
 0000:000C0A58       InitialMax_Wastegate_Duty_Compensation_ECT_Y_Axis
 0000:000C0A98       TD_Integral_Negative_Compensation_IAT_Y_Axis
 0000:000C0AD8       InitialMax_Wastegate_Duty_Compensation_IAT
 0000:000C0AF8       InitialMax_Wastegate_Duty_Compensation_ECT
 0000:000C0B08       TD_Proportional_Compensation_IAT
 0000:000C0B18       TD_Integral_Negative_Compensation_IAT
 0000:000C0B28       TD_Integral_Positive_Compensation_IAT
 0000:000C0B38       Target_Boost_Compensation_ECT
 0000:000C0B48       Turbo_Dynamics_Proportional_Y_Axis
 0000:000C0B6C       Turbo_Dynamics_Proportional
 0000:000C0B80       Turbo_Dynamics_Integral_Negative_Y_Axis
 0000:000C0BA4       Turbo_Dynamics_Integral_Negative
 0000:000C0BB8       Turbo_Dynamics_Integral_Positive_Y_Axis
 0000:000C0BDC       Turbo_Dynamics_Integral_Positive
 0000:000C0C68       Target_Boost_Compensation_IAT__Y_Axis
 0000:000C0C94       Target_Boost_Compensation_IAT_
 0000:000C0CC0       InitialMax_Wastegate_Duty_Compensation_Atm_Pressure_X_Axis
 0000:000C0CD8       InitialMax_Wastegate_Duty_Compensation_Atm_Pressure_Y_Axis
 0000:000C0CE8       InitialMax_Wastegate_Duty_Compensation_Atm_Pressure
 0000:000C0D00       Target_Boost_Compensation_Atm_Pressure__X_Axis
 0000:000C0D18       Target_Boost_Compensation_Atm_Pressure__Y_Axis
 0000:000C0D30       Target_Boost_Compensation_Atm_Pressure_
 0000:000C0D54       Max_Wastegate_Duty__X_Axis
 0000:000C0D80       Max_Wastegate_Duty__Y_Axis
 0000:000C0DA8       Max_Wastegate_Duty_
 0000:000C0E84       Initial_Wastegate_Duty__X_Axis
 0000:000C0EB0       Initial_Wastegate_Duty__Y_Axis
 0000:000C0ED8       Initial_Wastegate_Duty_
 0000:000C0FB4       Target_Boost__X_Axis
 0000:000C0FEC       Target_Boost__Y_Axis
 0000:000C1024       Target_Boost_
 0000:000C1308       aDzpfff
 0000:000C1310       aDh
 0000:000C1420       aLSss?
 0000:000C1F90       a@Ss@Ss??B
 0000:000C1FA4       a@
 0000:000C1FA8       aCz
 0000:000C2170       aLSssCff?
 0000:000C2188       a?a_5
 0000:000C2CF4       MAF_Limit_Maximum
 0000:000C2D14       dLoadSmoothingAlt
 0000:000C2D18       dLoadSmoothingB
 0000:000C2D1C       dLoadSmoothingA
 0000:000C2D28       dLoadSmoothingFinal
 0000:000C2DE4       aLQiUtD@
 0000:000C2DF4       aD
 0000:000C2DF8       aEia
 0000:000C2DFC       aEma
 0000:000C3068       Gear_Determination_Thresholds_A
 0000:000C307C       Gear_Determination_Thresholds_B
 0000:000C3090       Gear_Determination_Thresholds_C
 0000:000C30A8       aAa
 0000:000C30AC       aA_3
 0000:000C30B0       aAa_0
 0000:000C30B4       aA_4
 0000:000C30B8       aB_1
 0000:000C319C       Engine_Load_Limit_B_Maximum_RPM_Y_Axis
 0000:000C31A4       Engine_Load_Limit_B_Maximum_RPM
 0000:000C3294       Front_Oxygen_Sensor_Compensation_Atm_Pressure_Y_Axis
 0000:000C32A4       Front_Oxygen_Sensor_Compensation_Atm_Pressure
 0000:000C33C4       aEMyuxQfOWfa
 0000:000C33D8       aA_9
 0000:000C3610       MAF_Compensation_IAT_X_Axis
 0000:000C3624       MAF_Compensation_IAT_Y_Axis
 0000:000C3644       MAF_Compensation_IAT
 0000:000C366C       Engine_Load_Compensation_Cruise_MP_X_Axis
 0000:000C3698       Engine_Load_Compensation_Cruise_MP_Y_Axis
 0000:000C36F4       Engine_Load_Compensation_Cruise_MP
 0000:000C37F4       Engine_Load_Compensation_NonCruise_MP_X_Axis
 0000:000C3820       Engine_Load_Compensation_NonCruise_MP_Y_Axis
 0000:000C3874       Engine_Load_Compensation_NonCruise_MP
 0000:000C3C34       aL_0
 0000:000C43D0       a@eEHbsa@Ffhbsa
 0000:000C43EC       aLcxe
 0000:000C456C       aG
 0000:000C470C       aA33ac33?Ss?Ssa
 0000:000C4724       a?_2
 0000:000C4728       aDma
 0000:000C472C       aB_2
 0000:000C4730       aB_3
 0000:000C4734       a?bp?a
 0000:000C4740       aA_5
 0000:000C4744       a?fff
 0000:000C4754       a@_3
 0000:000C48C0       aL9aiqL?333bm
 0000:000C48D8       aAa_1
 0000:000C48DC       a@_2
 0000:000C48E0       aGLA
 0000:000C48EC       a?a_3
 0000:000C48F4       aBh_0
 0000:000C5140       aAllmzs
 0000:000C5150       aD_0
 0000:000C51D0       a88666fmmmmmamm
 0000:000C51E0       aD_1
 0000:000C5454       aDddddddddddddd
 0000:000C5464       aA_6
 0000:000C5638       aYYYFfffffffs3a
 0000:000C564C       aD_2
 0000:000C590C       aIaiaiaiaiaiaia
 0000:000C5B14       aA1ssa1ssa1ssa1
 0000:000C5B34       aDS3dS3dS3dS3
 0000:000C5BB0       aDS3dS3dS3dS3dS
 0000:000C5BCC       aR
 0000:000C5C04       aDS3dS3dS3dS3_0
 0000:000C5C1C       aR_0
 0000:000C6424       a33UPEASssMshAI
 0000:000C645C       aD_3
 0000:000C6804       a?jP?jP
 0000:000C683C       aD_4
 0000:000C6874       a?jP?jP_0
 0000:000C68AC       aD_5
 0000:000C6BE8       aLSss?_0
 0000:000C6C20       aLSss?_1
 0000:000C87B4       aXrxrxrxrxrxrcC
 0000:000C87CC       aA_10
 0000:000C87E4       aXrxrxrxrxrxr_0
 0000:000C9070       aAh1ah1aa1amPaB
 0000:000C93EC       aEusEusEusEus
 0000:000C9401       a49xMshCnoZqaQi
 0000:000C9578       aEusEusEusEus_0
 0000:000C958D       a49xMshCnoZqa_0
 0000:000C96E4       aAsh49xUPLcxIeu
 0000:000CBC08       aG_0
 0000:000CBC30       aLLL
 0000:000CBC45       aLLL_0
 0000:000CBC7C       aG_1
 0000:000CBCA4       aLLL_1
 0000:000CBCB9       aLLL_2
 0000:000CBD02       Tipin_Enrichment_Applied_Counter_Reset
 0000:000CBD03       Tipin_Throttle_Cumulative_Reset
 0000:000CBD50       CL_Delay_Engine_Load_Counter_Threshold
 0000:000CBD52       CL_to_OL_DelaySwitch_SIDRIVE_Intelligent
 0000:000CBD58       CL_to_OL_Delay_
 0000:000CBEF0       Injector_Flow_Scaling
 0000:000CBF24       aUPUPLLLL
 0000:000CBF40       a?yss?a
 0000:000CBF48       aP_0
 0000:000CBFD4       a?s33L?s33
 0000:000CBFE8       aBu
 0000:000CC00C       a?s33?s33?yss?s
 0000:000CC020       aB_0
 0000:000CC028       a?yss?sss?fff?a
 0000:000CC038       aGAa
 0000:000CC068       CL_Fueling_Target_Compensation_ECT_Disable
 0000:000CC124       AF_Learning_1_Limits
 0000:000CC134       AF_Learning_1_Airflow_Ranges
 0000:000CC1A8       aAiq?Q?zsg?zsg?
 0000:000CC22C       Primary_Open_Loop_Fuel_Map_Switch_IAM
 0000:000CC230       Minimum_Active_Primary_Open_Loop_Enrichment
 0000:000CC234       CL_to_OL_Transition_with_Delay_BPW_Hysteresis
 0000:000CC238       CL_to_OL_Transition_with_Delay_Throttle_Hysteresis
 0000:000CC23C       CL_Delay_Minimum_ECT
 0000:000CC240       CL_Delay_Maximum_Engine_Speed_Per_Gear
 0000:000CC268       CL_Delay_Maximum_Engine_Speed_Neutral
 0000:000CC298       CL_Delay_Maximum_Throttle
 0000:000CC2B4       CL_Delay_Maximum_Vehicle_Speed
 0000:000CC2C4       CL_Delay_Maximum_Engine_Load
 0000:000CC344       aLL?
 0000:000CC358       aLLA
 0000:000CC364       aA_1
 0000:000CC368       a?_1
 0000:000CC36C       aA_2
 0000:000CC370       a@a_1
 0000:000CC374       aCc
 0000:000CC4CC       aLLLLB
 0000:000CC55C       Minimum_Tipin_Enrichment_Activation_Throttle
 0000:000CC560       Minimum_Tipin_Enrichment_Activation
 0000:000CC564       Tipin_Enrichment_Compensation_D_ECT_Activation
 0000:000CC5BC       Rev_Limit_Fuel_Cut
 0000:000CC5C4       Rev_Limit_Fuel_Resume_Boost
 0000:000CC5CC       Speed_Limiting_Enable_Fuel_Cut
 0000:000CC5D4       Speed_Limiting_Disable_Fuel_Cut
 0000:000CC6B4       Min_Primary_Base_Enrichment_1_NonPrimary_OL__Y_Axis
 0000:000CC6F4       Tipin_Enrichment_Compensation_D_ECT_Y_Axis
 0000:000CC890       Cranking_Fuel_IPW_Compensation_MAP_Y_Axis
 0000:000CC8B8       Cranking_Fuel_IPW_Compensation_MAP
 0000:000CC8C4       Cranking_Fuel_IPW_Compensation_Accelerator_Y_Axis
 0000:000CC8EC       Cranking_Fuel_IPW_Compensation_Accelerator
 0000:000CC8F8       Cranking_Fuel_IPW_Compensation_IAT_Y_Axis
 0000:000CC90C       Cranking_Fuel_IPW_Compensation_IAT
 0000:000CC971       Min_Primary_Base_Enrichment_1_NonPrimary_OL_
 0000:000CCD68       Primary_Open_Loop_Fueling_Compensation_Timing_Compensation__Y_Axis
 0000:000CCD80       Primary_Open_Loop_Fueling_Compensation_Timing_Compensation_
 0000:000CCD88       CL_to_OL_Transition_with_Delay_Throttle_Y_Axis
 0000:000CCDC8       CL_to_OL_Transition_with_Delay_Throttle
 0000:000CCDD8       Minimum_Primary_Open_Loop_Enrichment_Throttle_Y_Axis
 0000:000CCDF0       Minimum_Primary_Open_Loop_Enrichment_Throttle
 0000:000CCDF8       Minimum_Primary_Open_Loop_Enrichment_Accelerator_Y_Axis
 0000:000CCE14       Minimum_Primary_Open_Loop_Enrichment_Accelerator
 0000:000CD0CC       aVxnzgbaaaaaaaa
 0000:000CD12C       Tipin_Enrichment_Compensation_RPM_Y_Axis
 0000:000CD16C       Tipin_Enrichment_Compensation_RPM
 0000:000CD17C       Tipin_Enrichment_Compensation_Boost_Error_Y_Axis
 0000:000CD1A0       Tipin_Enrichment_Compensation_Boost_Error
 0000:000CD1A9       Tipin_Enrichment_Compensation_A_ECT
 0000:000CD1B9       Tipin_Enrichment_Disable_Applied_Counter_Threshold_A_ECT
 0000:000CD1C9       Tipin_Enrichment_Disable_Applied_Counter_Threshold_B_ECT
 0000:000CD2E4       aCfcfcfcfcfcfcf
 0000:000CD30D       a?_3
 0000:000CD30F       a?_4
 0000:000CD311       a?_5
 0000:000CD313       a?_6
 0000:000CD315       a?_7
 0000:000CD317       a?_8
 0000:000CD33A       Cranking_Fuel_Injector_Pulse_Width_A_ECT
 0000:000CD35A       Cranking_Fuel_Injector_Pulse_Width_B_ECT
 0000:000CD37A       Cranking_Fuel_Injector_Pulse_Width_C_ECT
 0000:000CD39A       Cranking_Fuel_Injector_Pulse_Width_D_ECT
 0000:000CD3BA       Cranking_Fuel_Injector_Pulse_Width_E_ECT
 0000:000CD3DA       Cranking_Fuel_Injector_Pulse_Width_F_ECT
 0000:000CDAF8       aLSss?l?a
 0000:000CDB48       aLSss?l?a_0
 0000:000CDEA4       aPPUtZqaQi
 0000:000CDF98       a33333333333333
 0000:000CE24C       aZszszszszsyYYY
 0000:000CE34C       aZszszszszsyY_0
 0000:000CE5F4       CL_to_OL_Transition_with_Delay_Base_Pulse_Width_Y_Axis
 0000:000CE634       CL_to_OL_Transition_with_Delay_Base_Pulse_Width
 0000:000CE654       CL_to_OL_Transition_Counter_Step_Value_MAF_Y_Axis
 0000:000CE67C       CL_to_OL_Transition_Counter_Step_Value_MAF
 0000:000CE708       Primary_Open_Loop_Fueling_Compensation_ECT
 0000:000CE710       a1KDzgoqYA
 0000:000CE720       aA_11
 0000:000CE722       aA_12
 0000:000CE724       aA_13
 0000:000CE726       aA_14
 0000:000CE788       aL_1
 0000:000CE7CE       aA_7
 0000:000CE7DE       aA_15
 0000:000CE7E0       aA_16
 0000:000CE7E2       aA_17
 0000:000CE7E4       aA_18
 0000:000CE7E6       aA_19
 0000:000CE7E8       aA_20
 0000:000CE7EC       aSss?
 0000:000CEE44       Throttle_Tipin_Enrichment_A_Y_Axis
 0000:000CEE8C       Throttle_Tipin_Enrichment_A
 0000:000CEEB0       Throttle_Tipin_Enrichment_B_Y_Axis
 0000:000CEEF8       Throttle_Tipin_Enrichment_B
 0000:000CEF1C       Tipin_Enrichment_Compensation_B_ECT
 0000:000CEF3C       Tipin_Enrichment_Compensation_C_ECT
 0000:000CEF7C       Tipin_Enrichment_Compensation_D_ECT
 0000:000CEF9C       Tipin_Enrichment_Disable_Throttle_Cumulative_Threshold_A_ECT
 0000:000CEFBC       Tipin_Enrichment_Disable_Throttle_Cumulative_Threshold_B_ECT
 0000:000CF734       aAmZfamZfaamzfa
 0000:000CF758       aBc
 0000:000CF788       aAmZfamZfaamz_0
 0000:000CF7AC       Cranking_Fuel_IPW_Compensation_Imm_NonCruise_RPM_X_Axis
 0000:000CF7C0       Cranking_Fuel_IPW_Compensation_Imm_NonCruise_RPM_Y_Axis
 0000:000CF7DC       Cranking_Fuel_IPW_Compensation_Imm_NonCruise_RPM
 0000:000CF800       Cranking_Fuel_IPW_Compensation_Imm_Cruise_RPM_X_Axis
 0000:000CF814       Cranking_Fuel_IPW_Compensation_Imm_Cruise_RPM_Y_Axis
 0000:000CF830       Cranking_Fuel_IPW_Compensation_Imm_Cruise_RPM
 0000:000CF9C4       Min_Primary_Base_Enrichment_1_NonCruise_Y_Axis
 0000:000CF9E4       Min_Primary_Base_Enrichment_1_NonCruise
 0000:000CFA64       Min_Primary_Base_Enrichment_1_Cruise_Y_Axis
 0000:000CFA88       Min_Primary_Base_Enrichment_1_Cruise
 0000:000CFDB4       aZzzzzzzz
 0000:000CFDFC       Primary_Open_Loop_Fueling_KCA_Alternate_Mode_X_Axis
 0000:000CFE48       Primary_Open_Loop_Fueling_KCA_Alternate_Mode_Y_Axis
 0000:000CFE90       Primary_Open_Loop_Fueling_KCA_Alternate_Mode
 0000:000CFFE8       Primary_Open_Loop_Fueling_Failsafe_KCA_Alternate_Mode_X_Axis
 0000:000D0000       a?u33?jff?Ss??r
 0000:000D0034       Primary_Open_Loop_Fueling_Failsafe_KCA_Alternate_Mode_Y_Axis
 0000:000D007C       Primary_Open_Loop_Fueling_Failsafe_KCA_Alternate_Mode
 0000:000D01E8       Primary_Open_Loop_Fueling_KCA_Additive_B_Low_X_Axis
 0000:000D0234       Primary_Open_Loop_Fueling_KCA_Additive_B_Low_Y_Axis
 0000:000D027C       Primary_Open_Loop_Fueling_KCA_Additive_B_Low
 0000:000D03D4       Primary_Open_Loop_Fueling_KCA_Additive_B_High_X_Axis
 0000:000D0420       Primary_Open_Loop_Fueling_KCA_Additive_B_High_Y_Axis
 0000:000D0468       Primary_Open_Loop_Fueling_KCA_Additive_B_High
 0000:000D05C0       Primary_Open_Loop_Fueling_Failsafe_X_Axis
 0000:000D060C       Primary_Open_Loop_Fueling_Failsafe_Y_Axis
 0000:000D0654       Primary_Open_Loop_Fueling_Failsafe
 0000:000D0814       Per_Injector_Pulse_Width_Compensation_A_X_Axis
 0000:000D0854       Per_Injector_Pulse_Width_Compensation_A_Y_Axis
 0000:000D0894       Per_Injector_Pulse_Width_Compensation_A
 0000:000D0994       Per_Injector_Pulse_Width_Compensation_B_X_Axis
 0000:000D09D4       Per_Injector_Pulse_Width_Compensation_B_Y_Axis
 0000:000D0A14       Per_Injector_Pulse_Width_Compensation_B
 0000:000D0B14       Per_Injector_Pulse_Width_Compensation_C_X_Axis
 0000:000D0B54       Per_Injector_Pulse_Width_Compensation_C_Y_Axis
 0000:000D0B94       Per_Injector_Pulse_Width_Compensation_C
 0000:000D0C94       Per_Injector_Pulse_Width_Compensation_D_X_Axis
 0000:000D0CD4       Per_Injector_Pulse_Width_Compensation_D_Y_Axis
 0000:000D0D14       Per_Injector_Pulse_Width_Compensation_D
 0000:000D1050       Injector_Latency__X_Axis
 0000:000D1064       Injector_Latency__Y_Axis
 0000:000D1070       Injector_Latency_
 0000:000D14A4       CL_Fueling_Target_Compensation_Imm_Cruise_ECT_Y_Axis
 0000:000D14B0       CL_Fueling_Target_Compensation_Imm_Cruise_ECT
 0000:000D1510       CL_Fueling_Target_Compensation_Imm_NonCruise_ECT_Y_Axis
 0000:000D151C       CL_Fueling_Target_Compensation_Imm_NonCruise_ECT
 0000:000D152C       aA_21
 0000:000D152E       aA_22
 0000:000D1530       aA_23
 0000:000D1532       aA_24
 0000:000D1534       aA_25
 0000:000D1536       aA_26
 0000:000D1538       aA_27
 0000:000D153A       aA_28
 0000:000D153C       aJfjfjfjfjfjfjf
 0000:000D1550       aA_29
 0000:000D1552       aA_30
 0000:000D1554       aA_31
 0000:000D1556       aA_32
 0000:000D1558       aA_33
 0000:000D155A       aA_34
 0000:000D155C       aJfjfjfjfjfjf_0
 0000:000D1576       aA_35
 0000:000D1578       aA_36
 0000:000D157A       aA_37
 0000:000D157C       CL_Fueling_Target_Compensation_A_Load_X_Axis
 0000:000D15AC       CL_Fueling_Target_Compensation_A_Load_Y_Axis
 0000:000D15D8       CL_Fueling_Target_Compensation_A_Load
 0000:000D16E0       aLWSss?
 0000:000D1844       CL_Fueling_Target_Compensation_B_Load_X_Axis
 0000:000D187C       CL_Fueling_Target_Compensation_B_Load_Y_Axis
 0000:000D18B0       CL_Fueling_Target_Compensation_B_Load
 0000:000D1A00       aS3s3s3s3s3s3s3
 0000:000D1A12       aLIFf
 0000:000D1A1C       aLWSss?_0
 0000:000D1BD8       aS3s3s3s3s3s3_0
 0000:000D1BEA       aLIFf_0
 0000:000D1BF2       aYLSss?
 0000:000D25B0       a33333333
 0000:000D25D0       Boost_Limit_Fuel_Cut__X_Axis
 0000:000D25E8       Boost_Limit_Fuel_Cut__Y_Axis
 0000:000D2600       Boost_Limit_Fuel_Cut_
 0000:000D2A3B       Knock_Correction_Advance_Alternate_Mode__
 0000:000D2A76       Feedback_Correction_Negative_Advance_Delay
 0000:000D2A86       Fine_Correction_Advance_Delay
 0000:000D2B74       Base_Timing_Idle_Minimum_Vehicle_Speed_Enable
 0000:000D2D18       Timing_Compensation_B_IAT_Max_Additive
 0000:000D2D34       Timing_Compensation_B_IAT_IAM_Activation
 0000:000D2D78       Timing_Compensation_Per_Gear_Activation_RPM
 0000:000D2D80       Timing_Compensation_Per_Gear_Activation_Load
 0000:000D2DD8       Timing_Comp_Maximum_RPM_Per_Cylinder
 0000:000D2DDC       Timing_Comp_Minimum_Load_Per_Cylinder
 0000:000D2DE0       Timing_Comp_Minimum_Coolant_Temp_Per_Cylinder
 0000:000D2DE4       Feedback_Correction_Minimum_Load
 0000:000D2DEC       Feedback_Correction_Range_RPM
 0000:000D2E08       Feedback_Correction_Retard_Limit
 0000:000D2E0C       Feedback_Correction_Retard_Value
 0000:000D2E10       Feedback_Correction_Negative_Advance_Value
 0000:000D2E18       Extended_Feedback_Correction_High_RPM_Compensation
 0000:000D2EDC       Knock_Correction_Advance_Additive_Range_RPM
 0000:000D2EFC       Rough_Correction_Range_RPM
 0000:000D2F0C       Rough_Correction_Range_Load
 0000:000D2F1C       Rough_Correction_Minimum_KC_Advance_Map_Value
 0000:000D2F20       Advance_Multiplier_Initial
 0000:000D2F24       Advance_Multiplier_Step_Value
 0000:000D2F54       Fine_Correction_Rows_RPM
 0000:000D2F70       Fine_Correction_Columns_Load
 0000:000D2F8C       Fine_Correction_Advance_Limit
 0000:000D2F90       Fine_Correction_Advance_Value
 0000:000D2F94       Fine_Correction_Retard_Limit
 0000:000D2F98       Fine_Correction_Retard_Value
 0000:000D2FB4       Fine_Correction_Range_RPM
 0000:000D2FC4       Fine_Correction_Range_Load
 0000:000D2FD4       Timing_Compensation_Imm_NonCruise_B_ECT_Y_Axis
 0000:000D3054       Base_Timing_Idle_Minimum_Y_Axis
 0000:000D30F0       aRrrrrrrrdug
 0000:000D3100       aDh_0
 0000:000D31E5       Base_Timing_Idle_Minimum
 0000:000D31EE       Base_Timing_Idle_A_InGear
 0000:000D31FE       Base_Timing_Idle_B_InGear
 0000:000D320E       Base_Timing_Idle_A_Neutral
 0000:000D321E       Base_Timing_Idle_B_Neutral
 0000:000D324E       Timing_Compensation_Imm_NonCruise_A_ECT
 0000:000D325E       Timing_Compensation_Imm_NonCruise_B_ECT
 0000:000D326E       Timing_Compensation_Imm_Cruise_A_ECT
 0000:000D327E       Timing_Compensation_Imm_Cruise_B_ECT
 0000:000D3290       Timing_Compensation_A_IAT_Y_Axis
 0000:000D32D0       Timing_Compensation_A_IAT
 0000:000D33A8       aAaaaaaaazmfAaa
 0000:000D33CC       aC_0
 0000:000D34D0       aGggggggg
 0000:000D3660       aAaaaaaaa3@Aaaa
 0000:000D3838       Timing_Compensation_B_IAT_Y_Axis
 0000:000D3878       Timing_Compensation_B_IAT
 0000:000D3B7C       Rough_Correction_Learning_Delay_Increasing__Y_Axis
 0000:000D3BA4       Rough_Correction_Learning_Delay_Increasing_
 0000:000D4564       aOooooooooooooo
 0000:000D459C       aAaaRjaaaaxpaaa
 0000:000D45B0       Base_Timing_Primary_Cruise_X_Axis
 0000:000D45FC       Base_Timing_Primary_Cruise_Y_Axis
 0000:000D4644       Base_Timing_Primary_Cruise
 0000:000D479C       Base_Timing_Primary_NonCruise_X_Axis
 0000:000D47E8       Base_Timing_Primary_NonCruise_Y_Axis
 0000:000D4830       Base_Timing_Primary_NonCruise
 0000:000D4988       Base_Timing_Reference_Cruise_AVCS_related_X_Axis
 0000:000D49A0       a?u33?jff?Ss?_0
 0000:000D49D4       Base_Timing_Reference_Cruise_AVCS_related_Y_Axis
 0000:000D4A1C       Base_Timing_Reference_Cruise_AVCS_related
 0000:000D4B74       Base_Timing_Reference_NonCruise_AVCS_related_X_Axis
 0000:000D4BC0       Base_Timing_Reference_NonCruise_AVCS_related_Y_Axis
 0000:000D4C08       Base_Timing_Reference_NonCruise_AVCS_related
 0000:000D4D60       Timing_Compensation_A_IAT_Activation_X_Axis
 0000:000D4D80       Timing_Compensation_A_IAT_Activation_Y_Axis
 0000:000D4DA0       Timing_Compensation_A_IAT_Activation
 0000:000D4DB4       a@@@@@@@@@@@@aa
 0000:000D4E10       aSvzAjnucsvzAjn
 0000:000D4E2C       aH
 0000:000D4E5C       aSvzAjnucfmszak
 0000:000D4E78       aH_0
 0000:000D4FDC       aIJyalcVdoxaisK
 0000:000D4FF0       aC_1
 0000:000D501C       aZzfsaraaazzfsa
 0000:000D510C       aAaaaaaaaaaaaaa
 0000:000D51F4       Timing_Compensation_Per_Gear_1st_X_Axis
 0000:000D5204       Timing_Compensation_Per_Gear_1st_Y_Axis
 0000:000D5210       Timing_Compensation_Per_Gear_1st
 0000:000D521C       Timing_Compensation_Per_Gear_2nd_X_Axis
 0000:000D522C       Timing_Compensation_Per_Gear_2nd_Y_Axis
 0000:000D5238       Timing_Compensation_Per_Gear_2nd
 0000:000D5244       Timing_Compensation_Per_Gear_3rd_X_Axis
 0000:000D5254       Timing_Compensation_Per_Gear_3rd_Y_Axis
 0000:000D5260       Timing_Compensation_Per_Gear_3rd
 0000:000D526C       Timing_Compensation_Per_Gear_4th_X_Axis
 0000:000D527C       Timing_Compensation_Per_Gear_4th_Y_Axis
 0000:000D5288       Timing_Compensation_Per_Gear_4th
 0000:000D5294       Timing_Compensation_Per_Gear_5th_X_Axis
 0000:000D52A4       Timing_Compensation_Per_Gear_5th_Y_Axis
 0000:000D52B0       Timing_Compensation_Per_Gear_5th
 0000:000D52BC       Timing_Compensation_Per_Cylinder_A_X_Axis
 0000:000D52F4       Timing_Compensation_Per_Cylinder_A_Y_Axis
 0000:000D5304       Timing_Compensation_Per_Cylinder_A
 0000:000D533C       Timing_Compensation_Per_Cylinder_B_X_Axis
 0000:000D5374       Timing_Compensation_Per_Cylinder_B_Y_Axis
 0000:000D5384       Timing_Compensation_Per_Cylinder_B
 0000:000D53BC       Timing_Compensation_Per_Cylinder_C_X_Axis
 0000:000D53F4       Timing_Compensation_Per_Cylinder_C_Y_Axis
 0000:000D5404       Timing_Compensation_Per_Cylinder_C
 0000:000D543C       Timing_Compensation_Per_Cylinder_D_X_Axis
 0000:000D5474       Timing_Compensation_Per_Cylinder_D_Y_Axis
 0000:000D5484       Timing_Compensation_Per_Cylinder_D
 0000:000D54DC       Knock_Correction_Advance_Max_Additive_A_Knock_Conditions_IAM_X_Axis
 0000:000D5528       Knock_Correction_Advance_Max_Additive_A_Knock_Conditions_IAM_Y_Axis
 0000:000D5570       Knock_Correction_Advance_Max_Additive_A_Knock_Conditions_IAM
 0000:000D56C8       Knock_Correction_Advance_Max_Primary_Cruise_IAM_X_Axis
 0000:000D5714       Knock_Correction_Advance_Max_Primary_Cruise_IAM_Y_Axis
 0000:000D575C       Knock_Correction_Advance_Max_Primary_Cruise_IAM
 0000:000D58B4       Knock_Correction_Advance_Max_Primary_NonCruise_IAM_X_Axis
 0000:000D5900       Knock_Correction_Advance_Max_Primary_NonCruise_IAM_Y_Axis
 0000:000D5948       Knock_Correction_Advance_Max_Primary_NonCruise_IAM
 0000:000D5AA0       Knock_Correction_Advance_Max_Additive_B_Knock_Conditions_X_Axis
 0000:000D5AEC       Knock_Correction_Advance_Max_Additive_B_Knock_Conditions_Y_Axis
 0000:000D5B34       Knock_Correction_Advance_Max_Additive_B_Knock_Conditions
 0000:000D5D44       a@s33@s33@s33@s
 0000:000D5F04       a@s33@s33@s33_0
 0000:000D60DC       aBbBbB8ffb8ff6f
 0000:000D60F8       aA@
 0000:000D6384       aP
 0000:000D6398       a@_0
 0000:000D63A0       aBa
 0000:000D63A4       aL
 0000:000D63B0       aBh
 0000:000D63B4       aB
 0000:000D63B8       aC
 0000:000D63BC       a@_1
 0000:000D63C4       a@@
 0000:000D684C       Idle_Speed_Target_D_Y_Axis
 0000:000D6960       aAaaaaaaaaaaa_0
 0000:000D6990       a?a_6
 0000:000D6B18       aAjffbFfbyssbjf
 0000:000D70F2       Idle_Speed_Target_A
 0000:000D7132       Idle_Speed_Target_B
 0000:000D7172       Idle_Speed_Target_C
 0000:000D7212       Idle_Speed_Target_D
 0000:000D8BA8       a33333
 0000:000D8BB0       aDc
 0000:000D8C6C       aLSss?_2
 0000:000D8E6A       Manifold_Pressure_Sensor_CEL_Delays
 0000:000D8EB8       Manifold_Pressure_Sensor_Limits_CEL
 0000:000D8F18       a_ssbnff@c1Scc
 0000:000D8F60       Manifold_Pressure_Sensor_Scaling_
 0000:000D9010       MAF_Sensor_Scaling_Y_Axis
 0000:000D90E8       MAF_Sensor_Scaling
 0000:000D91C0       Front_Oxygen_Sensor_Scaling_Y_Axis
 0000:000D91F4       Front_Oxygen_Sensor_Scaling
 0000:000D9228       Coolant_Temp_Sensor_Scaling_Y_Axis
 0000:000D9298       Coolant_Temp_Sensor_Scaling
 0000:000D9308       Intake_Temp_Sensor_Scaling_Y_Axis
 0000:000D9380       Intake_Temp_Sensor_Scaling
 0000:000D93F8       Fuel_Temp_Sensor_Scaling_Y_Axis
 0000:000D9470       Fuel_Temp_Sensor_Scaling
 0000:000D96C8       Ignition_Dwell_X_Axis
 0000:000D9708       Ignition_Dwell_Y_Axis
 0000:000D971C       Ignition_Dwell
 0000:000D9868       Radiator_Fan_Modes_A_ECT
 0000:000D9878       Radiator_Fan_Modes_B_ECT
 0000:000D9888       Radiator_Fan_Modes_Veh_Speed
 0000:000D9C80       aTltltltltltltl
 0000:000D9CA2       a2
 0000:000D9CA4       a2_0
 0000:000D9CA6       a2_1
 0000:000D9CA8       a2_2
 0000:000D9CAA       a2_3
 0000:000D9CAC       a2_4
 0000:000D9CAE       a2_5
 0000:000D9CB0       a2_6
 0000:000D9D2C       dEcuId
 0000:000DA0C0       aFffff
 0000:000DA0C8       aA_8
 0000:000DA474       a?La33bs33b
 0000:000DA488       aA
 0000:000DA48C       a@a
 0000:000DA490       aA_0
 0000:000DA494       a@a_0
 0000:000DA498       a?a
 0000:000DA49C       a?a_0
 0000:000DA4A0       a?
 0000:000DA4A4       a?_0
 0000:000DA4A8       a?a_1
 0000:000DA4AC       a?a_2
 0000:000DA72C       aAaaaaaaaaaa
 0000:000DB23C       Intake_Cam_Advance_Angle_Cruise_AVCS_X_Axis
 0000:000DB264       Exhaust_Cam_Retard_Angle_ECT_Related_Multiplier_Y_Axis
 0000:000DB288       Intake_Cam_Advance_Angle_Cruise_AVCS_Y_Axis
 0000:000DB2D0       Intake_Cam_Advance_Angle_Cruise_AVCS
 0000:000DB43A       Intake_Cam_Advance_Angle_ECT_Related_Multiplier
 0000:000DB53C       Exhaust_Cam_Retard_Angle_ECT_Related_Multiplier
 0000:000DB57C       Intake_Cam_Advance_Angle_NonCruise_AVCS_X_Axis
 0000:000DB5C8       Intake_Cam_Advance_Angle_NonCruise_AVCS_Y_Axis
 0000:000DB610       Intake_Cam_Advance_Angle_NonCruise_AVCS
 0000:000DBC84       Exhaust_Cam_Retard_Angle_Cruise_AVCS_X_Axis
 0000:000DBCD0       Exhaust_Cam_Retard_Angle_Cruise_AVCS_Y_Axis
 0000:000DBD18       Exhaust_Cam_Retard_Angle_Cruise_AVCS
 0000:000DBFC4       Exhaust_Cam_Retard_Angle_NonCruise_AVCS_X_Axis
 0000:000DC010       Exhaust_Cam_Retard_Angle_NonCruise_AVCS_Y_Axis
 0000:000DC058       Exhaust_Cam_Retard_Angle_NonCruise_AVCS
 0000:000DC4B4       Intake_Cam_Advance_Angle_ECT_Related_X_Axis
 0000:000DC500       Intake_Cam_Advance_Angle_ECT_Related_Y_Axis
 0000:000DC548       Intake_Cam_Advance_Angle_ECT_Related
 0000:000DC648       Speed_Limiting_A_Throttle_SIDRIVE_SportSport_Sharp
 0000:000DC654       Speed_Limiting_Throttle_SIDRIVE_Intelligent
 0000:000DC660       Speed_Limiting_B_Throttle_SIDRIVE_SportSport_Sharp
 0000:000DC7CC       Requested_Torque_Base_RPM_Y_Axis
 0000:000DC80C       Requested_Torque_Base_RPM
 0000:000DC81C       aPRRNLjinvVDh
 0000:000DC9CC       aGUPUPLG@
 0000:000DC9EC       a?a_4
 0000:000DCAFC       aAaaaaaaaaaaa_1
 0000:000DCB7C       aAaaaaaaaaaaa_2
 0000:000DCC3C       Target_Throttle_Plate_Position_Cruise_Requested_Torque_Ratio_X_Axis
 0000:000DCC98       Target_Throttle_Plate_Position_Cruise_Requested_Torque_Ratio_Y_Axis
 0000:000DCCD8       Target_Throttle_Plate_Position_Cruise_Requested_Torque_Ratio
 0000:000DCFB8       Target_Throttle_Plate_Position_NonCruise_Requested_Torque_Ratio_X_Axis
 0000:000DD014       Target_Throttle_Plate_Position_NonCruise_Requested_Torque_Ratio_Y_Axis
 0000:000DD054       Target_Throttle_Plate_Position_NonCruise_Requested_Torque_Ratio
 0000:000DD224       Exhaust_Cam_Retard_Angle_ECT_Related_X_Axis
 0000:000DD270       Exhaust_Cam_Retard_Angle_ECT_Related_Y_Axis
 0000:000DD2B8       Exhaust_Cam_Retard_Angle_ECT_Related
 0000:000DD334       Target_Throttle_Plate_Position_Maximum_Requested_Torque_Ratio_X_Axis
 0000:000DD390       Target_Throttle_Plate_Position_Maximum_Requested_Torque_Ratio_Y_Axis
 0000:000DD3D0       Target_Throttle_Plate_Position_Maximum_Requested_Torque_Ratio
 0000:000DD6DC       Requested_Torque_Limit_A_Per_GearEngine_Speed_X_Axis
 0000:000DD71C       Requested_Torque_Limit_A_Per_GearEngine_Speed_Y_Axis
 0000:000DD724       Requested_Torque_Limit_A_Per_GearEngine_Speed
 0000:000DD764       Requested_Torque_Limit_B_Per_GearEngine_Speed_X_Axis
 0000:000DD7A4       Requested_Torque_Limit_B_Per_GearEngine_Speed_Y_Axis
 0000:000DD7AC       Requested_Torque_Limit_B_Per_GearEngine_Speed
 0000:000DD7EC       Requested_Torque_Accelerator_Pedal_SIDRIVE_Sport_X_Axis
 0000:000DD82C       Requested_Torque_Accelerator_Pedal_SIDRIVE_Sport_Y_Axis
 0000:000DD870       Requested_Torque_Accelerator_Pedal_SIDRIVE_Sport
 0000:000DDA90       Requested_Torque_Accelerator_Pedal_SIDRIVE_Sport_Sharp_X_Axis
 0000:000DDAD0       Requested_Torque_Accelerator_Pedal_SIDRIVE_Sport_Sharp_Y_Axis
 0000:000DDB14       Requested_Torque_Accelerator_Pedal_SIDRIVE_Sport_Sharp
 0000:000DDD34       Requested_Torque_Accelerator_Pedal_SIDRIVE_Intelligent_X_Axis
 0000:000DDD74       Requested_Torque_Accelerator_Pedal_SIDRIVE_Intelligent_Y_Axis
 0000:000DDDB8       Requested_Torque_Accelerator_Pedal_SIDRIVE_Intelligent
 0000:000E1000       dRomHoleStart
 0000:000FFB80       Checksum_Fix
 0000:FFFF3158       E_AF_Learning_1_A_StoredExt_E44
 0000:FFFF3160       E_AF_Learning_1_B_StoredExt_E45
 0000:FFFF3168       E_AF_Learning_1_C_StoredExt_E46
 0000:FFFF3170       E_AF_Learning_1_D_StoredExt_E47
 0000:FFFF3200       E_IAM_4byteExt_E31
 0000:FFFF4042       pMafSensorVoltage
 0000:FFFF40B4       pMassAirFlow
 0000:FFFF40C8       pAf1Res
 0000:FFFF4128       pIntakeAirTemp
 0000:FFFF4140       pCoolantTemp
 0000:FFFF5C90       E_Boost_ErrorExt_E35
 0000:FFFF5C94       E_Target_Boost_Relative_4byteExt_E120
 0000:FFFF5C98       E_Target_Boost_4byteExt_E36
 0000:FFFF5C9C       E_Turbo_Dynamics_Proportional_4byteExt_E37
 0000:FFFF5CA0       E_Turbo_Dynamics_Integral_4byteExt_E34
 0000:FFFF5CB4       E_Primary_Wastegate_Duty_MaximumExt_4byteExt_E77
 0000:FFFF5FBE       pCoastFlags
 0000:FFFF5FBF       pResumeFlags
 0000:FFFF5FC0       pBrakeFlags
 0000:FFFF6208       E_Manifold_Relative_Sea_Level_Pressure_4byteExt_E52
 0000:FFFF620C       E_Manifold_Relative_Pressure_4byteExt_E113
 0000:FFFF62D8       E_Throttle_Plate_Opening_Angle_4byteExt_E38
 0000:FFFF62E0       E_Tipin_ThrottleExt_E54
 0000:FFFF63F4       E_Engine_Load_4ByteExt_E32
 0000:FFFF6554       E_AF_Sensor_1_4byteExt_E91
 0000:FFFF65E8       pClutchFlags
 0000:FFFF6618       pVehicleSpeed
 0000:FFFF663C       pEngineSpeed
 0000:FFFF6829       E_Gear_CalculatedExt_E59
 0000:FFFF6854       E_Manifold_Relative_Sea_Level_Pressure_2byteExtExt_E89
 0000:FFFF6856       E_Throttle_Plate_Opening_Angle_2byteExtExt_E93
 0000:FFFF685C       E_AF_Sensor_1_2byteExtExt_E92
 0000:FFFF6866       E_Fuel_Injector_1_Pulse_Width_2byteExtExt_E99
 0000:FFFF686A       E_Final_Fueling_Base_2byteExt_E124
 0000:FFFF686E       E_AF_Correction_1_2byteExtExt_E82
 0000:FFFF6870       E_Closed_Loop_Fueling_Target_2byteExt_E122
 0000:FFFF6872       E_AF_Learning_1_2byteExtExt_E83
 0000:FFFF6878       E_Primary_Open_Loop_Map_Enrichment_2byteExtExt_E85
 0000:FFFF6884       E_Target_Boost_2byteExtExt_E90
 0000:FFFF688A       E_Engine_Load_1byteExtExt_E86
 0000:FFFF6894       E_Feedback_Knock_Correction_1byteExtExt_E94
 0000:FFFF6896       E_IAM_1byteExtExt_E96
 0000:FFFF6897       E_Fine_Learning_Knock_Correction_1byteExtExt_E95
 0000:FFFF68A0       E_Primary_WGDC_Maximum_1byteExtExt_E112
 0000:FFFF68B8       pAtmoPress
 0000:FFFF702C       E_Final_Fueling_Base_4byteExt_E123
 0000:FFFF706C       E_Fuel_Injector_1_Latency_4byteExt_E50
 0000:FFFF733C       E_AF_Correction_1_4byteExt_E81
 0000:FFFF7424       E_Closed_Loop_Fueling_Target_4byteExt_E121
 0000:FFFF74CC       E_AF_Learning_1_4byteExt_E48
 0000:FFFF74D3       E_AF_Learning_Airflow_Range_CurrentExt_E61
 0000:FFFF75DC       E_Primary_Open_Loop_Map_Enrichment_4byteExt_E84
 0000:FFFF7878       E_Tipin_Enrichment_Last_CalculatedExt_E55
 0000:FFFF7904       pFlagsRevLimit
 0000:FFFF79DC       E_Fuel_Injector_1_Pulse_Width_4byteExt_E60
 0000:FFFF7B38       E_Ignition_Base_TimingExt_E53
 0000:FFFF7B98       E_Timing_Compensation_IAT_A_4byteExt_E125
 0000:FFFF7CF8       E_Timing_Compensation_Per_Gear_4byteExt_E127
 0000:FFFF7DF4       E_Knock_Correction_Advance_4byteExt_E43
 0000:FFFF7DF8       E_Feedback_Knock_Correction_4byteExt_E39
 0000:FFFF7E60       E_Knock_Correction_Advance_Max_PrimaryExt_E118
 0000:FFFF7E68       E_Knock_Correction_Advance_IAM_onlyExt_E40
 0000:FFFF7E94       E_Fine_Learning_Knock_Correction_4byteExt_E41
 0000:FFFF7EA0       E_Fine_Learning_Table_OffsetExt_E58
 0000:FFFF8158       E_Target_Throttle_Plate_PositionExt_E57
 0000:FFFF8160       E_Requested_TorqueExt_E56
 0000:FFFF8578       E_Idle_Speed_Map_SelectionExt_E49
 0000:FFFFA7AA       pCelSignalOem
 0000:FFFFA9C5       E_CLOL_FuelingExt_E33
 0000:FFFFB1C0       pRamHoleStart
 0000:FFFFBF70       pRamHoleEnd
 0000:FFFFBF9F       pMemoryResetLimit
