
 Start         Length     Name                   Class
 0000:00000000 000100000H ROM                    CODE
 0000:00000000 00000BFFFH RAM                    


  Address         Publics by Value

 0000:00000000       off_0
 0000:00002004       dCalId
 0000:0000203C       aPf_07cyh4tVer1
 0000:0000205C       aObd_07cyh4nVer
 0000:00003374       aCopyright1999H
 0000:00004208       nullsub_15
 0000:00004AB4       sMafCalc
 0000:00004B10       hMafCalc
 0000:00004D52       nullsub_16
 0000:00004F72       nullsub_1
 0000:000065EC       nullsub_13
 0000:00006BF2       nullsub_17
 0000:0000929E       nullsub_18
 0000:0000A804       nullsub_19
 0000:0000B06A       nullsub_6
 0000:0000B06E       nullsub_2
 0000:0000B072       nullsub_7
 0000:0000B28E       nullsub_3
 0000:0000B292       nullsub_8
 0000:0000B2D2       nullsub_4
 0000:0000B2D6       nullsub_9
 0000:0000B350       nullsub_10
 0000:0000B438       nullsub_5
 0000:0000B43C       nullsub_11
 0000:0000B47E       nullsub_12
 0000:0000C914       nullsub_14
 0000:0000C918       nullsub_20
 0000:0000CB32       nullsub_21
 0000:0000FC04       hMemoryReset
 0000:000102A4       sMemoryReset
 0000:00011C58       hMemoryResetLimit
 0000:00013F64       sWgdc
 0000:00014474       sWgdc_0
 0000:00014720       Max_Wastegate_Duty_Limit_PostCompensation
 0000:0001FD70       sLoadCalcs
 0000:000202A0       Engine_Load_Limit_A_Maximum
 0000:000219F4       Front_Oxygen_Sensor_Rich_Limit
 0000:00034E88       sRevLimStart
 0000:00034EB2       RevLimitBitMask_0x01
 0000:00034EC8       sRevLimEnd
 0000:00041C4C       hWgdc
 0000:0004210C       hRevLimDelete
 0000:00051B3A       SsmGet_Switches_168_169_170_171_172_x_x_x
 0000:00051B64       SsmGet_Engine_Load_Relative_P1
 0000:00051B6E       SsmGet_Coolant_Temperature_P2
 0000:00051B84       SsmGet_AF_Correction_1_P3
 0000:00051B9E       SsmGet_AF_Learning_1_P4
 0000:00051BB6       SsmGet_AF_Correction_2_P5
 0000:00051BCC       SsmGet_AF_Learning_2_P6
 0000:00051C88       SsmGet_Manifold_Absolute_Pressure_P7
 0000:00051C9E       SsmGet_Engine_Speed_P8
 0000:00051CD4       SsmGet_Vehicle_Speed_P9
 0000:00051CE8       SsmGet_Ignition_Total_Timing_P10
 0000:00051D00       SsmGet_Intake_Air_Temperature_P11
 0000:00051D16       SsmGet_Mass_Airflow_P12
 0000:00051D4C       SsmGet_Throttle_Opening_Angle_P13
 0000:00051D62       SsmGet_Front_O2_Sensor_1_P14
 0000:00051D6A       SsmGet_Rear_O2_Sensor_P15
 0000:00051DA0       SsmGet_Front_O2_Sensor_2_P16
 0000:00051DA8       SsmGet_Battery_Voltage_P17
 0000:00051DBE       SsmGet_Mass_Airflow_Sensor_Voltage_P18
 0000:00051DE2       SsmGet_Fuel_Injector_1_Pulse_Width_P21
 0000:00051DF8       SsmGet_Fuel_Injector_2_Pulse_Width_P22
 0000:00051E10       SsmGet_Atmospheric_Pressure_P24
 0000:00051E26       SsmGet_Manifold_Relative_Pressure_P25
 0000:00051E44       SsmGet_Learned_Ignition_Timing_P29
 0000:00051E62       SsmGet_Accelerator_Pedal_Angle_P30
 0000:00051E78       SsmGet_Fuel_Temperature_P31
 0000:00051E8C       SsmGet_Fuel_Level_P35
 0000:00051EA2       SsmGet_Radiator_Fan_Control_P92
 0000:00051EB4       SsmGet_Primary_Wastegate_Duty_Cycle_P36
 0000:00051ECA       SsmGet_CPC_Valve_Duty_Ratio_P38
 0000:00051EE6       SsmGet_Tumble_Valve_Position_Sensor_Right_P39
 0000:00051F0A       SsmGet_Tumble_Valve_Position_Sensor_Left_P40
 0000:00051F32       SsmGet_Number_of_Exh_Gas_Recirc_Steps_P45
 0000:00051F44       SsmGet_Alternator_Duty_P46
 0000:00051FF0       SsmGet_Fuel_Pump_Duty_P47
 0000:00052006       SsmGet_Intake_VVT_Advance_Angle_Right_P48
 0000:0005201C       SsmGet_Intake_VVT_Advance_Angle_Left_P49
 0000:00052032       SsmGet_Intake_OCV_Duty_Right_P50
 0000:00052048       SsmGet_Intake_OCV_Duty_Left_P51
 0000:0005205E       SsmGet_Intake_OCV_Current_Right_P52
 0000:00052074       SsmGet_Intake_OCV_Current_Left_P53
 0000:0005208A       SsmGet_AF_Sensor_1_Current_P54
 0000:000520A2       SsmGet_AF_Sensor_2_Current_P55
 0000:000520B8       SsmGet_AF_Sensor_1_Resistance_P56
 0000:000520CC       SsmGet_AF_Sensor_2_Resistance_P57
 0000:000520DE       SsmGet_AF_Sensor_1_P58
 0000:000520F4       SsmGet_AF_Sensor_2_P59
 0000:0005211A       SsmGet_Switches_x_1_2_3_x_69_70_71
 0000:0005219A       SsmGet_Switches_4_5_x_6_7_8_9_x
 0000:00052224       SsmGet_Switches_10_11_12_13_14_15_16_17
 0000:00052300       SsmGet_Switches_18_19_20_21_22_23_24_25
 0000:0005238C       SsmGet_Switches_26_27_28_29_30_31_32_33
 0000:000523E6       SsmGet_Switches_34_35_36_37_38_39_40_41
 0000:0005243C       SsmGet_Switches_42_43_44_45_46_47_48_49
 0000:00052446       SsmGet_Switches_72_73_74_75_50_51_52_53
 0000:000524DC       SsmGet_Switches_54_55_56_57_58_59_60_61
 0000:000524FA       SsmGet_Switches_x_x_x_x_x_x_82_x
 0000:00052536       SsmGet_Switches_108_x_x_x_x_x_x_x
 0000:00052660       SsmGet_Roughness_Monitor_Cylinder_1_P63
 0000:00052666       SsmGet_Roughness_Monitor_Cylinder_2_P64
 0000:0005266C       SsmGet_AF_Correction_3_32bit_ECU_P89
 0000:00052684       SsmGet_AF_Learning_3_P66
 0000:000526E0       SsmGet_Switches_148_149_x_150_151_152_153_154
 0000:00052780       SsmGet_Roughness_Monitor_Cylinder_3_P69
 0000:00052786       SsmGet_Roughness_Monitor_Cylinder_4_P70
 0000:00052930       SsmGet_Roughness_Monitor_Cylinder_5_P151
 0000:00052934       SsmGet_Roughness_Monitor_Cylinder_6_P152
 0000:00052938       SsmGet_Learned_Ignition_Timing_Correction_P153
 0000:0005294E       SsmGet_Throttle_Motor_Duty_P71
 0000:00052966       SsmGet_Throttle_Motor_Voltage_P72
 0000:0005297C       SsmGet_Sub_Throttle_Sensor_P73
 0000:000529A0       SsmGet_Main_Throttle_Sensor_P74
 0000:000529C4       SsmGet_Sub_Accelerator_Sensor_P75
 0000:000529E8       SsmGet_Main_Accelerator_Sensor_P76
 0000:00052A0C       SsmGet_Brake_Booster_Pressure_P77
 0000:00052A20       SsmGet_Cold_Start_Injector_Air_Pump_P80
 0000:00052A36       SsmGet_Memorised_Cruise_Speed_P82
 0000:00052A4A       SsmGet_AirFuel_Correction_4_P117
 0000:00052A60       SsmGet_AirFuel_Learning_4_P118
 0000:00052A76       SsmGet_Fuel_Level_Sensor_Resistance_P119
 0000:00052A8C       SsmGet_Estimated_odometer_P120
 0000:00052AB6       SsmGet_Oil_Temperature_P122
 0000:00052ACA       SsmGet_Oil_Switching_Solenoid_Valve_OSV_Duty_Right_P123
 0000:00052ADE       SsmGet_Oil_Switching_Solenoid_Valve_OSV_Duty_Left_P124
 0000:00052AF2       SsmGet_Oil_Switching_Solenoid_Valve_OSV_Current_Right_P125
 0000:00052BA8       SsmGet_Oil_Switching_Solenoid_Valve_OSV_Current_Left_P126
 0000:00052BBC       SsmGet_Exhaust_VVT_Advance_Angle_Right_P83
 0000:00052BD0       SsmGet_Exhaust_VVT_Advance_Angle_Left_P84
 0000:00052BE4       SsmGet_Exhaust_OCV_Duty_Right_P85
 0000:00052BF8       SsmGet_Exhaust_OCV_Duty_Left_P86
 0000:00052C0C       SsmGet_Exhaust_OCV_Current_Right_P87
 0000:00052C20       SsmGet_Exhaust_OCV_Current_Left_P88
 0000:00052C34       SsmGet_VVL_Lift_Mode_P127
 0000:00052C38       SsmGet_Switches_130_62_131_x_x_x_x_x
 0000:00052CCA       SsmGet_Switches_63_64_65_66_67_132_68_133
 0000:00052CF2       ClutchBitMask_0x01
 0000:00052D0E       CoastBitMask_0x01
 0000:00052D1C       ResumeBitMask_0x01
 0000:00052D2A       BrakeBitMask_0x01
 0000:00052DA8       SsmGet_SIDrive_Mode_P114
 0000:00052EFC       SsmGet_Switches_155_156_157_x_x_x_x_x
 0000:00052F28       SsmGet_Fine_Learning_Knock_Correction_P91
 0000:00052F40       SsmGet_Fuel_Tank_Pressure_P154
 0000:000544AA       nullsub_22
 0000:000544AE       nullsub_23
 0000:0005464C       nullsub_24
 0000:000586AC       ssmBase
 0000:000586C8       PtrSsmGet_Engine_Load_Relative_P1
 0000:000586CC       PtrSsmGet_Coolant_Temperature_P2
 0000:000586D0       PtrSsmGet_AF_Correction_1_P3
 0000:000586D4       PtrSsmGet_AF_Learning_1_P4
 0000:000586D8       PtrSsmGet_AF_Correction_2_P5
 0000:000586DC       PtrSsmGet_AF_Learning_2_P6
 0000:000586E0       PtrSsmGet_Manifold_Absolute_Pressure_P7
 0000:000586E4       PtrSsmGet_Engine_Speed_P8
 0000:000586EC       PtrSsmGet_Vehicle_Speed_P9
 0000:000586F0       PtrSsmGet_Ignition_Total_Timing_P10
 0000:000586F4       PtrSsmGet_Intake_Air_Temperature_P11
 0000:000586F8       PtrSsmGet_Mass_Airflow_P12
 0000:00058700       PtrSsmGet_Throttle_Opening_Angle_P13
 0000:00058704       PtrSsmGet_Front_O2_Sensor_1_P14
 0000:0005870C       PtrSsmGet_Rear_O2_Sensor_P15
 0000:00058714       PtrSsmGet_Front_O2_Sensor_2_P16
 0000:0005871C       PtrSsmGet_Battery_Voltage_P17
 0000:00058720       PtrSsmGet_Mass_Airflow_Sensor_Voltage_P18
 0000:00058724       PtrSsmGet_Throttle_Sensor_Voltage_P19
 0000:00058728       PtrSsmGet_Differential_Pressure_Sensor_Voltage_P20
 0000:0005872C       PtrSsmGet_Fuel_Injector_1_Pulse_Width_P21
 0000:00058730       PtrSsmGet_Fuel_Injector_2_Pulse_Width_P22
 0000:00058734       PtrSsmGet_Knock_Correction_Advance_P23
 0000:00058738       PtrSsmGet_Atmospheric_Pressure_P24
 0000:0005873C       PtrSsmGet_Manifold_Relative_Pressure_P25
 0000:00058740       PtrSsmGet_Pressure_Differential_Sensor_P26
 0000:00058744       PtrSsmGet_Fuel_Tank_Pressure_P27
 0000:00058748       PtrSsmGet_CO_Adjustment_P28
 0000:0005874C       PtrSsmGet_Learned_Ignition_Timing_P29
 0000:00058750       PtrSsmGet_Accelerator_Pedal_Angle_P30
 0000:00058754       PtrSsmGet_Fuel_Temperature_P31
 0000:00058758       PtrSsmGet_Front_O2_Heater_Current_1_P32
 0000:0005875C       PtrSsmGet_Rear_O2_Heater_Current_P33
 0000:00058760       PtrSsmGet_Front_O2_Heater_Current_2_P34
 0000:00058764       PtrSsmGet_Fuel_Level_P35
 0000:00058768       PtrSsmGet_Radiator_Fan_Control_P92
 0000:0005876C       PtrSsmGet_Primary_Wastegate_Duty_Cycle_P36
 0000:00058770       PtrSsmGet_Secondary_Wastegate_Duty_Cycle_P37
 0000:00058774       PtrSsmGet_CPC_Valve_Duty_Ratio_P38
 0000:00058778       PtrSsmGet_Tumble_Valve_Position_Sensor_Right_P39
 0000:0005877C       PtrSsmGet_Tumble_Valve_Position_Sensor_Left_P40
 0000:00058780       PtrSsmGet_Idle_Speed_Control_Valve_Duty_Ratio_P41
 0000:00058784       PtrSsmGet_AF_Lean_Correction_P42
 0000:00058788       PtrSsmGet_AF_Heater_Duty_P43
 0000:0005878C       PtrSsmGet_Idle_Speed_Control_Valve_Step_P44
 0000:00058790       PtrSsmGet_Number_of_Exh_Gas_Recirc_Steps_P45
 0000:00058794       PtrSsmGet_Alternator_Duty_P46
 0000:00058798       PtrSsmGet_Fuel_Pump_Duty_P47
 0000:0005879C       PtrSsmGet_Intake_VVT_Advance_Angle_Right_P48
 0000:000587A0       PtrSsmGet_Intake_VVT_Advance_Angle_Left_P49
 0000:000587A4       PtrSsmGet_Intake_OCV_Duty_Right_P50
 0000:000587A8       PtrSsmGet_Intake_OCV_Duty_Left_P51
 0000:000587AC       PtrSsmGet_Intake_OCV_Current_Right_P52
 0000:000587B0       PtrSsmGet_Intake_OCV_Current_Left_P53
 0000:000587B4       PtrSsmGet_AF_Sensor_1_Current_P54
 0000:000587B8       PtrSsmGet_AF_Sensor_2_Current_P55
 0000:000587BC       PtrSsmGet_AF_Sensor_1_Resistance_P56
 0000:000587C0       PtrSsmGet_AF_Sensor_2_Resistance_P57
 0000:000587C4       PtrSsmGet_AF_Sensor_1_P58
 0000:000587C8       PtrSsmGet_AF_Sensor_2_P59
 0000:000587D4       PtrSsmGet_Gear_Position_P60
 0000:000587F8       PtrSsmGet_AF_Sensor_1_Heater_Current_P61
 0000:000587FC       PtrSsmGet_AF_Sensor_2_Heater_Current_P62
 0000:00058830       PtrSsmGet_Switches_x_1_2_3_x_69_70_71
 0000:00058834       PtrSsmGet_Switches_4_5_x_6_7_8_9_x
 0000:00058838       PtrSsmGet_Switches_10_11_12_13_14_15_16_17
 0000:0005883C       PtrSsmGet_Switches_18_19_20_21_22_23_24_25
 0000:00058840       PtrSsmGet_Switches_26_27_28_29_30_31_32_33
 0000:00058844       PtrSsmGet_Switches_34_35_36_37_38_39_40_41
 0000:00058848       PtrSsmGet_Switches_42_43_44_45_46_47_48_49
 0000:0005884C       PtrSsmGet_Switches_72_73_74_75_50_51_52_53
 0000:00058850       PtrSsmGet_Switches_54_55_56_57_58_59_60_61
 0000:00058854       PtrSsmGet_Switches_x_x_x_x_x_x_82_x
 0000:00058864       PtrSsmGet_Switches_108_x_x_x_x_x_x_x
 0000:000589E4       PtrSsmGet_Roughness_Monitor_Cylinder_1_P63
 0000:000589E8       PtrSsmGet_Roughness_Monitor_Cylinder_2_P64
 0000:000589EC       PtrSsmGet_AF_Correction_3_32bit_ECU_P89
 0000:000589F0       PtrSsmGet_AF_Learning_3_P66
 0000:000589F4       PtrSsmGet_Rear_O2_Heater_Voltage_P67
 0000:000589F8       PtrSsmGet_AF_Adjustment_Voltage_P68
 0000:00058A08       PtrSsmGet_Switches_148_149_x_150_151_152_153_154
 0000:00058A0C       PtrSsmGet_Roughness_Monitor_Cylinder_3_P69
 0000:00058A10       PtrSsmGet_Roughness_Monitor_Cylinder_4_P70
 0000:00058A68       PtrSsmGet_Roughness_Monitor_Cylinder_5_P151
 0000:00058A8C       PtrSsmGet_Roughness_Monitor_Cylinder_6_P152
 0000:00058A90       PtrSsmGet_Learned_Ignition_Timing_Correction_P153
 0000:00058A94       PtrSsmGet_Throttle_Motor_Duty_P71
 0000:00058A98       PtrSsmGet_Throttle_Motor_Voltage_P72
 0000:00058AAC       PtrSsmGet_Sub_Throttle_Sensor_P73
 0000:00058AB0       PtrSsmGet_Main_Throttle_Sensor_P74
 0000:00058AB4       PtrSsmGet_Sub_Accelerator_Sensor_P75
 0000:00058AB8       PtrSsmGet_Main_Accelerator_Sensor_P76
 0000:00058ABC       PtrSsmGet_Brake_Booster_Pressure_P77
 0000:00058AC0       PtrSsmGet_Fuel_Pressure_High_P78
 0000:00058AC4       PtrSsmGet_Exhaust_Gas_Temperature_P79
 0000:00058AC8       PtrSsmGet_Exhaust_Gas_Temperature_2_P116
 0000:00058ACC       PtrSsmGet_Cold_Start_Injector_Air_Pump_P80
 0000:00058AD0       PtrSsmGet_SCV_Step_P81
 0000:00058AD4       PtrSsmGet_Memorised_Cruise_Speed_P82
 0000:00058AD8       PtrSsmGet_AirFuel_Correction_4_P117
 0000:00058ADC       PtrSsmGet_AirFuel_Learning_4_P118
 0000:00058AE0       PtrSsmGet_Fuel_Level_Sensor_Resistance_P119
 0000:00058AE4       PtrSsmGet_Estimated_odometer_P120
 0000:00058AF8       PtrSsmGet_Oil_Temperature_P122
 0000:00058AFC       PtrSsmGet_Oil_Switching_Solenoid_Valve_OSV_Duty_Right_P123
 0000:00058B00       PtrSsmGet_Oil_Switching_Solenoid_Valve_OSV_Duty_Left_P124
 0000:00058B04       PtrSsmGet_Oil_Switching_Solenoid_Valve_OSV_Current_Right_P125
 0000:00058B08       PtrSsmGet_Oil_Switching_Solenoid_Valve_OSV_Current_Left_P126
 0000:00058B0C       PtrSsmGet_Exhaust_VVT_Advance_Angle_Right_P83
 0000:00058B10       PtrSsmGet_Exhaust_VVT_Advance_Angle_Left_P84
 0000:00058B14       PtrSsmGet_Exhaust_OCV_Duty_Right_P85
 0000:00058B18       PtrSsmGet_Exhaust_OCV_Duty_Left_P86
 0000:00058B1C       PtrSsmGet_Exhaust_OCV_Current_Right_P87
 0000:00058B20       PtrSsmGet_Exhaust_OCV_Current_Left_P88
 0000:00058B24       PtrSsmGet_VVL_Lift_Mode_P127
 0000:00058B2C       PtrSsmGet_Switches_130_62_131_x_x_x_x_x
 0000:00058B30       PtrSsmGet_Switches_63_64_65_66_67_132_68_133
 0000:00058C54       PtrSsmGet_SIDrive_Mode_P114
 0000:00058C58       PtrSsmGet_Throttle_Sensor_Closed_Voltage_P115
 0000:00058C74       PtrSsmGet_Fuel_Tank_Air_Pressure_P121
 0000:00058D04       PtrSsmGet_Switches_155_156_157_x_x_x_x_x
 0000:00058D08       PtrSsmGet_Switches_158_159_160_161_162_163_164_165
 0000:00058D10       PtrSsmGet_Fine_Learning_Knock_Correction_P91
 0000:00058D14       PtrSsmGet_Fuel_Tank_Pressure_P154
 0000:00058DE4       PtrSsmGet_Switches_168_169_170_171_172_x_x_x
 0000:00058E30       PtrSsmGet_Main_Injection_Period_P155
 0000:00058E34       PtrSsmGet_Final_Injection_Amount_P156
 0000:00058E3C       PtrSsmGet_Number_of_Times_Injected_P157
 0000:00058E40       PtrSsmGet_Target_Intake_Manifold_Pressure_P158
 0000:00058E44       PtrSsmGet_Target_Intake_Air_Amount_P159
 0000:00058E48       PtrSsmGet_Air_Mass_P160
 0000:00058E4C       PtrSsmGet_Exhaust_Gas_Recirculation_EGR_Target_Valve_Opening_Angle_P161
 0000:00058E50       PtrSsmGet_Exhaust_Gas_Recirculation_EGR_Valve_Opening_Angle_P162
 0000:00058E54       PtrSsmGet_Exhaust_Gas_Recirculation_EGR_Duty_P163
 0000:00058E58       PtrSsmGet_Common_Rail_Target_Pressure_P164
 0000:00058E5C       PtrSsmGet_Common_Rail_Pressure_P165
 0000:00058E60       PtrSsmGet_Intake_Air_Temperature_combined_P166
 0000:00058E64       PtrSsmGet_Target_Engine_Speed_P167
 0000:00058E6C       PtrSsmGet_Boost_Pressure_Feedback_P168
 0000:00058E80       PtrSsmGet_Electric_Power_Steering_Current_P169
 0000:00058E84       PtrSsmGet_Fuel_Pump_Suction_Control_Valve_Current_Target_P170
 0000:00058E8C       PtrSsmGet_Fuel_Pump_Suction_Control_Valve_Current_Actual_P175
 0000:00058E94       PtrSsmGet_Mileage_after_Injector_Learning_P176
 0000:00058EBC       PtrSsmGet_Mileage_after_Injector_Replacement_P177
 0000:00058F28       PtrSsmGet_Actual_Common_Rail_Pressure_Time_Synchronized_P204
 0000:00058F68       PtrSsmGet_PreInjection_Amount_P234
 0000:00058F70       PtrSsmGet_PreInjection_Interval_P235
 0000:00058F74       PtrSsmGet_Final_Initial_Torque_P238
 0000:00058F8C       PtrSsmGet_Individual_Pump_Difference_Learning_Value_P228
 0000:00058FA0       PtrSsmGet_MicroQuantityInjection_Final_Learning_Value_11_P208
 0000:00058FA4       PtrSsmGet_MicroQuantityInjection_Final_Learning_Value_12_P209
 0000:00058FA8       PtrSsmGet_MicroQuantityInjection_Final_Learning_Value_13_P210
 0000:00058FAC       PtrSsmGet_MicroQuantityInjection_Final_Learning_Value_14_P211
 0000:00058FB0       PtrSsmGet_MicroQuantityInjection_Final_Learning_Value_21_P212
 0000:00058FB4       PtrSsmGet_MicroQuantityInjection_Final_Learning_Value_22_P213
 0000:00058FB8       PtrSsmGet_MicroQuantityInjection_Final_Learning_Value_23_P214
 0000:00058FBC       PtrSsmGet_MicroQuantityInjection_Final_Learning_Value_24_P215
 0000:00058FC0       PtrSsmGet_MicroQuantityInjection_Final_Learning_Value_31_P216
 0000:00058FC4       PtrSsmGet_MicroQuantityInjection_Final_Learning_Value_32_P217
 0000:00058FC8       PtrSsmGet_MicroQuantityInjection_Final_Learning_Value_33_P218
 0000:00058FCC       PtrSsmGet_MicroQuantityInjection_Final_Learning_Value_34_P219
 0000:00058FD0       PtrSsmGet_MicroQuantityInjection_Final_Learning_Value_41_P220
 0000:00058FD4       PtrSsmGet_MicroQuantityInjection_Final_Learning_Value_42_P221
 0000:00058FD8       PtrSsmGet_MicroQuantityInjection_Final_Learning_Value_43_P222
 0000:00058FDC       PtrSsmGet_MicroQuantityInjection_Final_Learning_Value_44_P223
 0000:00058FE0       PtrSsmGet_MicroQuantityInjection_Final_Learning_Value_51_P224
 0000:00058FE4       PtrSsmGet_MicroQuantityInjection_Final_Learning_Value_52_P225
 0000:00058FE8       PtrSsmGet_MicroQuantityInjection_Final_Learning_Value_53_P226
 0000:00058FEC       PtrSsmGet_MicroQuantityInjection_Final_Learning_Value_54_P227
 0000:00059000       PtrSsmGet_PreInjection_Final_Period_P233
 0000:00059008       PtrSsmGet_Final_Main_Injection_Period_P229
 0000:00059020       PtrSsmGet_Quantity_Correction_Cylinder_1_P179
 0000:00059024       PtrSsmGet_Quantity_Correction_Cylinder_2_P180
 0000:00059028       PtrSsmGet_Quantity_Correction_Cylinder_3_P181
 0000:0005902C       PtrSsmGet_Quantity_Correction_Cylinder_4_P182
 0000:0005906C       PtrSsmGet_Interior_Heater_P178
 0000:00059070       PtrSsmGet_Battery_Current_P183
 0000:00059074       PtrSsmGet_Alternator_Control_Mode_P185
 0000:00059078       PtrSsmGet_Battery_Temperature_P184
 0000:00059080       PtrSsmGet_Cumulative_Ash_Ratio_P186
 0000:00059084       PtrSsmGet_Pressure_Difference_between_Diesel_Particulate_Filter_DPF_Inlet_and_Outlet_P187
 0000:00059088       PtrSsmGet_Exhaust_Gas_Temperature_at_Catalyst_Inlet_P188
 0000:0005908C       PtrSsmGet_Exhaust_Gas_Temperature_at_Diesel_Particulate_Filter_DPF_Inlet_P189
 0000:00059090       PtrSsmGet_Estimated_Catalyst_Temperature_P190
 0000:00059094       PtrSsmGet_Estimated_Temperature_of_the_Diesel_Particulate_Filter_DPF_P191
 0000:00059098       PtrSsmGet_Soot_Accumulation_Ratio_P192
 0000:0005909C       PtrSsmGet_Oil_Dilution_Ratio_P193
 0000:0005910C       PtrSsmGet_Accumulated_Count_of_Overspeed_Instances_Very_High_RPM_P198
 0000:00059110       PtrSsmGet_Accumulated_Count_of_Overspeed_Instances_High_RPM_P199
 0000:00059114       PtrSsmGet_Estimated_Distance_to_Oil_Change_P205
 0000:00059118       PtrSsmGet_Running_Distance_since_last_Diesel_Particulate_Filter_DPF_Regeneration_P206
 0000:00059120       PtrSsmGet_Diesel_Particulate_Filter_DPF_Regeneration_Count_P207
 0000:00059134       PtrSsmGet_Cumulative_oil_diesel_entry_P236
 0000:0005A200       a34512345
 0000:00076474       P0335_CRANKSHAFT_POS_SENSOR_A_MALFUNCTION
 0000:00076478       P0604_CONTROL_MODULE_RAM_ERROR
 0000:00076479       P0102_MAF_SENSOR_LOW_INPUT
 0000:0007647A       P0103_MAF_SENSOR_HIGH_INPUT
 0000:0007647B       P0500_VEHICLE_SPEED_SENSOR_A
 0000:0007647E       P0327_KNOCK_SENSOR_1_LOW_INPUT
 0000:0007647F       P0328_KNOCK_SENSOR_1_HIGH_INPUT
 0000:00076480       P0122_TPS_A_LOW_INPUT
 0000:00076481       P0123_TPS_A_HIGH_INPUT
 0000:00076482       P0117_COOLANT_TEMP_SENSOR_LOW_INPUT
 0000:00076483       P0118_COOLANT_TEMP_SENSOR_HIGH_INPUT
 0000:00076485       P0125_INSUFFICIENT_COOLANT_TEMP_FUELING
 0000:00076486       P0462_FUEL_LEVEL_SENSOR_LOW_INPUT
 0000:00076487       P0463_FUEL_LEVEL_SENSOR_HIGH_INPUT
 0000:0007648A       P0512_STARTER_REQUEST_CIRCUIT
 0000:0007648E       P0851_NEUTRAL_SWITCH_INPUT_LOW
 0000:00076492       P0852_NEUTRAL_SWITCH_INPUT_HIGH
 0000:0007649D       P0691_RADIATOR_FAN_CIRCUIT_LOW
 0000:0007649E       P0692_RADIATOR_FAN_CIRCUIT_HIGH
 0000:0007649F       P0011_CAMSHAFT_POS__TIMING_OVERADVANCED_1
 0000:000764A0       P0021_CAMSHAFT_POS__TIMING_OVERADVANCED_2
 0000:000764A3       P0458_EVAP_PURGE_VALVE_CIRCUIT_LOW
 0000:000764A4       P0459_EVAP_PURGE_VALVE_CIRCUIT_HIGH
 0000:000764A8       P0133_FRONT_O2_SENSOR_SLOW_RESPONSE
 0000:000764AE       P0420_CAT_EFFICIENCY_BELOW_THRESHOLD
 0000:000764B2       P0171_SYSTEM_TOO_LEAN
 0000:000764B3       P0172_SYSTEM_TOO_RICH
 0000:000764B4       P0301_MISFIRE_CYLINDER_1
 0000:000764B5       P0302_MISFIRE_CYLINDER_2
 0000:000764B6       P0303_MISFIRE_CYLINDER_3
 0000:000764B7       P0304_MISFIRE_CYLINDER_4
 0000:000764BB       P0000_PASS_CODE_NO_DTC_DETECTED
 0000:000764BC       P0000_PASS_CODE_NO_DTC_DETECTED_
 0000:000764BE       P0131_FRONT_O2_SENSOR_LOW_INPUT
 0000:000764C0       P0132_FRONT_O2_SENSOR_HIGH_INPUT
 0000:000764C4       P0112_IAT_SENSOR_LOW_INPUT
 0000:000764C5       P0113_IAT_SENSOR_HIGH_INPUT
 0000:000764C7       P0038_REAR_O2_SENSOR_HIGH_INPUT
 0000:000764C8       P0032_FRONT_O2_SENSOR_HIGH_INPUT
 0000:000764C9       P0037_REAR_O2_SENSOR_LOW_INPUT
 0000:000764CA       P0031_FRONT_O2_SENSOR_LOW_INPUT
 0000:000764CB       P0107_MAP_SENSOR_LOW_INPUT
 0000:000764CC       P0108_MAP_SENSOR_HIGH_INPUT
 0000:000764D3       P1560_BACKUP_VOLTAGE_MALFUNCTION
 0000:000764D6       P0245_WASTEGATE_SOLENOID_A_LOW
 0000:000764D7       P0246_WASTEGATE_SOLENOID_A_HIGH
 0000:000764D8       P0244_WASTEGATE_SOLENOID_A_RANGEPERF
 0000:000764DA       P0230_FUEL_PUMP_PRIMARY_CIRCUIT
 0000:000764DE       P0134_FRONT_O2_SENSOR_NO_ACTIVITY
 0000:000764E0       P0030_FRONT_O2_SENSOR_RANGEPERF
 0000:000764E7       P2109_TPS_A_MINIMUM_STOP_PERF
 0000:000764E8       P0222_TPS_B_LOW_INPUT
 0000:000764E9       P0223_TPS_B_HIGH_INPUT
 0000:000764EA       P1160_ABNORMAL_RETURN_SPRING
 0000:000764EB       P2102_THROTTLE_ACTUATOR_CIRCUIT_LOW
 0000:000764EC       P2103_THROTTLE_ACTUATOR_CIRCUIT_HIGH
 0000:000764ED       P2101_THROTTLE_ACTUATOR_CIRCUIT_RANGEPERF
 0000:000764EF       P0638_THROTTLE_ACTUATOR_RANGEPERF
 0000:000764F0       P0607_CONTROL_MODULE_PERFORMANCE
 0000:000764F1       P2138_TPS_DE_VOLTAGE
 0000:000764F2       P2127_TPS_E_CIRCUIT_LOW_INPUT
 0000:000764F3       P2128_TPS_E_CIRCUIT_HIGH_INPUT
 0000:000764F4       P2122_TPS_D_CIRCUIT_LOW_INPUT
 0000:000764F5       P2123_TPS_D_CIRCUIT_HIGH_INPUT
 0000:000764F6       P2135_TPS_AB_VOLTAGE
 0000:000764F8       P0600_SERIAL_COMMUNICATION_LINK
 0000:000764FB       P0345_CAMSHAFT_POS_SENSOR_A_BANK_2
 0000:000764FC       P0340_CAMSHAFT_POS_SENSOR_A_MALFUNCTION
 0000:000764FD       P0605_CONTROL_MODULE_ROM_ERROR
 0000:00076502       P2093_OCV_SOLENOID_A2_CIRCUIT_SHORT
 0000:00076503       P2092_OCV_SOLENOID_A2_CIRCUIT_OPEN
 0000:00076504       P2089_OCV_SOLENOID_A1_CIRCUIT_SHORT
 0000:00076505       P2088_OCV_SOLENOID_A1_CIRCUIT_OPEN
 0000:00076509       P0700_TRANSMISSION_CONTROL_SYSTEM
 0000:00076512       P2504_CHARGING_SYSTEM_VOLTAGE_HIGH
 0000:00076513       P2503_CHARGING_SYSTEM_VOLTAGE_LOW
 0000:00076514       P2004_TGV__INTAKE_MANIFOLD_RUNNER_1_STUCK_OPEN
 0000:00076515       P2006_TGV__INTAKE_MANIFOLD_RUNNER_1_STUCK_CLOSED
 0000:00076516       P2005_TGV__INTAKE_MANIFOLD_RUNNER_2_STUCK_OPEN
 0000:00076517       P2007_TGV__INTAKE_MANIFOLD_RUNNER_2_STUCK_CLOSED
 0000:0007651C       P2016_TGV__INTAKE_MANIFOLD_RUNNER_1_POS_SENSOR_LOW
 0000:0007651D       P2017_TGV__INTAKE_MANIFOLD_RUNNER_1_POS_SENSOR_HIGH
 0000:0007651E       P2021_TGV__INTAKE_MANIFOLD_RUNNER_2_POS_SENSOR_LOW
 0000:0007651F       P2022_TGV__INTAKE_MANIFOLD_RUNNER_2_POS_SENSOR_HIGH
 0000:00076520       P2009_TGV__INTAKE_MANIFOLD_RUNNER_1_CIRCUIT_LOW
 0000:00076521       P2012_TGV__INTAKE_MANIFOLD_RUNNER_2_CIRCUIT_LOW
 0000:00076522       P2008_TGV__INTAKE_MANIFOLD_RUNNER_1_CIRCUIT_OPEN
 0000:00076523       P2011_TGV__INTAKE_MANIFOLD_RUNNER_2_CIRCUIT_OPEN
 0000:00076524       P2444_SECONDARY_AIR_PUMP_1_STUCK_ON_B1
 0000:00076526       P0410_SECONDARY_AIR_PUMP_SYSTEM
 0000:00076528       P2433_SECONDARY_AIR_PUMP_CIRCUIT_HIGH
 0000:00076529       P2432_SECONDARY_AIR_PUMP_CIRCUIT_LOW
 0000:0007652A       P0413_SECONDARY_AIR_PUMP_A_OPEN
 0000:0007652B       P0418_SECONDARY_AIR_PUMP_RELAY_A
 0000:0007652C       P0140_REAR_O2_SENSOR_NO_ACTIVITY
 0000:0007652F       P0414_SECONDARY_AIR_PUMP_A_SHORTED
 0000:00076530       P1418_SECONDARY_AIR_PUMP_CIRCUIT_SHORTED
 0000:00076531       P0018_CRANKSHAFTCAMSHAFT_CORRELATION_2A
 0000:00076532       P0016_CRANKSHAFTCAMSHAFT_CORRELATION_1A
 0000:00076533       P1410_SECONDARY_AIR_PUMP_VALVE_STUCK_OPEN
 0000:00076536       P2441_SECONDARY_AIR_PUMP_VALVE_1_STUCK_CLOSED
 0000:0007653C       P1616_SBDS_INTERACTIVE_CODES
 0000:0007653D       P1520_IMRC_CIRCUIT_MALFUNCTION
 0000:0007653E       P1519_IMRC_STUCK_CLOSED
 0000:00076540       P2419_EVAP_SWITCHING_VALVE_LOW
 0000:00076541       P2420_EVAP_SWITCHING_VALVE_HIGH
 0000:000798A2       sCelMaster
 0000:00079A14       nullsub_25
 0000:00079A18       nullsub_26
 0000:00079AF0       sCelTrigger
 0000:00079BC8       hCelSignal
 0000:000811C8       Force_Pass_Readiness_Monitors_
 0000:00083B00       Table_InitialMax_Wastegate_Duty_Compensation_IAT
 0000:00083B28       Table_InitialMax_Wastegate_Duty_Compensation_ECT
 0000:00083B3C       Table_TD_Proportional_Compensation_IAT
 0000:00083B50       Table_TD_Integral_Negative_Compensation_IAT
 0000:00083B64       Table_TD_Integral_Positive_Compensation_IAT
 0000:00083B78       Table_Target_Boost_Compensation_ECT
 0000:00083B8C       Table_Turbo_Dynamics_Proportional
 0000:00083BA0       Table_Turbo_Dynamics_Integral_Negative
 0000:00083BB4       Table_Turbo_Dynamics_Integral_Positive
 0000:00083BEC       Table_Target_Boost_Compensation_IAT_
 0000:00083BF8       Table_InitialMax_Wastegate_Duty_Compensation_Atm_Pressure
 0000:00083C14       Table_Target_Boost_Compensation_Atm_Pressure_
 0000:00083C30       Table_Max_Wastegate_Duty_
 0000:00083C4C       Table_Initial_Wastegate_Duty_
 0000:00083C68       Table_Target_Boost_
 0000:00084060       Table_Engine_Load_Limit_B_Maximum_RPM
 0000:000840D8       Table_Front_Oxygen_Sensor_Compensation_Atm_Pressure
 0000:000841AC       Table_MAF_Compensation_IAT
 0000:000841C8       Table_Engine_Load_Compensation_Cruise_MP
 0000:000841E4       Table_Engine_Load_Compensation_NonCruise_MP
 0000:00084D00       Table_Cranking_Fuel_IPW_Compensation_MAP
 0000:00084D14       Table_Cranking_Fuel_IPW_Compensation_Accelerator
 0000:00084D28       Table_Cranking_Fuel_IPW_Compensation_IAT
 0000:00084D94       Table_Min_Primary_Base_Enrichment_1_NonPrimary_OL_
 0000:00084F5C       Table_Primary_Open_Loop_Fueling_Compensation_Timing_Compensation_
 0000:00084F70       Table_CL_to_OL_Transition_with_Delay_Throttle
 0000:00084F84       Table_Minimum_Primary_Open_Loop_Enrichment_Throttle
 0000:00084F98       Table_Minimum_Primary_Open_Loop_Enrichment_Accelerator
 0000:00085164       Table_Tipin_Enrichment_Compensation_RPM
 0000:00085178       Table_Tipin_Enrichment_Compensation_Boost_Error
 0000:0008518C       Table_Tipin_Enrichment_Compensation_A_ECT
 0000:000851A0       Table_Tipin_Enrichment_Disable_Applied_Counter_Threshold_A_ECT
 0000:000851AC       Table_Tipin_Enrichment_Disable_Applied_Counter_Threshold_B_ECT
 0000:00085284       Table_Cranking_Fuel_Injector_Pulse_Width_A_ECT
 0000:00085298       Table_Cranking_Fuel_Injector_Pulse_Width_B_ECT
 0000:000852AC       Table_Cranking_Fuel_Injector_Pulse_Width_C_ECT
 0000:000852C0       Table_Cranking_Fuel_Injector_Pulse_Width_D_ECT
 0000:000852D4       Table_Cranking_Fuel_Injector_Pulse_Width_E_ECT
 0000:000852E8       Table_Cranking_Fuel_Injector_Pulse_Width_F_ECT
 0000:00085A38       Table_CL_to_OL_Transition_with_Delay_Base_Pulse_Width
 0000:00085A4C       Table_CL_to_OL_Transition_Counter_Step_Value_MAF
 0000:00085A70       Table_Primary_Open_Loop_Fueling_Compensation_ECT
 0000:00085CE8       Table_Throttle_Tipin_Enrichment_A
 0000:00085CFC       Table_Throttle_Tipin_Enrichment_B
 0000:00085D10       Table_Tipin_Enrichment_Compensation_B_ECT
 0000:00085D24       Table_Tipin_Enrichment_Compensation_C_ECT
 0000:00085D44       Table_Tipin_Enrichment_Compensation_D_ECT
 0000:00085D58       Table_Tipin_Enrichment_Disable_Throttle_Cumulative_Threshold_A_ECT
 0000:00085D6C       Table_Tipin_Enrichment_Disable_Throttle_Cumulative_Threshold_B_ECT
 0000:00085ED0       Table_Cranking_Fuel_IPW_Compensation_Imm_NonCruise_RPM
 0000:00085EEC       Table_Cranking_Fuel_IPW_Compensation_Imm_Cruise_RPM
 0000:00085F5C       Table_Min_Primary_Base_Enrichment_1_NonCruise
 0000:00085F78       Table_Min_Primary_Base_Enrichment_1_Cruise
 0000:00085FE8       Table_Primary_Open_Loop_Fueling
 0000:00086004       Table_Primary_Open_Loop_Fueling_Failsafe
 0000:00086090       Table_Per_Injector_Pulse_Width_Compensation_A
 0000:000860AC       Table_Per_Injector_Pulse_Width_Compensation_B
 0000:000860C8       Table_Per_Injector_Pulse_Width_Compensation_C
 0000:000860E4       Table_Per_Injector_Pulse_Width_Compensation_D
 0000:00086138       Table_Injector_Latency_
 0000:000861D8       Table_CL_Fueling_Target_Compensation_Imm_Cruise_ECT
 0000:000861F4       Table_CL_Fueling_Target_Compensation_Imm_NonCruise_ECT
 0000:00086210       Table_CL_Fueling_Target_Compensation_A_Load
 0000:00086248       Table_CL_Fueling_Target_Compensation_B_Load
 0000:00086360       Table_Boost_Limit_Fuel_Cut_
 0000:00086480       Table_Base_Timing_Idle_Minimum
 0000:00086494       Table_Base_Timing_Idle_A_InGear
 0000:000864A8       Table_Base_Timing_Idle_B_InGear
 0000:000864BC       Table_Base_Timing_Idle_A_Neutral
 0000:000864D0       Table_Base_Timing_Idle_B_Neutral
 0000:0008650C       Table_Timing_Compensation_Imm_NonCruise_A_ECT
 0000:00086520       Table_Timing_Compensation_Imm_NonCruise_B_ECT
 0000:00086534       Table_Timing_Compensation_Imm_Cruise_A_ECT
 0000:00086548       Table_Timing_Compensation_Imm_Cruise_B_ECT
 0000:0008655C       Table_Timing_Compensation_A_IAT
 0000:000868CC       Table_Timing_Compensation_B_IAT
 0000:00086968       Table_Rough_Correction_Learning_Delay_Increasing_
 0000:00086B40       Table_Timing_Compensation_Per_Cylinder_A
 0000:00086B5C       Table_Timing_Compensation_Per_Cylinder_B
 0000:00086B78       Table_Timing_Compensation_Per_Cylinder_C
 0000:00086B94       Table_Timing_Compensation_Per_Cylinder_D
 0000:00086BE8       Table_Knock_Correction_Advance_Max_Cruise
 0000:00086C04       Table_Knock_Correction_Advance_Max_NonCruise
 0000:00086C74       Table_Base_Timing_Primary_Cruise
 0000:00086C90       Table_Base_Timing_Primary_NonCruise
 0000:00086CAC       Table_Base_Timing_Reference_Cruise_AVCS_related
 0000:00086CC8       Table_Base_Timing_Reference_NonCruise_AVCS_related
 0000:00086CE4       Table_Timing_Compensation_A_IAT_Activation
 0000:000870D0       Table_Idle_Speed_Target_A
 0000:000870F8       Table_Idle_Speed_Target_B
 0000:00087120       Table_Idle_Speed_Target_C
 0000:000876F4       Table_Requested_Torque_Base_RPM
 0000:000877DC       Table_Target_Throttle_Plate_Position_Cruise_Requested_Torque_Ratio
 0000:000877F8       Table_Target_Throttle_Plate_Position_NonCruise_Requested_Torque_Ratio
 0000:00087814       Table_Target_Throttle_Plate_Position_Maximum_Requested_Torque_Ratio
 0000:00087868       Table_Requested_Torque_A_Accelerator_Pedal
 0000:00087884       Table_Requested_Torque_B_Accelerator_Pedal
 0000:000878A0       Table_Requested_Torque_C_Accelerator_Pedal
 0000:000879D0       Table_Coolant_Temp_Sensor_Scaling
 0000:000879DC       Table_Intake_Temp_Sensor_Scaling
 0000:000879F4       Table_MAF_Sensor_Scaling
 0000:00087A00       Table_Front_Oxygen_Sensor_Scaling
 0000:00087EAC       Table_Intake_Cam_Advance_Angle_Cruise_AVCS
 0000:00087EC8       Table_Intake_Cam_Advance_Angle_NonCruise_AVCS
 0000:000BE764       sPull2DFloat
 0000:000BE818       sPull3DFloat
 0000:000BF258       aMsr_rfcc_shcv9
 0000:000C0000       aAz1e400u
 0000:000C0104       aBoff
 0000:000C0741       Boost_Control_Disable_Delay_Fine_Correction
 0000:000C0768       TD_Activation_Thresholds_Target_Boost_
 0000:000C0770       TD_Integral_Negative_Activation_Boost_Error
 0000:000C0774       TD_Integral_Positive_Activation_Boost_Error
 0000:000C0778       TD_Integral_Positive_Activation_Wastegate_Duty
 0000:000C077C       TD_Activation_Thresholds_RPM
 0000:000C0784       TD_Integral_Cumulative_Range_WGDC_Correction
 0000:000C078C       Boost_Control_Disable_Fine_Correction
 0000:000C0790       Boost_Control_Disable_IAM
 0000:000C079C       Target_Boost_Compensation_1st_Gear_Speed_Disable
 0000:000C07A0       Target_Boost_Compensation_1st_Gear
 0000:000C07A8       InitialMax_Wastegate_Duty_Compensation_ECT_Y_Axis
 0000:000C07E8       TD_Integral_Negative_Compensation_IAT_Y_Axis
 0000:000C0828       InitialMax_Wastegate_Duty_Compensation_IAT
 0000:000C0848       InitialMax_Wastegate_Duty_Compensation_ECT
 0000:000C0858       TD_Proportional_Compensation_IAT
 0000:000C0868       TD_Integral_Negative_Compensation_IAT
 0000:000C0878       TD_Integral_Positive_Compensation_IAT
 0000:000C0888       Target_Boost_Compensation_ECT
 0000:000C0898       Turbo_Dynamics_Proportional_Y_Axis
 0000:000C08BC       Turbo_Dynamics_Proportional
 0000:000C08D0       Turbo_Dynamics_Integral_Negative_Y_Axis
 0000:000C08F4       Turbo_Dynamics_Integral_Negative
 0000:000C0908       Turbo_Dynamics_Integral_Positive_Y_Axis
 0000:000C092C       Turbo_Dynamics_Integral_Positive
 0000:000C09B8       Target_Boost_Compensation_IAT__Y_Axis
 0000:000C09D0       Target_Boost_Compensation_IAT_
 0000:000C09E8       InitialMax_Wastegate_Duty_Compensation_Atm_Pressure_X_Axis
 0000:000C0A00       InitialMax_Wastegate_Duty_Compensation_Atm_Pressure_Y_Axis
 0000:000C0A10       InitialMax_Wastegate_Duty_Compensation_Atm_Pressure
 0000:000C0A28       Target_Boost_Compensation_Atm_Pressure__X_Axis
 0000:000C0A40       Target_Boost_Compensation_Atm_Pressure__Y_Axis
 0000:000C0A58       Target_Boost_Compensation_Atm_Pressure_
 0000:000C0A7C       Max_Wastegate_Duty__X_Axis
 0000:000C0AB8       Max_Wastegate_Duty__Y_Axis
 0000:000C0AEC       Max_Wastegate_Duty_
 0000:000C0C74       Initial_Wastegate_Duty__X_Axis
 0000:000C0CB0       Initial_Wastegate_Duty__Y_Axis
 0000:000C0CE4       Initial_Wastegate_Duty_
 0000:000C0E6C       Target_Boost__X_Axis
 0000:000C0E98       Target_Boost__Y_Axis
 0000:000C0ED4       Target_Boost_
 0000:000C1108       aDzpfff
 0000:000C1220       aLSss?
 0000:000C1B8C       aLSssCff?
 0000:000C1BA4       a?a
 0000:000C280C       MAF_Limit_Maximum
 0000:000C282C       dLoadSmoothingAlt
 0000:000C2830       dLoadSmoothingB
 0000:000C2834       dLoadSmoothingA
 0000:000C2840       dLoadSmoothingFinal
 0000:000C2A04       Gear_Determination_Thresholds_A
 0000:000C2A18       Gear_Determination_Thresholds_B
 0000:000C2A2C       Gear_Determination_Thresholds_C
 0000:000C2BA8       Engine_Load_Limit_B_Maximum_RPM_Y_Axis
 0000:000C2BB0       Engine_Load_Limit_B_Maximum_RPM
 0000:000C2CA0       Front_Oxygen_Sensor_Compensation_Atm_Pressure_Y_Axis
 0000:000C2CB0       Front_Oxygen_Sensor_Compensation_Atm_Pressure
 0000:000C2DD0       aEMyuxQfOWfa
 0000:000C2F50       MAF_Compensation_IAT_X_Axis
 0000:000C2F64       MAF_Compensation_IAT_Y_Axis
 0000:000C2F84       MAF_Compensation_IAT
 0000:000C2FAC       Engine_Load_Compensation_Cruise_MP_X_Axis
 0000:000C2FD8       Engine_Load_Compensation_Cruise_MP_Y_Axis
 0000:000C3010       Engine_Load_Compensation_Cruise_MP
 0000:000C30AC       Engine_Load_Compensation_NonCruise_MP_X_Axis
 0000:000C30D8       Engine_Load_Compensation_NonCruise_MP_Y_Axis
 0000:000C3110       Engine_Load_Compensation_NonCruise_MP
 0000:000C3822       Manifold_Pressure_Sensor_CEL_Delays
 0000:000C3A08       aGG33?sssLB4
 0000:000C3A9C       aAi33axqiazAfQd
 0000:000C432C       aIaiaiaiaiaiaia
 0000:000C4C38       aSssSssSssSssSs
 0000:000C4DF8       aSssSssSssSss33
 0000:000C4E34       aE
 0000:000C4E38       aEz
 0000:000C6F15       Tipin_Enrichment_Applied_Counter_Reset
 0000:000C6F16       Tipin_Throttle_Cumulative_Reset
 0000:000C6F62       CL_Delay_Engine_Load_Counter_Threshold
 0000:000C6F6A       CL_to_OL_Delay_
 0000:000C7130       Injector_Flow_Scaling
 0000:000C7210       aL?s33L?fff
 0000:000C724C       a?s33?s33?yss?j
 0000:000C7364       AF_Learning_1_Limits
 0000:000C7374       AF_Learning_1_Airflow_Ranges
 0000:000C7464       Primary_Open_Loop_Fuel_Map_Switch_IAM
 0000:000C7468       Minimum_Active_Primary_Open_Loop_Enrichment
 0000:000C746C       CL_to_OL_Transition_with_Delay_BPW_Hysteresis
 0000:000C7470       CL_to_OL_Transition_with_Delay_Throttle_Hysteresis
 0000:000C7474       CL_Delay_Minimum_ECT
 0000:000C7478       CL_Delay_Maximum_Engine_Speed_Per_Gear
 0000:000C74A0       CL_Delay_Maximum_Engine_Speed_Neutral
 0000:000C74D0       CL_Delay_Maximum_Throttle
 0000:000C74EC       CL_Delay_Maximum_Vehicle_Speed
 0000:000C74FC       CL_Delay_Maximum_Engine_Load
 0000:000C7578       aLL?
 0000:000C758C       aLLA
 0000:000C7788       Minimum_Tipin_Enrichment_Activation_Throttle
 0000:000C778C       Minimum_Tipin_Enrichment_Activation
 0000:000C7790       Tipin_Enrichment_Compensation_D_ECT_Activation
 0000:000C77E8       Rev_Limit_Fuel_Cut
 0000:000C77F0       Rev_Limit_Fuel_Resume_Boost
 0000:000C7838       Speed_Limiting_Enable_Fuel_Cut
 0000:000C7840       Speed_Limiting_Disable_Fuel_Cut
 0000:000C7894       Min_Primary_Base_Enrichment_1_NonPrimary_OL__Y_Axis
 0000:000C78D4       Tipin_Enrichment_Compensation_D_ECT_Y_Axis
 0000:000C7AB0       Cranking_Fuel_IPW_Compensation_MAP_Y_Axis
 0000:000C7AD8       Cranking_Fuel_IPW_Compensation_MAP
 0000:000C7AE4       Cranking_Fuel_IPW_Compensation_Accelerator_Y_Axis
 0000:000C7B0C       Cranking_Fuel_IPW_Compensation_Accelerator
 0000:000C7B18       Cranking_Fuel_IPW_Compensation_IAT_Y_Axis
 0000:000C7B2C       Cranking_Fuel_IPW_Compensation_IAT
 0000:000C7B91       Min_Primary_Base_Enrichment_1_NonPrimary_OL_
 0000:000C7F88       Primary_Open_Loop_Fueling_Compensation_Timing_Compensation__Y_Axis
 0000:000C7FA0       Primary_Open_Loop_Fueling_Compensation_Timing_Compensation_
 0000:000C7FA8       CL_to_OL_Transition_with_Delay_Throttle_Y_Axis
 0000:000C7FE8       CL_to_OL_Transition_with_Delay_Throttle
 0000:000C7FF8       Minimum_Primary_Open_Loop_Enrichment_Throttle_Y_Axis
 0000:000C8010       Minimum_Primary_Open_Loop_Enrichment_Throttle
 0000:000C8018       Minimum_Primary_Open_Loop_Enrichment_Accelerator_Y_Axis
 0000:000C8030       Minimum_Primary_Open_Loop_Enrichment_Accelerator
 0000:000C82E8       aVxnzgbaaaaaaaa
 0000:000C8348       Tipin_Enrichment_Compensation_RPM_Y_Axis
 0000:000C8388       Tipin_Enrichment_Compensation_RPM
 0000:000C8398       Tipin_Enrichment_Compensation_Boost_Error_Y_Axis
 0000:000C83BC       Tipin_Enrichment_Compensation_Boost_Error
 0000:000C83C5       Tipin_Enrichment_Compensation_A_ECT
 0000:000C83D5       Tipin_Enrichment_Disable_Applied_Counter_Threshold_A_ECT
 0000:000C83E5       Tipin_Enrichment_Disable_Applied_Counter_Threshold_B_ECT
 0000:000C84BD       aDcfcfcfcfcfcfc
 0000:000C84E4       aR
 0000:000C84E6       aCfcfcfcfcfcfcf
 0000:000C8504       aR_0
 0000:000C8506       aCfcfcfcfcfcf_0
 0000:000C8529       a?
 0000:000C852B       a?_0
 0000:000C852D       a?_1
 0000:000C852F       a?_2
 0000:000C8531       a?_3
 0000:000C8533       a?_4
 0000:000C8556       Cranking_Fuel_Injector_Pulse_Width_A_ECT
 0000:000C8576       Cranking_Fuel_Injector_Pulse_Width_B_ECT
 0000:000C8596       Cranking_Fuel_Injector_Pulse_Width_C_ECT
 0000:000C85B6       Cranking_Fuel_Injector_Pulse_Width_D_ECT
 0000:000C85D6       Cranking_Fuel_Injector_Pulse_Width_E_ECT
 0000:000C85F6       Cranking_Fuel_Injector_Pulse_Width_F_ECT
 0000:000C8D14       aLSss?l?a
 0000:000C8D64       aLSss?l?a_0
 0000:000C90F0       aLLLLLL33?
 0000:000C91AC       a33333333333333
 0000:000C9294       aSSSSSSSSSSSSSS
 0000:000C9440       aZszszszszsyYYY
 0000:000C9540       aZszszszszsyY_0
 0000:000C9818       CL_to_OL_Transition_with_Delay_Base_Pulse_Width_Y_Axis
 0000:000C9858       CL_to_OL_Transition_with_Delay_Base_Pulse_Width
 0000:000C9878       CL_to_OL_Transition_Counter_Step_Value_MAF_Y_Axis
 0000:000C98A0       CL_to_OL_Transition_Counter_Step_Value_MAF
 0000:000C992C       Primary_Open_Loop_Fueling_Compensation_ECT
 0000:000C9934       a1KDzgoqYA
 0000:000C9944       aA
 0000:000C9946       aA_0
 0000:000C9948       aA_1
 0000:000C994A       aA_2
 0000:000C9950       aC
 0000:000C99B8       aG3g3g3g3g3g3g3
 0000:000C99D8       aA_3
 0000:000C99DA       aA_4
 0000:000C99DC       aA_5
 0000:000C99DE       aA_6
 0000:000C99E0       aA_7
 0000:000C99E2       aA_8
 0000:000C99E4       aLSss?_0
 0000:000C99F0       a?333?fff?m?jff
 0000:000C9F3C       Throttle_Tipin_Enrichment_A_Y_Axis
 0000:000C9F84       Throttle_Tipin_Enrichment_A
 0000:000C9FA8       Throttle_Tipin_Enrichment_B_Y_Axis
 0000:000C9FF0       Throttle_Tipin_Enrichment_B
 0000:000CA014       Tipin_Enrichment_Compensation_B_ECT
 0000:000CA034       Tipin_Enrichment_Compensation_C_ECT
 0000:000CA074       Tipin_Enrichment_Compensation_D_ECT
 0000:000CA094       Tipin_Enrichment_Disable_Throttle_Cumulative_Threshold_A_ECT
 0000:000CA0B4       Tipin_Enrichment_Disable_Throttle_Cumulative_Threshold_B_ECT
 0000:000CA250       a?l?l?l@s33@u33
 0000:000CA82C       aAaaaAavpcaamFa
 0000:000CA850       aBc
 0000:000CA880       aAaaaAavpcaam_0
 0000:000CA8A4       Cranking_Fuel_IPW_Compensation_Imm_NonCruise_RPM_X_Axis
 0000:000CA8B8       Cranking_Fuel_IPW_Compensation_Imm_NonCruise_RPM_Y_Axis
 0000:000CA8D4       Cranking_Fuel_IPW_Compensation_Imm_NonCruise_RPM
 0000:000CA8F8       Cranking_Fuel_IPW_Compensation_Imm_Cruise_RPM_X_Axis
 0000:000CA90C       Cranking_Fuel_IPW_Compensation_Imm_Cruise_RPM_Y_Axis
 0000:000CA928       Cranking_Fuel_IPW_Compensation_Imm_Cruise_RPM
 0000:000CAABC       Min_Primary_Base_Enrichment_1_NonCruise_Y_Axis
 0000:000CAADC       Min_Primary_Base_Enrichment_1_NonCruise
 0000:000CAB5C       Min_Primary_Base_Enrichment_1_Cruise_Y_Axis
 0000:000CAB80       Min_Primary_Base_Enrichment_1_Cruise
 0000:000CAEC8       Primary_Open_Loop_Fueling_X_Axis
 0000:000CAF04       Primary_Open_Loop_Fueling_Y_Axis
 0000:000CAF4C       Primary_Open_Loop_Fueling
 0000:000CB05C       Primary_Open_Loop_Fueling_Failsafe_X_Axis
 0000:000CB098       Primary_Open_Loop_Fueling_Failsafe_Y_Axis
 0000:000CB0E0       Primary_Open_Loop_Fueling_Failsafe
 0000:000CB714       Per_Injector_Pulse_Width_Compensation_A_X_Axis
 0000:000CB758       Per_Injector_Pulse_Width_Compensation_A_Y_Axis
 0000:000CB79C       Per_Injector_Pulse_Width_Compensation_A
 0000:000CB8C0       Per_Injector_Pulse_Width_Compensation_B_X_Axis
 0000:000CB904       Per_Injector_Pulse_Width_Compensation_B_Y_Axis
 0000:000CB948       Per_Injector_Pulse_Width_Compensation_B
 0000:000CBA6C       Per_Injector_Pulse_Width_Compensation_C_X_Axis
 0000:000CBAB0       Per_Injector_Pulse_Width_Compensation_C_Y_Axis
 0000:000CBAF4       Per_Injector_Pulse_Width_Compensation_C
 0000:000CBC18       Per_Injector_Pulse_Width_Compensation_D_X_Axis
 0000:000CBC5C       Per_Injector_Pulse_Width_Compensation_D_Y_Axis
 0000:000CBCA0       Per_Injector_Pulse_Width_Compensation_D
 0000:000CBFBC       Injector_Latency__X_Axis
 0000:000CBFD0       Injector_Latency__Y_Axis
 0000:000CBFDC       Injector_Latency_
 0000:000CC314       CL_Fueling_Target_Compensation_Imm_Cruise_ECT_Y_Axis
 0000:000CC320       CL_Fueling_Target_Compensation_Imm_Cruise_ECT
 0000:000CC380       CL_Fueling_Target_Compensation_Imm_NonCruise_ECT_Y_Axis
 0000:000CC38C       CL_Fueling_Target_Compensation_Imm_NonCruise_ECT
 0000:000CC39C       aA_9
 0000:000CC39E       aA_10
 0000:000CC3A0       aA_11
 0000:000CC3A2       aA_12
 0000:000CC3A4       aA_13
 0000:000CC3A6       aA_14
 0000:000CC3A8       aA_15
 0000:000CC3AA       aA_16
 0000:000CC3AC       aJfjfjfjfsSSSSA
 0000:000CC3C0       aA_17
 0000:000CC3C2       aA_18
 0000:000CC3C4       aA_19
 0000:000CC3C6       aA_20
 0000:000CC3C8       aA_21
 0000:000CC3CA       aA_22
 0000:000CC3CC       aJfjfjfjfjfjfjf
 0000:000CC3E2       aA_23
 0000:000CC3E4       aA_24
 0000:000CC3E6       aA_25
 0000:000CC3E8       aA_26
 0000:000CC3EA       aA_27
 0000:000CC3EC       CL_Fueling_Target_Compensation_A_Load_X_Axis
 0000:000CC418       CL_Fueling_Target_Compensation_A_Load_Y_Axis
 0000:000CC444       CL_Fueling_Target_Compensation_A_Load
 0000:000CC684       CL_Fueling_Target_Compensation_B_Load_X_Axis
 0000:000CC6B0       CL_Fueling_Target_Compensation_B_Load_Y_Axis
 0000:000CC6DC       CL_Fueling_Target_Compensation_B_Load
 0000:000CD2F0       aFfffffffffffff
 0000:000CD306       aFfffffffffff_0
 0000:000CD31C       a@
 0000:000CD31E       aFflFfffffffff9
 0000:000CD394       Boost_Limit_Fuel_Cut__X_Axis
 0000:000CD3AC       Boost_Limit_Fuel_Cut__Y_Axis
 0000:000CD3C4       Boost_Limit_Fuel_Cut_
 0000:000CD7F2       Feedback_Correction_Negative_Advance_Delay
 0000:000CD802       Fine_Correction_Advance_Delay
 0000:000CD878       Timing_Comp_Maximum_RPM_Per_Cylinder
 0000:000CD87C       Timing_Comp_Minimum_Load_Per_Cylinder
 0000:000CD880       Timing_Comp_Minimum_Coolant_Temp_Per_Cylinder
 0000:000CD884       Feedback_Correction_Minimum_Load
 0000:000CD88C       Feedback_Correction_Range_RPM
 0000:000CD8A8       Feedback_Correction_Retard_Limit
 0000:000CD8AC       Feedback_Correction_Retard_Value
 0000:000CD8B0       Feedback_Correction_Negative_Advance_Value
 0000:000CD8B8       Extended_Feedback_Correction_High_RPM_Compensation
 0000:000CD978       Rough_Correction_Range_RPM
 0000:000CD988       Rough_Correction_Range_Load
 0000:000CD998       Rough_Correction_Minimum_KC_Advance_Map_Value
 0000:000CD99C       Advance_Multiplier_Initial
 0000:000CD9A0       Advance_Multiplier_Step_Value
 0000:000CD9C8       Fine_Correction_Rows_RPM
 0000:000CD9E4       Fine_Correction_Columns_Load
 0000:000CD9FC       Fine_Correction_Advance_Limit
 0000:000CDA00       Fine_Correction_Advance_Value
 0000:000CDA04       Fine_Correction_Retard_Limit
 0000:000CDA08       Fine_Correction_Retard_Value
 0000:000CDA0C       Fine_Correction_Range_RPM
 0000:000CDA1C       Fine_Correction_Range_Load
 0000:000CDB14       Base_Timing_Idle_Minimum_Vehicle_Speed_Enable
 0000:000CDBA0       a9x9x?a
 0000:000CDC40       aLLLAa
 0000:000CDCA4       Timing_Compensation_B_IAT_Max_Additive
 0000:000CDCC0       Timing_Compensation_B_IAT_IAM_Activation
 0000:000CDD04       Timing_Compensation_Imm_NonCruise_B_ECT_Y_Axis
 0000:000CDD84       Base_Timing_Idle_Minimum_Y_Axis
 0000:000CDE5C       aRrrrrrrrdug
 0000:000CDE80       a3ahkp
 0000:000CDE88       aD
 0000:000CDE9C       a9ahkp
 0000:000CDEA4       aD_0
 0000:000CDF51       Base_Timing_Idle_Minimum
 0000:000CDF5A       Base_Timing_Idle_A_InGear
 0000:000CDF6A       Base_Timing_Idle_B_InGear
 0000:000CDF7A       Base_Timing_Idle_A_Neutral
 0000:000CDF8A       Base_Timing_Idle_B_Neutral
 0000:000CDFBA       Timing_Compensation_Imm_NonCruise_A_ECT
 0000:000CDFCA       Timing_Compensation_Imm_NonCruise_B_ECT
 0000:000CDFDA       Timing_Compensation_Imm_Cruise_A_ECT
 0000:000CDFEA       Timing_Compensation_Imm_Cruise_B_ECT
 0000:000CDFFC       Timing_Compensation_A_IAT_Y_Axis
 0000:000CE03C       Timing_Compensation_A_IAT
 0000:000CE28C       a9uuuuuuu
 0000:000CE2DC       a9uuuuuuu_0
 0000:000CE304       aGggggggg
 0000:000CE32C       a9uuuuuuu_1
 0000:000CE354       aGggggggg_0
 0000:000CE37C       a9uuuuuuu_2
 0000:000CE3A4       aGggggggg_1
 0000:000CE3CC       a9uuuuuuu_3
 0000:000CE41C       aAaaaaaaa3@Aaaa
 0000:000CE5F4       Timing_Compensation_B_IAT_Y_Axis
 0000:000CE634       Timing_Compensation_B_IAT
 0000:000CE7FC       Rough_Correction_Learning_Delay_Increasing__Y_Axis
 0000:000CE824       Rough_Correction_Learning_Delay_Increasing_
 0000:000CE878       aIIIU0wfrRNS
 0000:000CE898       aIIIPnwfrRNS
 0000:000CEA40       a@fff@fff@fff@f
 0000:000CEA6C       a@@@@@@@
 0000:000CF1A0       Timing_Compensation_Per_Cylinder_A_X_Axis
 0000:000CF1D8       Timing_Compensation_Per_Cylinder_A_Y_Axis
 0000:000CF1EC       Timing_Compensation_Per_Cylinder_A
 0000:000CF234       Timing_Compensation_Per_Cylinder_B_X_Axis
 0000:000CF26C       Timing_Compensation_Per_Cylinder_B_Y_Axis
 0000:000CF280       Timing_Compensation_Per_Cylinder_B
 0000:000CF2C8       Timing_Compensation_Per_Cylinder_C_X_Axis
 0000:000CF300       Timing_Compensation_Per_Cylinder_C_Y_Axis
 0000:000CF314       Timing_Compensation_Per_Cylinder_C
 0000:000CF35C       Timing_Compensation_Per_Cylinder_D_X_Axis
 0000:000CF394       Timing_Compensation_Per_Cylinder_D_Y_Axis
 0000:000CF3AC       Timing_Compensation_Per_Cylinder_D
 0000:000CF5B4       Knock_Correction_Advance_Max_Cruise_X_Axis
 0000:000CF5F0       Knock_Correction_Advance_Max_Cruise_Y_Axis
 0000:000CF638       Knock_Correction_Advance_Max_Cruise
 0000:000CF748       Knock_Correction_Advance_Max_NonCruise_X_Axis
 0000:000CF784       Knock_Correction_Advance_Max_NonCruise_Y_Axis
 0000:000CF7CC       Knock_Correction_Advance_Max_NonCruise
 0000:000CF914       aOooooooooooooo
 0000:000CF94C       aGggggggggggg
 0000:000CF960       Base_Timing_Primary_Cruise_X_Axis
 0000:000CF99C       Base_Timing_Primary_Cruise_Y_Axis
 0000:000CF9E4       Base_Timing_Primary_Cruise
 0000:000CFAF4       Base_Timing_Primary_NonCruise_X_Axis
 0000:000CFB30       Base_Timing_Primary_NonCruise_Y_Axis
 0000:000CFB78       Base_Timing_Primary_NonCruise
 0000:000CFC88       Base_Timing_Reference_Cruise_AVCS_related_X_Axis
 0000:000CFCC4       Base_Timing_Reference_Cruise_AVCS_related_Y_Axis
 0000:000CFD0C       Base_Timing_Reference_Cruise_AVCS_related
 0000:000CFE1C       Base_Timing_Reference_NonCruise_AVCS_related_X_Axis
 0000:000CFE58       Base_Timing_Reference_NonCruise_AVCS_related_Y_Axis
 0000:000CFEA0       Base_Timing_Reference_NonCruise_AVCS_related
 0000:000CFFB0       Timing_Compensation_A_IAT_Activation_X_Axis
 0000:000CFFD0       Timing_Compensation_A_IAT_Activation_Y_Axis
 0000:000CFFF0       Timing_Compensation_A_IAT_Activation
 0000:000D0060       aSvAjnucfpvAkua
 0000:000D007C       aH
 0000:000D00AC       aSvAjnucfpvAk_0
 0000:000D00C8       aH_0
 0000:000D022C       aAaaaaaaaaaaaaa
 0000:000D026C       aAaaaaaaaaaaa_0
 0000:000D035C       aAaaaaaaaaaaa_1
 0000:000D0400       aAaaaaaaaaaaa_2
 0000:000D0AA4       aP
 0000:000D0BC8       Idle_Speed_Target_C_Y_Axis
 0000:000D0CDC       aAaaaaaaaaaaa_3
 0000:000D11A0       Idle_Speed_Target_A
 0000:000D11E0       Idle_Speed_Target_B
 0000:000D1220       Idle_Speed_Target_C
 0000:000D1908       aAjffbFfbyssbjf
 0000:000D1994       aDsiieatEgEs0
 0000:000D19A4       aEjQeEpe
 0000:000D1A90       aDh
 0000:000D2A08       a33333
 0000:000D2A10       aDc
 0000:000D2ACC       aLSss?_1
 0000:000D2B65       aTaz1e400u
 0000:000D2CB8       a00000000000000
 0000:000D2CE8       Manifold_Pressure_Sensor_Limits_CEL
 0000:000D2D1C       Manifold_Pressure_Sensor_Scaling_
 0000:000D2D30       a@33@33?Zs?Gob
 0000:000D2D64       Coolant_Temp_Sensor_Scaling_Y_Axis
 0000:000D2DD4       Coolant_Temp_Sensor_Scaling
 0000:000D2E44       Intake_Temp_Sensor_Scaling_Y_Axis
 0000:000D2EBC       Intake_Temp_Sensor_Scaling
 0000:000D2FB4       MAF_Sensor_Scaling_Y_Axis
 0000:000D308C       MAF_Sensor_Scaling
 0000:000D3164       Front_Oxygen_Sensor_Scaling_Y_Axis
 0000:000D3198       Front_Oxygen_Sensor_Scaling
 0000:000D345C       Radiator_Fan_Modes_A_ECT
 0000:000D346C       Radiator_Fan_Modes_B_ECT
 0000:000D347C       Radiator_Fan_Modes_Veh_Speed
 0000:000D391C       dEcuId
 0000:000D3EA8       aFffff
 0000:000D42F8       a?La33bs33b
 0000:000D4C24       Intake_Cam_Advance_Angle_Cruise_AVCS_X_Axis
 0000:000D4C60       Intake_Cam_Advance_Angle_Cruise_AVCS_Y_Axis
 0000:000D4CA0       Intake_Cam_Advance_Angle_Cruise_AVCS
 0000:000D4E80       Intake_Cam_Advance_Angle_NonCruise_AVCS_X_Axis
 0000:000D4EBC       Intake_Cam_Advance_Angle_NonCruise_AVCS_Y_Axis
 0000:000D4EFC       Intake_Cam_Advance_Angle_NonCruise_AVCS
 0000:000DC644       Speed_Limiting_A_Throttle
 0000:000DC65C       Speed_Limiting_B_Throttle
 0000:000DC7F8       Requested_Torque_Base_RPM_Y_Axis
 0000:000DC838       Requested_Torque_Base_RPM
 0000:000DCB28       aAaaaaaaaaaaa_4
 0000:000DCBA8       aAaaaaaaaaaaa_5
 0000:000DCC68       Target_Throttle_Plate_Position_Cruise_Requested_Torque_Ratio_X_Axis
 0000:000DCC6C       aLLSss?
 0000:000DCCA8       Target_Throttle_Plate_Position_Cruise_Requested_Torque_Ratio_Y_Axis
 0000:000DCCE8       Target_Throttle_Plate_Position_Cruise_Requested_Torque_Ratio
 0000:000DCEE8       Target_Throttle_Plate_Position_NonCruise_Requested_Torque_Ratio_X_Axis
 0000:000DCEEC       aLLSss?_0
 0000:000DCF28       Target_Throttle_Plate_Position_NonCruise_Requested_Torque_Ratio_Y_Axis
 0000:000DCF68       Target_Throttle_Plate_Position_NonCruise_Requested_Torque_Ratio
 0000:000DD168       Target_Throttle_Plate_Position_Maximum_Requested_Torque_Ratio_X_Axis
 0000:000DD16C       aLLSss?_1
 0000:000DD1A8       Target_Throttle_Plate_Position_Maximum_Requested_Torque_Ratio_Y_Axis
 0000:000DD1E8       Target_Throttle_Plate_Position_Maximum_Requested_Torque_Ratio
 0000:000DD618       Requested_Torque_A_Accelerator_Pedal_X_Axis
 0000:000DD654       Requested_Torque_A_Accelerator_Pedal_Y_Axis
 0000:000DD698       Requested_Torque_A_Accelerator_Pedal
 0000:000DD898       Requested_Torque_B_Accelerator_Pedal_X_Axis
 0000:000DD8D4       Requested_Torque_B_Accelerator_Pedal_Y_Axis
 0000:000DD918       Requested_Torque_B_Accelerator_Pedal
 0000:000DDB18       Requested_Torque_C_Accelerator_Pedal_X_Axis
 0000:000DDB54       Requested_Torque_C_Accelerator_Pedal_Y_Axis
 0000:000DDB98       Requested_Torque_C_Accelerator_Pedal
 0000:000E2000       dRomHoleStart
 0000:000FFB80       Checksum_Fix
 0000:FFFF2004       pObdVinDirect
 0000:FFFF2C84       E_AF_Learning_1_A_StoredExt_E44
 0000:FFFF2C8C       E_AF_Learning_1_B_StoredExt_E45
 0000:FFFF2C94       E_AF_Learning_1_C_StoredExt_E46
 0000:FFFF2C9C       E_AF_Learning_1_D_StoredExt_E47
 0000:FFFF2D10       E_IAM_4byteExt_E31
 0000:FFFF4046       pMafSensorVoltage
 0000:FFFF40B4       pMassAirFlow
 0000:FFFF40C8       pAf1Res
 0000:FFFF4124       pIntakeAirTemp
 0000:FFFF413C       pCoolantTemp
 0000:FFFF5EE4       E_Boost_ErrorExt_E35
 0000:FFFF5EE8       E_Target_Boost_Relative_4byteExt_E120
 0000:FFFF5EEC       E_Target_Boost_4byteExt_E36
 0000:FFFF5EF0       E_Turbo_Dynamics_Proportional_4byteExt_E37
 0000:FFFF5EF4       E_Turbo_Dynamics_Integral_4byteExt_E34
 0000:FFFF5F08       E_Primary_Wastegate_Duty_MaximumExt_4byteExt__E77
 0000:FFFF61DA       pCoastFlags
 0000:FFFF61DB       pResumeFlags
 0000:FFFF61DC       pBrakeFlags
 0000:FFFF6420       E_Manifold_Relative_Sea_Level_Pressure_4byteExt_E52
 0000:FFFF6424       E_Manifold_Relative_Pressure_4byteExt_E113
 0000:FFFF64E8       E_Throttle_Plate_Opening_Angle_4byteExt_E38
 0000:FFFF64F8       E_Tipin_ThrottleExt_E54
 0000:FFFF6734       E_AF_Sensor_1_4byteExt_E91
 0000:FFFF67C3       pClutchFlags
 0000:FFFF67F0       pVehicleSpeed
 0000:FFFF6814       pEngineSpeed
 0000:FFFF6A01       E_Gear_CalculatedExt_E59
 0000:FFFF6A14       E_Manifold_Relative_Sea_Level_Pressure_2byteExtExt_E89
 0000:FFFF6A16       E_Throttle_Plate_Opening_Angle_2byteExtExt_E93
 0000:FFFF6A1C       E_AF_Sensor_1_2byteExtExt_E92
 0000:FFFF6A2A       E_Final_Fueling_Base_2byteExt_E124
 0000:FFFF6A2E       E_AF_Correction_1_2byteExtExt_E82
 0000:FFFF6A30       E_Closed_Loop_Fueling_Target_2byteExt_E122
 0000:FFFF6A32       E_AF_Learning_1_2byteExtExt_E83
 0000:FFFF6A36       E_Primary_Open_Loop_Map_Enrichment_2byteExtExt_E85
 0000:FFFF6A42       E_Target_Boost_2byteExtExt_E90
 0000:FFFF6A47       E_Engine_Load_1byteExtExt_E86
 0000:FFFF6A51       E_Feedback_Knock_Correction_1byteExtExt_E94
 0000:FFFF6A53       E_IAM_1byteExtExt_E96
 0000:FFFF6A54       E_Fine_Learning_Knock_Correction_1byteExtExt_E95
 0000:FFFF6A5D       E_Primary_WGDC_Maximum_1byteExtExt_E112
 0000:FFFF6A70       pAtmoPress
 0000:FFFF6F08       E_Final_Fueling_Base_4byteExt_E123
 0000:FFFF6F48       E_Fuel_Injector_1_Latency_4byteExt_E50
 0000:FFFF7214       E_AF_Correction_1_4byteExt_E81
 0000:FFFF72FC       E_Closed_Loop_Fueling_Target_4byteExt_E121
 0000:FFFF7394       E_AF_Learning_1_4byteExt_E48
 0000:FFFF739B       E_AF_Learning_Airflow_Range_CurrentExt_E61
 0000:FFFF745C       E_Primary_Open_Loop_Map_Enrichment_4byteExt_E84
 0000:FFFF76D4       E_Tipin_Enrichment_Last_CalculatedExt_E55
 0000:FFFF7760       pFlagsRevLimit
 0000:FFFF7824       E_Fuel_Injector_1_Pulse_Width_4byteExt_E60
 0000:FFFF7980       E_Ignition_Base_TimingExt_E53
 0000:FFFF79E0       E_Engine_Load_4ByteExt_E32
 0000:FFFF7C14       E_Knock_Correction_Advance_4byteExt_E43
 0000:FFFF7C18       E_Feedback_Knock_Correction_4byteExt_E39
 0000:FFFF7C74       E_Knock_Correction_Advance_Max_PrimaryExt_E118
 0000:FFFF7C7C       E_Knock_Correction_Advance_IAM_onlyExt_E40
 0000:FFFF7C9C       E_Fine_Learning_Knock_Correction_4byteExt_E41
 0000:FFFF7CA2       E_Fine_Learning_Table_OffsetExt_E58
 0000:FFFF7F50       E_Target_Throttle_Plate_PositionExt_E57
 0000:FFFF7F58       E_Requested_TorqueExt_E56
 0000:FFFF82E8       E_Idle_Speed_Map_SelectionExt_E49
 0000:FFFF98EA       pCelSignalOem
 0000:FFFF9AA5       E_CLOL_FuelingExt_E33
 0000:FFFFA610       pRamHoleStart
 0000:FFFFBF9F       pMemoryResetLimit
