
 Start         Length     Name                   Class
 0000:00000000 000100000H ROM                    CODE
 0000:00000000 00000BFFFH RAM                    


  Address         Publics by Value

 0000:00000000       off_0
 0000:00002004       dCalId
 0000:0000203C       aPf_07cyh4tVer1
 0000:0000205C       aObd_07cyh4nVer
 0000:00003374       aCopyright1999H
 0000:00004020       nullsub_15
 0000:000048CC       sMafCalc
 0000:00004928       hMafCalc
 0000:00004B6A       nullsub_16
 0000:00004D8A       nullsub_1
 0000:00006404       nullsub_13
 0000:00006A0A       nullsub_17
 0000:000090B6       nullsub_18
 0000:0000A61C       nullsub_19
 0000:0000AE82       nullsub_6
 0000:0000AE86       nullsub_2
 0000:0000AE8A       nullsub_7
 0000:0000B0A6       nullsub_3
 0000:0000B0AA       nullsub_8
 0000:0000B0EA       nullsub_4
 0000:0000B0EE       nullsub_9
 0000:0000B168       nullsub_10
 0000:0000B250       nullsub_5
 0000:0000B254       nullsub_11
 0000:0000B296       nullsub_12
 0000:0000C72C       nullsub_14
 0000:0000C730       nullsub_20
 0000:0000C94A       nullsub_21
 0000:0000E7B4       aFscattOkfafmca
 0000:0000F780       aCMcLsDJdXf
 0000:0000FA1C       hMemoryReset
 0000:000100BC       sMemoryReset
 0000:00010596       aCJo04cX
 0000:00011A70       hMemoryResetLimit
 0000:00013C98       sWgdc
 0000:000141B4       sWgdc0
 0000:0001443C       Max_Wastegate_Duty_Limit_PostCompensation
 0000:0001B4B4       sLoadCalcs
 0000:0001B9A8       Engine_Load_Limit_A_Maximum
 0000:0001D254       Front_Oxygen_Sensor_Rich_Limit
 0000:00020AC4       aJCoCa
 0000:00023F20       aOSUfpbDlQo
 0000:00024600       nullsub_27
 0000:00024604       nullsub_28
 0000:00025890       Engine_Load_Limit_Maximum
 0000:00026CB8       aCoBAqBArAsDu5x
 0000:000292FC       aODDaaDDe@@
 0000:0002F554       sRevLimStart
 0000:0002F564       RevLimBitMask_0x01
 0000:0002F594       sRevLimEnd
 0000:000312F4       aJCJCoR
 0000:0003A40E       aVbEBsbB2xbB
 0000:0003A740       aCoMaBU
 0000:0003CB08       hWgdc
 0000:0003CFEC       hRevLimDelete
 0000:00045B2E       aYAjdcakdaaldd
 0000:0004A648       aOJCJC
 0000:0004CC7C       aZbZDaaqdbardca
 0000:0004CE72       SsmGet_Switches_168_169_170_171_172_x_x_x
 0000:0004CE9C       SsmGet_Engine_Load_Relative_P1
 0000:0004CEA6       SsmGet_Coolant_Temperature_P2
 0000:0004CEBC       SsmGet_AF_Correction_1_P3
 0000:0004CED6       SsmGet_AF_Learning_1_P4
 0000:0004CEEE       SsmGet_AF_Correction_2_P5
 0000:0004CF04       SsmGet_AF_Learning_2_P6
 0000:0004CFC0       SsmGet_Manifold_Absolute_Pressure_P7
 0000:0004CFD6       SsmGet_Engine_Speed_P8
 0000:0004D00C       SsmGet_Vehicle_Speed_P9
 0000:0004D020       SsmGet_Ignition_Total_Timing_P10
 0000:0004D038       SsmGet_Intake_Air_Temperature_P11
 0000:0004D04E       SsmGet_Mass_Airflow_P12
 0000:0004D084       SsmGet_Throttle_Opening_Angle_P13
 0000:0004D09A       SsmGet_Front_O2_Sensor_1_P14
 0000:0004D0A2       SsmGet_Rear_O2_Sensor_P15
 0000:0004D0D8       SsmGet_Front_O2_Sensor_2_P16
 0000:0004D0E0       SsmGet_Battery_Voltage_P17
 0000:0004D0F6       SsmGet_Mass_Airflow_Sensor_Voltage_P18
 0000:0004D11A       SsmGet_Fuel_Injector_1_Pulse_Width_P21
 0000:0004D130       SsmGet_Fuel_Injector_2_Pulse_Width_P22
 0000:0004D148       SsmGet_Atmospheric_Pressure_P24
 0000:0004D15E       SsmGet_Manifold_Relative_Pressure_P25
 0000:0004D17C       SsmGet_Learned_Ignition_Timing_P29
 0000:0004D19A       SsmGet_Accelerator_Pedal_Angle_P30
 0000:0004D1B0       SsmGet_Fuel_Temperature_P31
 0000:0004D1C4       SsmGet_Fuel_Level_P35
 0000:0004D1DA       SsmGet_Radiator_Fan_Control_P92
 0000:0004D1EC       SsmGet_Primary_Wastegate_Duty_Cycle_P36
 0000:0004D202       SsmGet_CPC_Valve_Duty_Ratio_P38
 0000:0004D21E       SsmGet_Tumble_Valve_Position_Sensor_Right_P39
 0000:0004D242       SsmGet_Tumble_Valve_Position_Sensor_Left_P40
 0000:0004D26A       SsmGet_Number_of_Exh_Gas_Recirc_Steps_P45
 0000:0004D27C       SsmGet_Alternator_Duty_P46
 0000:0004D328       SsmGet_Fuel_Pump_Duty_P47
 0000:0004D33E       SsmGet_Intake_VVT_Advance_Angle_Right_P48
 0000:0004D354       SsmGet_Intake_VVT_Advance_Angle_Left_P49
 0000:0004D36A       SsmGet_Intake_OCV_Duty_Right_P50
 0000:0004D380       SsmGet_Intake_OCV_Duty_Left_P51
 0000:0004D396       SsmGet_Intake_OCV_Current_Right_P52
 0000:0004D3AC       SsmGet_Intake_OCV_Current_Left_P53
 0000:0004D3C2       SsmGet_AF_Sensor_1_Current_P54
 0000:0004D3DA       SsmGet_AF_Sensor_2_Current_P55
 0000:0004D3F0       SsmGet_AF_Sensor_1_Resistance_P56
 0000:0004D404       SsmGet_AF_Sensor_2_Resistance_P57
 0000:0004D416       SsmGet_AF_Sensor_1_P58
 0000:0004D42C       SsmGet_AF_Sensor_2_P59
 0000:0004D452       SsmGet_Switches_x_1_2_3_x_69_70_71
 0000:0004D4D2       SsmGet_Switches_4_5_x_6_7_8_9_x
 0000:0004D55C       SsmGet_Switches_10_11_12_13_14_15_16_17
 0000:0004D638       SsmGet_Switches_18_19_20_21_22_23_24_25
 0000:0004D6C4       SsmGet_Switches_26_27_28_29_30_31_32_33
 0000:0004D71E       SsmGet_Switches_34_35_36_37_38_39_40_41
 0000:0004D774       SsmGet_Switches_42_43_44_45_46_47_48_49
 0000:0004D77E       SsmGet_Switches_72_73_74_75_50_51_52_53
 0000:0004D804       SsmGet_Switches_54_55_56_57_58_59_60_61
 0000:0004D822       SsmGet_Switches_x_x_x_x_x_x_82_x
 0000:0004D85E       SsmGet_Switches_108_x_x_x_x_x_x_x
 0000:0004D990       SsmGet_Roughness_Monitor_Cylinder_1_P63
 0000:0004D996       SsmGet_Roughness_Monitor_Cylinder_2_P64
 0000:0004D99C       SsmGet_AF_Correction_3_32bit_ECU_P89
 0000:0004D9B4       SsmGet_AF_Learning_3_P66
 0000:0004DA10       SsmGet_Switches_148_149_x_150_151_152_153_154
 0000:0004DA8C       SsmGet_Roughness_Monitor_Cylinder_3_P69
 0000:0004DA92       SsmGet_Roughness_Monitor_Cylinder_4_P70
 0000:0004DC52       SsmGet_Roughness_Monitor_Cylinder_5_P151
 0000:0004DC56       SsmGet_Roughness_Monitor_Cylinder_6_P152
 0000:0004DC5A       SsmGet_Learned_Ignition_Timing_Correction_P153
 0000:0004DC70       SsmGet_Throttle_Motor_Duty_P71
 0000:0004DC88       SsmGet_Throttle_Motor_Voltage_P72
 0000:0004DC9E       SsmGet_Sub_Throttle_Sensor_P73
 0000:0004DCC2       SsmGet_Main_Throttle_Sensor_P74
 0000:0004DCE6       SsmGet_Sub_Accelerator_Sensor_P75
 0000:0004DD0A       SsmGet_Main_Accelerator_Sensor_P76
 0000:0004DD2E       SsmGet_Brake_Booster_Pressure_P77
 0000:0004DD42       SsmGet_Cold_Start_Injector_Air_Pump_P80
 0000:0004DD58       SsmGet_Memorised_Cruise_Speed_P82
 0000:0004DD6A       SsmGet_AirFuel_Correction_4_P117
 0000:0004DD80       SsmGet_AirFuel_Learning_4_P118
 0000:0004DD96       SsmGet_Fuel_Level_Sensor_Resistance_P119
 0000:0004DDAC       SsmGet_Estimated_odometer_P120
 0000:0004DDD6       SsmGet_Oil_Temperature_P122
 0000:0004DDEA       SsmGet_Oil_Switching_Solenoid_Valve_OSV_Duty_Right_P123
 0000:0004DDFE       SsmGet_Oil_Switching_Solenoid_Valve_OSV_Duty_Left_P124
 0000:0004DE12       SsmGet_Oil_Switching_Solenoid_Valve_OSV_Current_Right_P125
 0000:0004DE26       SsmGet_Oil_Switching_Solenoid_Valve_OSV_Current_Left_P126
 0000:0004DE3A       SsmGet_Exhaust_VVT_Advance_Angle_Right_P83
 0000:0004DE50       SsmGet_Exhaust_VVT_Advance_Angle_Left_P84
 0000:0004DE66       SsmGet_Exhaust_OCV_Duty_Right_P85
 0000:0004DE7C       SsmGet_Exhaust_OCV_Duty_Left_P86
 0000:0004DE92       SsmGet_Exhaust_OCV_Current_Right_P87
 0000:0004DEA8       SsmGet_Exhaust_OCV_Current_Left_P88
 0000:0004DEBE       SsmGet_VVL_Lift_Mode_P127
 0000:0004DF5C       SsmGet_Switches_130_62_131_x_x_x_x_x
 0000:0004DFEE       SsmGet_Switches_63_64_65_66_67_132_68_133
 0000:0004DFF8       ClutchBitMask_0x01
 0000:0004E060       SsmGet_SIDrive_Mode_P114
 0000:0004E11A       SsmGet_Switches_155_156_157_x_x_x_x_x
 0000:0004E146       SsmGet_Fine_Learning_Knock_Correction_P91
 0000:0004E15E       SsmGet_Fuel_Tank_Pressure_P154
 0000:0004F6CC       nullsub_22
 0000:0004F6D0       nullsub_23
 0000:0004F8B4       nullsub_24
 0000:00055200       PtrSsmGet_Engine_Load_Relative_P1
 0000:00055204       PtrSsmGet_Coolant_Temperature_P2
 0000:00055208       PtrSsmGet_AF_Correction_1_P3
 0000:0005520C       PtrSsmGet_AF_Learning_1_P4
 0000:00055210       PtrSsmGet_AF_Correction_2_P5
 0000:00055214       PtrSsmGet_AF_Learning_2_P6
 0000:00055218       PtrSsmGet_Manifold_Absolute_Pressure_P7
 0000:0005521C       PtrSsmGet_Engine_Speed_P8
 0000:00055224       PtrSsmGet_Vehicle_Speed_P9
 0000:00055228       PtrSsmGet_Ignition_Total_Timing_P10
 0000:0005522C       PtrSsmGet_Intake_Air_Temperature_P11
 0000:00055230       PtrSsmGet_Mass_Airflow_P12
 0000:00055238       PtrSsmGet_Throttle_Opening_Angle_P13
 0000:0005523C       PtrSsmGet_Front_O2_Sensor_1_P14
 0000:00055244       PtrSsmGet_Rear_O2_Sensor_P15
 0000:0005524C       PtrSsmGet_Front_O2_Sensor_2_P16
 0000:00055254       PtrSsmGet_Battery_Voltage_P17
 0000:00055258       PtrSsmGet_Mass_Airflow_Sensor_Voltage_P18
 0000:0005525C       PtrSsmGet_Throttle_Sensor_Voltage_P19
 0000:00055260       PtrSsmGet_Differential_Pressure_Sensor_Voltage_P20
 0000:00055264       PtrSsmGet_Fuel_Injector_1_Pulse_Width_P21
 0000:00055268       PtrSsmGet_Fuel_Injector_2_Pulse_Width_P22
 0000:0005526C       PtrSsmGet_Knock_Correction_Advance_P23
 0000:00055270       PtrSsmGet_Atmospheric_Pressure_P24
 0000:00055274       PtrSsmGet_Manifold_Relative_Pressure_P25
 0000:00055278       PtrSsmGet_Pressure_Differential_Sensor_P26
 0000:0005527C       PtrSsmGet_Fuel_Tank_Pressure_P27
 0000:00055280       PtrSsmGet_CO_Adjustment_P28
 0000:00055284       PtrSsmGet_Learned_Ignition_Timing_P29
 0000:00055288       PtrSsmGet_Accelerator_Pedal_Angle_P30
 0000:0005528C       PtrSsmGet_Fuel_Temperature_P31
 0000:00055290       PtrSsmGet_Front_O2_Heater_Current_1_P32
 0000:00055294       PtrSsmGet_Rear_O2_Heater_Current_P33
 0000:00055298       PtrSsmGet_Front_O2_Heater_Current_2_P34
 0000:0005529C       PtrSsmGet_Fuel_Level_P35
 0000:000552A0       PtrSsmGet_Radiator_Fan_Control_P92
 0000:000552A4       PtrSsmGet_Primary_Wastegate_Duty_Cycle_P36
 0000:000552A8       PtrSsmGet_Secondary_Wastegate_Duty_Cycle_P37
 0000:000552AC       PtrSsmGet_CPC_Valve_Duty_Ratio_P38
 0000:000552B0       PtrSsmGet_Tumble_Valve_Position_Sensor_Right_P39
 0000:000552B4       PtrSsmGet_Tumble_Valve_Position_Sensor_Left_P40
 0000:000552B8       PtrSsmGet_Idle_Speed_Control_Valve_Duty_Ratio_P41
 0000:000552BC       PtrSsmGet_AF_Lean_Correction_P42
 0000:000552C0       PtrSsmGet_AF_Heater_Duty_P43
 0000:000552C4       PtrSsmGet_Idle_Speed_Control_Valve_Step_P44
 0000:000552C8       PtrSsmGet_Number_of_Exh_Gas_Recirc_Steps_P45
 0000:000552CC       PtrSsmGet_Alternator_Duty_P46
 0000:000552D0       PtrSsmGet_Fuel_Pump_Duty_P47
 0000:000552D4       PtrSsmGet_Intake_VVT_Advance_Angle_Right_P48
 0000:000552D8       PtrSsmGet_Intake_VVT_Advance_Angle_Left_P49
 0000:000552DC       PtrSsmGet_Intake_OCV_Duty_Right_P50
 0000:000552E0       PtrSsmGet_Intake_OCV_Duty_Left_P51
 0000:000552E4       PtrSsmGet_Intake_OCV_Current_Right_P52
 0000:000552E8       PtrSsmGet_Intake_OCV_Current_Left_P53
 0000:000552EC       PtrSsmGet_AF_Sensor_1_Current_P54
 0000:000552F0       PtrSsmGet_AF_Sensor_2_Current_P55
 0000:000552F4       PtrSsmGet_AF_Sensor_1_Resistance_P56
 0000:000552F8       PtrSsmGet_AF_Sensor_2_Resistance_P57
 0000:000552FC       PtrSsmGet_AF_Sensor_1_P58
 0000:00055300       PtrSsmGet_AF_Sensor_2_P59
 0000:0005530C       PtrSsmGet_Gear_Position_P60
 0000:00055330       PtrSsmGet_AF_Sensor_1_Heater_Current_P61
 0000:00055334       PtrSsmGet_AF_Sensor_2_Heater_Current_P62
 0000:00055368       PtrSsmGet_Switches_x_1_2_3_x_69_70_71
 0000:0005536C       PtrSsmGet_Switches_4_5_x_6_7_8_9_x
 0000:00055370       PtrSsmGet_Switches_10_11_12_13_14_15_16_17
 0000:00055374       PtrSsmGet_Switches_18_19_20_21_22_23_24_25
 0000:00055378       PtrSsmGet_Switches_26_27_28_29_30_31_32_33
 0000:0005537C       PtrSsmGet_Switches_34_35_36_37_38_39_40_41
 0000:00055380       PtrSsmGet_Switches_42_43_44_45_46_47_48_49
 0000:00055384       PtrSsmGet_Switches_72_73_74_75_50_51_52_53
 0000:00055388       PtrSsmGet_Switches_54_55_56_57_58_59_60_61
 0000:0005538C       PtrSsmGet_Switches_x_x_x_x_x_x_82_x
 0000:0005539C       PtrSsmGet_Switches_108_x_x_x_x_x_x_x
 0000:0005551C       PtrSsmGet_Roughness_Monitor_Cylinder_1_P63
 0000:00055520       PtrSsmGet_Roughness_Monitor_Cylinder_2_P64
 0000:00055524       PtrSsmGet_AF_Correction_3_32bit_ECU_P89
 0000:00055528       PtrSsmGet_AF_Learning_3_P66
 0000:0005552C       PtrSsmGet_Rear_O2_Heater_Voltage_P67
 0000:00055530       PtrSsmGet_AF_Adjustment_Voltage_P68
 0000:00055540       PtrSsmGet_Switches_148_149_x_150_151_152_153_154
 0000:00055544       PtrSsmGet_Roughness_Monitor_Cylinder_3_P69
 0000:00055548       PtrSsmGet_Roughness_Monitor_Cylinder_4_P70
 0000:000555A0       PtrSsmGet_Roughness_Monitor_Cylinder_5_P151
 0000:000555C4       PtrSsmGet_Roughness_Monitor_Cylinder_6_P152
 0000:000555C8       PtrSsmGet_Learned_Ignition_Timing_Correction_P153
 0000:000555CC       PtrSsmGet_Throttle_Motor_Duty_P71
 0000:000555D0       PtrSsmGet_Throttle_Motor_Voltage_P72
 0000:000555E4       PtrSsmGet_Sub_Throttle_Sensor_P73
 0000:000555E8       PtrSsmGet_Main_Throttle_Sensor_P74
 0000:000555EC       PtrSsmGet_Sub_Accelerator_Sensor_P75
 0000:000555F0       PtrSsmGet_Main_Accelerator_Sensor_P76
 0000:000555F4       PtrSsmGet_Brake_Booster_Pressure_P77
 0000:000555F8       PtrSsmGet_Fuel_Pressure_High_P78
 0000:000555FC       PtrSsmGet_Exhaust_Gas_Temperature_P79
 0000:00055600       PtrSsmGet_Exhaust_Gas_Temperature_2_P116
 0000:00055604       PtrSsmGet_Cold_Start_Injector_Air_Pump_P80
 0000:00055608       PtrSsmGet_SCV_Step_P81
 0000:0005560C       PtrSsmGet_Memorised_Cruise_Speed_P82
 0000:00055610       PtrSsmGet_AirFuel_Correction_4_P117
 0000:00055614       PtrSsmGet_AirFuel_Learning_4_P118
 0000:00055618       PtrSsmGet_Fuel_Level_Sensor_Resistance_P119
 0000:0005561C       PtrSsmGet_Estimated_odometer_P120
 0000:00055630       PtrSsmGet_Oil_Temperature_P122
 0000:00055634       PtrSsmGet_Oil_Switching_Solenoid_Valve_OSV_Duty_Right_P123
 0000:00055638       PtrSsmGet_Oil_Switching_Solenoid_Valve_OSV_Duty_Left_P124
 0000:0005563C       PtrSsmGet_Oil_Switching_Solenoid_Valve_OSV_Current_Right_P125
 0000:00055640       PtrSsmGet_Oil_Switching_Solenoid_Valve_OSV_Current_Left_P126
 0000:00055644       PtrSsmGet_Exhaust_VVT_Advance_Angle_Right_P83
 0000:00055648       PtrSsmGet_Exhaust_VVT_Advance_Angle_Left_P84
 0000:0005564C       PtrSsmGet_Exhaust_OCV_Duty_Right_P85
 0000:00055650       PtrSsmGet_Exhaust_OCV_Duty_Left_P86
 0000:00055654       PtrSsmGet_Exhaust_OCV_Current_Right_P87
 0000:00055658       PtrSsmGet_Exhaust_OCV_Current_Left_P88
 0000:0005565C       PtrSsmGet_VVL_Lift_Mode_P127
 0000:00055664       PtrSsmGet_Switches_130_62_131_x_x_x_x_x
 0000:00055668       PtrSsmGet_Switches_63_64_65_66_67_132_68_133
 0000:0005578C       PtrSsmGet_SIDrive_Mode_P114
 0000:00055790       PtrSsmGet_Throttle_Sensor_Closed_Voltage_P115
 0000:000557AC       PtrSsmGet_Fuel_Tank_Air_Pressure_P121
 0000:0005583C       PtrSsmGet_Switches_155_156_157_x_x_x_x_x
 0000:00055840       PtrSsmGet_Switches_158_159_160_161_162_163_164_165
 0000:00055848       PtrSsmGet_Fine_Learning_Knock_Correction_P91
 0000:0005584C       PtrSsmGet_Fuel_Tank_Pressure_P154
 0000:0005591C       PtrSsmGet_Switches_168_169_170_171_172_x_x_x
 0000:00055968       PtrSsmGet_Main_Injection_Period_P155
 0000:0005596C       PtrSsmGet_Final_Injection_Amount_P156
 0000:00055974       PtrSsmGet_Number_of_Times_Injected_P157
 0000:00055978       PtrSsmGet_Target_Intake_Manifold_Pressure_P158
 0000:0005597C       PtrSsmGet_Target_Intake_Air_Amount_P159
 0000:00055980       PtrSsmGet_Air_Mass_P160
 0000:00055984       PtrSsmGet_Exhaust_Gas_Recirculation_EGR_Target_Valve_Opening_Angle_P161
 0000:00055988       PtrSsmGet_Exhaust_Gas_Recirculation_EGR_Valve_Opening_Angle_P162
 0000:0005598C       PtrSsmGet_Exhaust_Gas_Recirculation_EGR_Duty_P163
 0000:00055990       PtrSsmGet_Common_Rail_Target_Pressure_P164
 0000:00055994       PtrSsmGet_Common_Rail_Pressure_P165
 0000:00055998       PtrSsmGet_Intake_Air_Temperature_combined_P166
 0000:0005599C       PtrSsmGet_Target_Engine_Speed_P167
 0000:000559A4       PtrSsmGet_Boost_Pressure_Feedback_P168
 0000:000559B8       PtrSsmGet_Electric_Power_Steering_Current_P169
 0000:000559BC       PtrSsmGet_Fuel_Pump_Suction_Control_Valve_Current_Target_P170
 0000:000559C4       PtrSsmGet_Fuel_Pump_Suction_Control_Valve_Current_Actual_P175
 0000:000559CC       PtrSsmGet_Mileage_after_Injector_Learning_P176
 0000:000559F4       PtrSsmGet_Mileage_after_Injector_Replacement_P177
 0000:00055A60       PtrSsmGet_Actual_Common_Rail_Pressure_Time_Synchronized_P204
 0000:00055AA0       PtrSsmGet_PreInjection_Amount_P234
 0000:00055AA8       PtrSsmGet_PreInjection_Interval_P235
 0000:00055AAC       PtrSsmGet_Final_Initial_Torque_P238
 0000:00055AC4       PtrSsmGet_Individual_Pump_Difference_Learning_Value_P228
 0000:00055AD8       PtrSsmGet_MicroQuantityInjection_Final_Learning_Value_11_P208
 0000:00055ADC       PtrSsmGet_MicroQuantityInjection_Final_Learning_Value_12_P209
 0000:00055AE0       PtrSsmGet_MicroQuantityInjection_Final_Learning_Value_13_P210
 0000:00055AE4       PtrSsmGet_MicroQuantityInjection_Final_Learning_Value_14_P211
 0000:00055AE8       PtrSsmGet_MicroQuantityInjection_Final_Learning_Value_21_P212
 0000:00055AEC       PtrSsmGet_MicroQuantityInjection_Final_Learning_Value_22_P213
 0000:00055AF0       PtrSsmGet_MicroQuantityInjection_Final_Learning_Value_23_P214
 0000:00055AF4       PtrSsmGet_MicroQuantityInjection_Final_Learning_Value_24_P215
 0000:00055AF8       PtrSsmGet_MicroQuantityInjection_Final_Learning_Value_31_P216
 0000:00055AFC       PtrSsmGet_MicroQuantityInjection_Final_Learning_Value_32_P217
 0000:00055B00       PtrSsmGet_MicroQuantityInjection_Final_Learning_Value_33_P218
 0000:00055B04       PtrSsmGet_MicroQuantityInjection_Final_Learning_Value_34_P219
 0000:00055B08       PtrSsmGet_MicroQuantityInjection_Final_Learning_Value_41_P220
 0000:00055B0C       PtrSsmGet_MicroQuantityInjection_Final_Learning_Value_42_P221
 0000:00055B10       PtrSsmGet_MicroQuantityInjection_Final_Learning_Value_43_P222
 0000:00055B14       PtrSsmGet_MicroQuantityInjection_Final_Learning_Value_44_P223
 0000:00055B18       PtrSsmGet_MicroQuantityInjection_Final_Learning_Value_51_P224
 0000:00055B1C       PtrSsmGet_MicroQuantityInjection_Final_Learning_Value_52_P225
 0000:00055B20       PtrSsmGet_MicroQuantityInjection_Final_Learning_Value_53_P226
 0000:00055B24       PtrSsmGet_MicroQuantityInjection_Final_Learning_Value_54_P227
 0000:00055B38       PtrSsmGet_PreInjection_Final_Period_P233
 0000:00055B40       PtrSsmGet_Final_Main_Injection_Period_P229
 0000:00055B58       PtrSsmGet_Quantity_Correction_Cylinder_1_P179
 0000:00055B5C       PtrSsmGet_Quantity_Correction_Cylinder_2_P180
 0000:00055B60       PtrSsmGet_Quantity_Correction_Cylinder_3_P181
 0000:00055B64       PtrSsmGet_Quantity_Correction_Cylinder_4_P182
 0000:00055BA4       PtrSsmGet_Interior_Heater_P178
 0000:00055BA8       PtrSsmGet_Battery_Current_P183
 0000:00055BAC       PtrSsmGet_Alternator_Control_Mode_P185
 0000:00055BB0       PtrSsmGet_Battery_Temperature_P184
 0000:00055BB8       PtrSsmGet_Cumulative_Ash_Ratio_P186
 0000:00055BBC       PtrSsmGet_Pressure_Difference_between_Diesel_Particulate_Filter_DPF_Inlet_and_Outlet_P187
 0000:00055BC0       PtrSsmGet_Exhaust_Gas_Temperature_at_Catalyst_Inlet_P188
 0000:00055BC4       PtrSsmGet_Exhaust_Gas_Temperature_at_Diesel_Particulate_Filter_DPF_Inlet_P189
 0000:00055BC8       PtrSsmGet_Estimated_Catalyst_Temperature_P190
 0000:00055BCC       PtrSsmGet_Estimated_Temperature_of_the_Diesel_Particulate_Filter_DPF_P191
 0000:00055BD0       PtrSsmGet_Soot_Accumulation_Ratio_P192
 0000:00055BD4       PtrSsmGet_Oil_Dilution_Ratio_P193
 0000:00055C44       PtrSsmGet_Accumulated_Count_of_Overspeed_Instances_Very_High_RPM_P198
 0000:00055C48       PtrSsmGet_Accumulated_Count_of_Overspeed_Instances_High_RPM_P199
 0000:00055C4C       PtrSsmGet_Estimated_Distance_to_Oil_Change_P205
 0000:00055C50       PtrSsmGet_Running_Distance_since_last_Diesel_Particulate_Filter_DPF_Regeneration_P206
 0000:00055C58       PtrSsmGet_Diesel_Particulate_Filter_DPF_Regeneration_Count_P207
 0000:00055C6C       PtrSsmGet_Cumulative_oil_diesel_entry_P236
 0000:00056D38       a34512345
 0000:0006094E       aCDloCDlC
 0000:0006C050       aCoTnTmF
 0000:0007236C       aJCkcDS
 0000:000738B0       P0335_CRANKSHAFT_POS_SENSOR_A_MALFUNCTION
 0000:000738B4       P0604_CONTROL_MODULE_RAM_ERROR
 0000:000738B5       P0102_MAF_SENSOR_LOW_INPUT
 0000:000738B6       P0103_MAF_SENSOR_HIGH_INPUT
 0000:000738B7       P0500_VEHICLE_SPEED_SENSOR_A
 0000:000738BA       P0327_KNOCK_SENSOR_1_LOW_INPUT
 0000:000738BB       P0328_KNOCK_SENSOR_1_HIGH_INPUT
 0000:000738BC       P0122_TPS_A_LOW_INPUT
 0000:000738BD       P0123_TPS_A_HIGH_INPUT
 0000:000738BE       P0117_COOLANT_TEMP_SENSOR_LOW_INPUT
 0000:000738BF       P0118_COOLANT_TEMP_SENSOR_HIGH_INPUT
 0000:000738C6       P0512_STARTER_REQUEST_CIRCUIT
 0000:000738CA       P0851_NEUTRAL_SWITCH_INPUT_LOW
 0000:000738CE       P0852_NEUTRAL_SWITCH_INPUT_HIGH
 0000:000738D9       P0011_CAMSHAFT_POS__TIMING_OVERADVANCED_1
 0000:000738DA       P0021_CAMSHAFT_POS__TIMING_OVERADVANCED_2
 0000:000738DD       P0458_EVAP_PURGE_VALVE_CIRCUIT_LOW
 0000:000738DE       P0459_EVAP_PURGE_VALVE_CIRCUIT_HIGH
 0000:000738E2       P0133_FRONT_O2_SENSOR_SLOW_RESPONSE
 0000:000738E3       P0139_REAR_O2_SENSOR_SLOW_RESPONSE
 0000:000738E8       P0420_CAT_EFFICIENCY_BELOW_THRESHOLD
 0000:000738EC       P0171_SYSTEM_TOO_LEAN
 0000:000738ED       P0172_SYSTEM_TOO_RICH
 0000:000738EE       P0301_MISFIRE_CYLINDER_1
 0000:000738EF       P0302_MISFIRE_CYLINDER_2
 0000:000738F0       P0303_MISFIRE_CYLINDER_3
 0000:000738F1       P0304_MISFIRE_CYLINDER_4
 0000:000738F5       P0000_PASS_CODE_NO_DTC_DETECTED
 0000:000738F6       P0000_PASS_CODE_NO_DTC_DETECTED_
 0000:000738F8       P0131_FRONT_O2_SENSOR_LOW_INPUT
 0000:000738FA       P0132_FRONT_O2_SENSOR_HIGH_INPUT
 0000:000738FE       P0112_IAT_SENSOR_LOW_INPUT
 0000:000738FF       P0113_IAT_SENSOR_HIGH_INPUT
 0000:00073901       P0038_REAR_O2_SENSOR_HIGH_INPUT
 0000:00073902       P0032_FRONT_O2_SENSOR_HIGH_INPUT
 0000:00073903       P0037_REAR_O2_SENSOR_LOW_INPUT
 0000:00073904       P0031_FRONT_O2_SENSOR_LOW_INPUT
 0000:00073905       P0107_MAP_SENSOR_LOW_INPUT
 0000:00073906       P0108_MAP_SENSOR_HIGH_INPUT
 0000:0007390D       P1560_BACKUP_VOLTAGE_MALFUNCTION
 0000:0007390E       P0562_SYSTEM_VOLTAGE_LOW
 0000:0007390F       P0563_SYSTEM_VOLTAGE_HIGH
 0000:00073910       P0245_WASTEGATE_SOLENOID_A_LOW
 0000:00073911       P0246_WASTEGATE_SOLENOID_A_HIGH
 0000:00073912       P0244_WASTEGATE_SOLENOID_A_RANGEPERF
 0000:00073914       P0230_FUEL_PUMP_PRIMARY_CIRCUIT
 0000:00073918       P0134_FRONT_O2_SENSOR_NO_ACTIVITY
 0000:00073921       P2109_TPS_A_MINIMUM_STOP_PERF
 0000:00073922       P0222_TPS_B_LOW_INPUT
 0000:00073923       P0223_TPS_B_HIGH_INPUT
 0000:00073924       P1160_ABNORMAL_RETURN_SPRING
 0000:00073925       P2102_THROTTLE_ACTUATOR_CIRCUIT_LOW
 0000:00073926       P2103_THROTTLE_ACTUATOR_CIRCUIT_HIGH
 0000:00073927       P2101_THROTTLE_ACTUATOR_CIRCUIT_RANGEPERF
 0000:00073929       P0638_THROTTLE_ACTUATOR_RANGEPERF
 0000:0007392A       P0607_CONTROL_MODULE_PERFORMANCE
 0000:0007392B       P2138_TPS_DE_VOLTAGE
 0000:0007392C       P2127_TPS_E_CIRCUIT_LOW_INPUT
 0000:0007392D       P2128_TPS_E_CIRCUIT_HIGH_INPUT
 0000:0007392E       P2122_TPS_D_CIRCUIT_LOW_INPUT
 0000:0007392F       P2123_TPS_D_CIRCUIT_HIGH_INPUT
 0000:00073930       P2135_TPS_AB_VOLTAGE
 0000:00073932       P0600_SERIAL_COMMUNICATION_LINK
 0000:00073933       P0390_CAMSHAFT_POS_SENSOR_B_BANK_2
 0000:00073934       P0365_CAMSHAFT_POS_SENSOR_B_BANK_1
 0000:00073935       P0345_CAMSHAFT_POS_SENSOR_A_BANK_2
 0000:00073936       P0340_CAMSHAFT_POS_SENSOR_A_MALFUNCTION
 0000:00073937       P0605_CONTROL_MODULE_ROM_ERROR
 0000:00073938       P2095_OCV_SOLENOID_B2_CIRCUIT_SHORT
 0000:00073939       P2094_OCV_SOLENOID_B2_CIRCUIT_OPEN
 0000:0007393A       P2091_OCV_SOLENOID_B1_CIRCUIT_SHORT
 0000:0007393B       P2090_OCV_SOLENOID_B1_CIRCUIT_OPEN
 0000:0007393C       P2093_OCV_SOLENOID_A2_CIRCUIT_SHORT
 0000:0007393D       P2092_OCV_SOLENOID_A2_CIRCUIT_OPEN
 0000:0007393E       P2089_OCV_SOLENOID_A1_CIRCUIT_SHORT
 0000:0007393F       P2088_OCV_SOLENOID_A1_CIRCUIT_OPEN
 0000:0007394C       P2004_TGV__INTAKE_MANIFOLD_RUNNER_1_STUCK_OPEN
 0000:0007394D       P2006_TGV__INTAKE_MANIFOLD_RUNNER_1_STUCK_CLOSED
 0000:0007394E       P2005_TGV__INTAKE_MANIFOLD_RUNNER_2_STUCK_OPEN
 0000:0007394F       P2007_TGV__INTAKE_MANIFOLD_RUNNER_2_STUCK_CLOSED
 0000:00073954       P2016_TGV__INTAKE_MANIFOLD_RUNNER_1_POS_SENSOR_LOW
 0000:00073955       P2017_TGV__INTAKE_MANIFOLD_RUNNER_1_POS_SENSOR_HIGH
 0000:00073956       P2021_TGV__INTAKE_MANIFOLD_RUNNER_2_POS_SENSOR_LOW
 0000:00073957       P2022_TGV__INTAKE_MANIFOLD_RUNNER_2_POS_SENSOR_HIGH
 0000:00073958       P2009_TGV__INTAKE_MANIFOLD_RUNNER_1_CIRCUIT_LOW
 0000:00073959       P2012_TGV__INTAKE_MANIFOLD_RUNNER_2_CIRCUIT_LOW
 0000:0007395A       P2008_TGV__INTAKE_MANIFOLD_RUNNER_1_CIRCUIT_OPEN
 0000:0007395B       P2011_TGV__INTAKE_MANIFOLD_RUNNER_2_CIRCUIT_OPEN
 0000:0007395C       P2444_SECONDARY_AIR_PUMP_1_STUCK_ON_B1
 0000:0007395E       P0410_SECONDARY_AIR_PUMP_SYSTEM
 0000:00073960       P2433_SECONDARY_AIR_PUMP_CIRCUIT_HIGH
 0000:00073961       P2432_SECONDARY_AIR_PUMP_CIRCUIT_LOW
 0000:00073962       P0413_SECONDARY_AIR_PUMP_A_OPEN
 0000:00073963       P0418_SECONDARY_AIR_PUMP_RELAY_A
 0000:00073964       P0140_REAR_O2_SENSOR_NO_ACTIVITY
 0000:00073967       P0414_SECONDARY_AIR_PUMP_A_SHORTED
 0000:00073968       P1418_SECONDARY_AIR_PUMP_CIRCUIT_SHORTED
 0000:00073969       P0018_CRANKSHAFTCAMSHAFT_CORRELATION_2A
 0000:0007396A       P0016_CRANKSHAFTCAMSHAFT_CORRELATION_1A
 0000:0007396B       P1410_SECONDARY_AIR_PUMP_VALVE_STUCK_OPEN
 0000:0007396E       P2441_SECONDARY_AIR_PUMP_VALVE_1_STUCK_CLOSED
 0000:00073972       P0024_EXHAUST_AVCS_SYSTEM_2_RANGEPERF
 0000:00073973       P0014_EXHAUST_AVCS_SYSTEM_1_RANGEPERF
 0000:00073974       P1616_SBDS_INTERACTIVE_CODES
 0000:00073975       P1520_IMRC_CIRCUIT_MALFUNCTION
 0000:00073976       P1519_IMRC_STUCK_CLOSED
 0000:0007397A       P0019_CRANKCAM_TIMING_B_FAILURE_2
 0000:0007397B       P0017_CRANKCAM_TIMING_B_FAILURE_1
 0000:00076E04       nullsub_25
 0000:00076E08       nullsub_26
 0000:00076EE0       sCelTrigger
 0000:00076FB8       hCelSignal
 0000:00077436       aJCoA
 0000:000774F6       aJCo0u
 0000:00077C8A       aCoWbPNcUU
 0000:00077CE6       aCoBPNcU
 0000:00077DFC       aJCJCoS
 0000:0007B2D9       P0125_INSUFFICIENT_COOLANT_TEMP_FUELING
 0000:0007B2DA       P0462_FUEL_LEVEL_SENSOR_LOW_INPUT
 0000:0007B2DB       P0463_FUEL_LEVEL_SENSOR_HIGH_INPUT
 0000:0007B2DE       P1518_STARTER_SWITCH_LOW_INPUT
 0000:0007B2F2       P0691_RADIATOR_FAN_CIRCUIT_LOW
 0000:0007B2F3       P0692_RADIATOR_FAN_CIRCUIT_HIGH
 0000:0007B33A       P0519_IDLE_CONTROL_MALFUNCTION_FAILSAFE
 0000:0007B33F       P0030_FRONT_O2_SENSOR_RANGEPERF
 0000:0007B368       P0700_TRANSMISSION_CONTROL_SYSTEM
 0000:0007B371       P2504_CHARGING_SYSTEM_VOLTAGE_HIGH
 0000:0007B372       P2503_CHARGING_SYSTEM_VOLTAGE_LOW
 0000:0007B396       P2440_SECONDARY_AIR_PUMP_VALVE_1_STUCK_OPEN
 0000:0007B39A       P2419_EVAP_SWITCHING_VALVE_LOW
 0000:0007B39B       P2420_EVAP_SWITCHING_VALVE_HIGH
 0000:0007C43C       aCoZfHlcu
 0000:0007E5B8       Force_Pass_Readiness_Monitors_
 0000:00080EF4       Table_InitialMax_Wastegate_Duty_Compensation_IAT
 0000:00080F1C       Table_InitialMax_Wastegate_Duty_Compensation_ECT
 0000:00080F30       Table_TD_Proportional_Compensation_IAT
 0000:00080F44       Table_TD_Integral_Negative_Compensation_IAT
 0000:00080F58       Table_TD_Integral_Positive_Compensation_IAT
 0000:00080F6C       Table_Target_Boost_Compensation_ECT
 0000:00080F80       Table_Turbo_Dynamics_Proportional
 0000:00080F94       Table_Turbo_Dynamics_Integral_Negative
 0000:00080FA8       Table_Turbo_Dynamics_Integral_Positive
 0000:00080FE0       Table_Target_Boost_Compensation_IAT_
 0000:00080FEC       Table_InitialMax_Wastegate_Duty_Compensation_Atm_Pressure
 0000:00081008       Table_Target_Boost_Compensation_Atm_Pressure_
 0000:00081024       Table_Max_Wastegate_Duty_
 0000:00081040       Table_Initial_Wastegate_Duty_
 0000:0008105C       Table_Target_Boost_
 0000:0008148C       Table_Engine_Load_Limit_B_Maximum_RPM
 0000:00081504       Table_Front_Oxygen_Sensor_Compensation_Atm_Pressure
 0000:000815D8       Table_MAF_Compensation_IAT
 0000:000815F4       Table_Engine_Load_Compensation_Cruise_MP
 0000:00081610       Table_Engine_Load_Compensation_NonCruise_MP
 0000:00082090       Table_Primary_Open_Loop_Fueling_Compensation_Timing_Compensation
 0000:0008212C       Table_Cranking_Fuel_IPW_Compensation_MAP
 0000:00082140       Table_Cranking_Fuel_IPW_Compensation_Accelerator
 0000:00082154       Table_Cranking_Fuel_IPW_Compensation_IAT
 0000:000821C0       Table_Min_Primary_Base_Enrichment_1_NonPrimary_OL_
 0000:0008229C       Table_Injector_Latency
 0000:00082388       Table_Primary_Open_Loop_Fueling_Compensation_Timing_Compensation_
 0000:0008239C       Table_CL_to_OL_Transition_with_Delay_Throttle
 0000:000823B0       Table_Minimum_Primary_Open_Loop_Enrichment_Throttle
 0000:000823C4       Table_Minimum_Primary_Open_Loop_Enrichment_Accelerator
 0000:00082590       Table_Tipin_Enrichment_Compensation_RPM
 0000:000825A4       Table_Tipin_Enrichment_Compensation_Boost_Error
 0000:000825B8       Table_Tipin_Enrichment_Compensation_A_ECT
 0000:000825CC       Table_Tipin_Enrichment_Disable_Applied_Counter_Threshold_A_ECT
 0000:000825D8       Table_Tipin_Enrichment_Disable_Applied_Counter_Threshold_B_ECT
 0000:000826B0       Table_Cranking_Fuel_Injector_Pulse_Width_A_ECT
 0000:000826C4       Table_Cranking_Fuel_Injector_Pulse_Width_B_ECT
 0000:000826D8       Table_Cranking_Fuel_Injector_Pulse_Width_C_ECT
 0000:000826EC       Table_Cranking_Fuel_Injector_Pulse_Width_D_ECT
 0000:00082700       Table_Cranking_Fuel_Injector_Pulse_Width_E_ECT
 0000:00082714       Table_Cranking_Fuel_Injector_Pulse_Width_F_ECT
 0000:00082E3C       Table_CL_to_OL_Transition_with_Delay_Base_Pulse_Width
 0000:00082E50       Table_CL_to_OL_Transition_Counter_Step_Value_MAF
 0000:00082E74       Table_Primary_Open_Loop_Fueling_Compensation_ECT
 0000:00083100       Table_Throttle_Tipin_Enrichment_A
 0000:00083114       Table_Throttle_Tipin_Enrichment_B
 0000:00083128       Table_Tipin_Enrichment_Compensation_B_ECT
 0000:0008313C       Table_Tipin_Enrichment_Compensation_C_ECT
 0000:0008315C       Table_Tipin_Enrichment_Compensation_D_ECT
 0000:00083170       Table_Tipin_Enrichment_Disable_Throttle_Cumulative_Threshold_A_ECT
 0000:00083184       Table_Tipin_Enrichment_Disable_Throttle_Cumulative_Threshold_B_ECT
 0000:000832E8       Table_Cranking_Fuel_IPW_Compensation_Imm_NonCruise_RPM
 0000:00083304       Table_Cranking_Fuel_IPW_Compensation_Imm_Cruise_RPM
 0000:00083374       Table_Min_Primary_Base_Enrichment_1_NonCruise
 0000:00083390       Table_Min_Primary_Base_Enrichment_1_Cruise
 0000:00083400       Table_Primary_Open_Loop_Fueling
 0000:0008341C       Table_Primary_Open_Loop_Fueling_Failsafe
 0000:000834C4       Table_Per_Injector_Pulse_Width_Compensation_A
 0000:000834E0       Table_Per_Injector_Pulse_Width_Compensation_B
 0000:000834FC       Table_Per_Injector_Pulse_Width_Compensation_C
 0000:00083518       Table_Per_Injector_Pulse_Width_Compensation_D
 0000:0008356C       Table_Injector_Latency_
 0000:0008360C       Table_CL_Fueling_Target_Compensation_Imm_Cruise_ECT
 0000:00083628       Table_CL_Fueling_Target_Compensation_Imm_NonCruise_ECT
 0000:00083644       Table_CL_Fueling_Target_Compensation_A_Load
 0000:0008367C       Table_CL_Fueling_Target_Compensation_B_Load
 0000:00083794       Table_Boost_Limit_Fuel_Cut_
 0000:00083864       Table_Base_Timing_Idle_Minimum
 0000:00083878       Table_Base_Timing_Idle_A_InGear
 0000:0008388C       Table_Base_Timing_Idle_B_InGear
 0000:000838A0       Table_Base_Timing_Idle_A_Neutral
 0000:000838B4       Table_Base_Timing_Idle_B_Neutral
 0000:000838F0       Table_Timing_Compensation_Imm_NonCruise_A_ECT
 0000:00083904       Table_Timing_Compensation_Imm_NonCruise_B_ECT
 0000:00083918       Table_Timing_Compensation_Imm_Cruise_A_ECT
 0000:0008392C       Table_Timing_Compensation_Imm_Cruise_B_ECT
 0000:00083940       Table_Timing_Compensation_A_IAT
 0000:00083C9C       Table_Timing_Compensation_B_IAT
 0000:00083DAC       Table_Rough_Correction_Learning_Delay_Increasing_
 0000:00083F88       Table_Base_Timing_Primary_Cruise
 0000:00083FA4       Table_Base_Timing_Primary_NonCruise
 0000:00083FC0       Table_Base_Timing_Reference_Cruise_AVCS_related
 0000:00083FDC       Table_Base_Timing_Reference_NonCruise_AVCS_related
 0000:00083FF8       Table_Timing_Compensation_A_IAT_Activation
 0000:00084164       Table_Timing_Compensation_Per_Cylinder_A
 0000:00084180       Table_Timing_Compensation_Per_Cylinder_B
 0000:0008419C       Table_Timing_Compensation_Per_Cylinder_C
 0000:000841B8       Table_Timing_Compensation_Per_Cylinder_D
 0000:0008420C       Table_Knock_Correction_Advance_Max_Cruise
 0000:00084228       Table_Knock_Correction_Advance_Max_NonCruise
 0000:00084648       Table_Idle_Speed_Target_A
 0000:00084670       Table_Idle_Speed_Target_B
 0000:00084698       Table_Idle_Speed_Target_C
 0000:00084C30       Table_Requested_Torque_Base_RPM
 0000:00084D18       Table_Target_Throttle_Plate_Position_Cruise_Requested_Torque_Ratio
 0000:00084D34       Table_Target_Throttle_Plate_Position_NonCruise_Requested_Torque_Ratio
 0000:00084D50       Table_Target_Throttle_Plate_Position_Maximum_Requested_Torque_Ratio
 0000:00084DC0       Table_Requested_Torque_Accelerator_Pedal_SIDRIVE_Sport
 0000:00084DDC       Table_Requested_Torque_Accelerator_Pedal_SIDRIVE_Sport_Sharp
 0000:00084DF8       Table_Requested_Torque_Accelerator_Pedal_SIDRIVE_Intelligent
 0000:00084F28       Table_Coolant_Temp_Sensor_Scaling
 0000:00084F34       Table_Intake_Temp_Sensor_Scaling
 0000:00084F4C       Table_MAF_Sensor_Scaling
 0000:00084F58       Table_Front_Oxygen_Sensor_Scaling
 0000:00085478       Table_Exhaust_Cam_Retard_Angle_Cruise_AVCS
 0000:00085494       Table_Exhaust_Cam_Retard_Angle_NonCruise_AVCS
 0000:00085574       Table_Intake_Cam_Advance_Angle_Cruise_AVCS
 0000:00085590       Table_Intake_Cam_Advance_Angle_NonCruise_AVCS
 0000:0008717A       Force_Pass_Readiness_Monitors
 0000:000BE714       sPull2DFloat
 0000:000BE7C8       sPull3DFloat
 0000:000BF258       aMsr_rfcc_shcv9
 0000:000C0000       aAz1g301f
 0000:000C010C       aBoff
 0000:000C028C       Manifold_Pressure_Sensor_Scaling
 0000:000C0599       Boost_Control_Disable_Delay_Fine_Correction
 0000:000C05C0       TD_Activation_Thresholds_Target_Boost_
 0000:000C05C8       TD_Integral_Negative_Activation_Boost_Error
 0000:000C05CC       TD_Integral_Positive_Activation_Boost_Error
 0000:000C05D0       TD_Integral_Negative_Activation_Wastegate_Duty
 0000:000C05D4       TD_Activation_Thresholds_RPM
 0000:000C05DC       TD_Integral_Cumulative_Range_WGDC_Correction
 0000:000C05E4       Boost_Control_Disable_Fine_Correction
 0000:000C05E8       Boost_Control_Disable_IAM
 0000:000C05F4       Target_Boost_Compensation_1st_Gear_Speed_Disable
 0000:000C05F8       Target_Boost_Compensation_1st_Gear
 0000:000C0600       InitialMax_Wastegate_Duty_Compensation_ECT_Y_Axis
 0000:000C0640       TD_Integral_Negative_Compensation_IAT_Y_Axis
 0000:000C0680       InitialMax_Wastegate_Duty_Compensation_IAT
 0000:000C06A0       InitialMax_Wastegate_Duty_Compensation_ECT
 0000:000C06B0       TD_Proportional_Compensation_IAT
 0000:000C06C0       TD_Integral_Negative_Compensation_IAT
 0000:000C06D0       TD_Integral_Positive_Compensation_IAT
 0000:000C06E0       Target_Boost_Compensation_ECT
 0000:000C06F0       Turbo_Dynamics_Proportional_Y_Axis
 0000:000C0714       Turbo_Dynamics_Proportional
 0000:000C0728       Turbo_Dynamics_Integral_Negative_Y_Axis
 0000:000C074C       Turbo_Dynamics_Integral_Negative
 0000:000C0760       Turbo_Dynamics_Integral_Positive_Y_Axis
 0000:000C0784       Turbo_Dynamics_Integral_Positive
 0000:000C07F8       TD_Integral_Positive_Activation_Wastegate_Duty
 0000:000C0810       Target_Boost_Compensation_IAT__Y_Axis
 0000:000C0834       Target_Boost_Compensation_IAT_
 0000:000C0858       InitialMax_Wastegate_Duty_Compensation_Atm_Pressure_X_Axis
 0000:000C0870       InitialMax_Wastegate_Duty_Compensation_Atm_Pressure_Y_Axis
 0000:000C0880       InitialMax_Wastegate_Duty_Compensation_Atm_Pressure
 0000:000C0898       Target_Boost_Compensation_Atm_Pressure__X_Axis
 0000:000C08B0       Target_Boost_Compensation_Atm_Pressure__Y_Axis
 0000:000C08C8       Target_Boost_Compensation_Atm_Pressure_
 0000:000C08EC       Max_Wastegate_Duty__X_Axis
 0000:000C0924       Max_Wastegate_Duty__Y_Axis
 0000:000C096C       Max_Wastegate_Duty_
 0000:000C0AE0       Target_Boost_Compensation_Atm_Pressure_Y_Axis
 0000:000C0AF8       Target_Boost_Compensation_Atm_Pressure
 0000:000C0B64       Initial_Wastegate_Duty__X_Axis
 0000:000C0B9C       Initial_Wastegate_Duty__Y_Axis
 0000:000C0BE4       Initial_Wastegate_Duty_
 0000:000C0DDC       Target_Boost__X_Axis
 0000:000C0E10       Target_Boost__Y_Axis
 0000:000C0E58       Target_Boost_
 0000:000C1188       aDzpfff
 0000:000C1190       aDh
 0000:000C12B8       aLSss?
 0000:000C21A4       aLSssCff?
 0000:000C21BC       a?a_0
 0000:000C2E28       MAF_Limit_Maximum
 0000:000C2E48       dLoadSmoothingAlt
 0000:000C2E4C       dLoadSmoothingB
 0000:000C2E50       dLoadSmoothingA
 0000:000C2E5C       dLoadSmoothingFinal
 0000:000C2FA0       aLQiUtD@
 0000:000C2FB0       aD
 0000:000C2FB4       aEia
 0000:000C2FB8       aEma
 0000:000C2FBC       a?s33?a
 0000:000C2FC4       a@@@
 0000:000C2FCC       aAa
 0000:000C3000       Gear_Determination_Thresholds_A
 0000:000C3014       Gear_Determination_Thresholds_B
 0000:000C3028       Gear_Determination_Thresholds_C
 0000:000C31C4       Engine_Load_Limit_B_Maximum_RPM_Y_Axis
 0000:000C31CC       Engine_Load_Limit_B_Maximum_RPM
 0000:000C32BC       Front_Oxygen_Sensor_Compensation_Atm_Pressure_Y_Axis
 0000:000C32CC       Front_Oxygen_Sensor_Compensation_Atm_Pressure
 0000:000C33EC       aEMyuxQfOWfa
 0000:000C3400       aA_3
 0000:000C356C       MAF_Compensation_IAT_X_Axis
 0000:000C3580       MAF_Compensation_IAT_Y_Axis
 0000:000C3584       Engine_Load_Compensation_MP_X_Axis
 0000:000C35A0       MAF_Compensation_IAT
 0000:000C35B0       Engine_Load_Compensation_MP_Y_Axis
 0000:000C35C8       Engine_Load_Compensation_Cruise_MP_X_Axis
 0000:000C35E8       Engine_Load_Compensation_MP
 0000:000C35F8       Engine_Load_Compensation_Cruise_MP_Y_Axis
 0000:000C363C       Engine_Load_Compensation_Cruise_MP
 0000:000C3708       Engine_Load_Compensation_NonCruise_MP_X_Axis
 0000:000C3738       Engine_Load_Compensation_NonCruise_MP_Y_Axis
 0000:000C377C       Engine_Load_Compensation_NonCruise_MP
 0000:000C3B14       aL_0
 0000:000C3EF9       Manifold_Pressure_Sensor_CEL_Delays
 0000:000C40D4       aGG?fffap
 0000:000C40E8       aB_1
 0000:000C4108       aG
 0000:000C4168       aAi33axqiazAfQc
 0000:000C417C       aA_2
 0000:000C486C       aDddddddddddddd
 0000:000C487C       aAp
 0000:000C4914       aYYYFfffffffs3a
 0000:000C4928       aD_0
 0000:000C4A54       aIaiaiaiaiaiaia
 0000:000C4A68       aD_1
 0000:000C5360       aLLLLLLLLLLLLLL
 0000:000C5520       aEz
 0000:000C555C       aE
 0000:000C5560       aEz_0
 0000:000C7832       Tipin_Enrichment_Disable_Applied_Counter_Threshold
 0000:000C798C       Tipin_Enrichment_Applied_Counter_Reset
 0000:000C798D       Tipin_Throttle_Cumulative_Reset
 0000:000C79C8       CL_Delay_Engine_Load_Counter_Threshold
 0000:000C79CA       CL_to_OL_DelaySwitch_SIDRIVE_Intelligent
 0000:000C79D0       CL_to_OL_Delay_
 0000:000C7A0C       Min_Primary_Base_Enrich_3_Decay_Multiplier
 0000:000C7B94       Injector_Flow_Scaling
 0000:000C7BC0       aEAUPEAUPLL
 0000:000C7BE4       a?yss?a
 0000:000C7BEC       a@_0
 0000:000C7C78       a?s33L?s33
 0000:000C7C8C       aBu
 0000:000C7CB0       a?s33?s33?yss?j
 0000:000C7CC4       aB_0
 0000:000C7CCC       a?yss?sss?fff?a
 0000:000C7CDC       a?a
 0000:000C7DBC       AF_Learning_1_Limits
 0000:000C7DCC       AF_Learning_1_Airflow_Ranges
 0000:000C7E48       aAiq?Q?zsg?zsg?
 0000:000C7E70       Primary_Open_Loop_Fuel_Map_Switch_IAM
 0000:000C7E74       Minimum_Active_Primary_Open_Loop_Enrichment
 0000:000C7E78       CL_to_OL_Transition_with_Delay_BPW_Hysteresis
 0000:000C7E7C       CL_to_OL_Transition_with_Delay_Throttle_Hysteresis
 0000:000C7E80       CL_Delay_Minimum_ECT
 0000:000C7E84       CL_Delay_Maximum_Engine_Speed_Per_Gear
 0000:000C7EAC       CL_Delay_Maximum_Engine_Speed_Neutral
 0000:000C7ED8       Tipin_Enrichment_Disable_Throttle_Cumulative_Threshold
 0000:000C7EDC       CL_Delay_Maximum_Throttle
 0000:000C7EF8       CL_Delay_Maximum_Vehicle_Speed
 0000:000C7F08       CL_Delay_Maximum_Engine_Load
 0000:000C7F84       aLL?a
 0000:000C7F98       aLLA
 0000:000C7FA4       aA_0
 0000:000C7FA8       a?
 0000:000C7FAC       aA_1
 0000:000C7FB0       a@a_0
 0000:000C7FB4       aCc
 0000:000C8004       Min_Primary_Base_Enrich_3_Decay_Delay_B_Y_Axis
 0000:000C8108       aLLLLB
 0000:000C814E       Min_Primary_Base_Enrich_3_Decay_Delay_A
 0000:000C815E       Min_Primary_Base_Enrich_3_Decay_Delay_B
 0000:000C8194       Minimum_Tipin_Enrichment_Activation_Throttle
 0000:000C8198       Minimum_Tipin_Enrichment_Activation
 0000:000C819C       Tipin_Enrichment_Compensation_D_ECT_Activation
 0000:000C81F4       Rev_Limit_Fuel_Cut
 0000:000C81FC       Rev_Limit_Fuel_Resume_Boost
 0000:000C8244       Speed_Limiting_Enable_Fuel_Cut
 0000:000C824C       Speed_Limiting_Disable_Fuel_Cut
 0000:000C82A0       Min_Primary_Base_Enrichment_1_NonPrimary_OL__Y_Axis
 0000:000C82E0       Tipin_Enrichment_Compensation_D_ECT_Y_Axis
 0000:000C83F4       Primary_Open_Loop_Fueling_Compensation_Timing_Compensation_Y_Axis
 0000:000C840C       Primary_Open_Loop_Fueling_Compensation_Timing_Compensation
 0000:000C84BC       Cranking_Fuel_IPW_Compensation_MAP_Y_Axis
 0000:000C84E4       Cranking_Fuel_IPW_Compensation_MAP
 0000:000C84F0       Cranking_Fuel_IPW_Compensation_Accelerator_Y_Axis
 0000:000C8518       Cranking_Fuel_IPW_Compensation_Accelerator
 0000:000C8524       Cranking_Fuel_IPW_Compensation_IAT_Y_Axis
 0000:000C8538       Cranking_Fuel_IPW_Compensation_IAT
 0000:000C859D       Min_Primary_Base_Enrichment_1_NonPrimary_OL_
 0000:000C8718       Injector_Latency_Y_Axis
 0000:000C872C       Injector_Latency
 0000:000C8736       Min_Primary_Base_Enrich_3_Initial_Start_1A
 0000:000C8756       Min_Primary_Base_Enrich_3_Initial_Start_1B
 0000:000C8776       Min_Primary_Base_Enrich_3_Initial_Start_2A
 0000:000C8796       Min_Primary_Base_Enrich_3_Initial_Start_2B
 0000:000C87B6       Min_Primary_Base_Enrich_2_Initial_Start_1A
 0000:000C87D6       Min_Primary_Base_Enrich_2_Initial_Start_1B
 0000:000C87F6       Min_Primary_Base_Enrich_2_Initial_Start_2A
 0000:000C8816       Min_Primary_Base_Enrich_2_Initial_Start_2B
 0000:000C8836       Min_Primary_Base_Enrich_2_Decay_Step_1
 0000:000C8856       Min_Primary_Base_Enrich_2_Decay_Step_2
 0000:000C8994       Primary_Open_Loop_Fueling_Compensation_Timing_Compensation__Y_Axis
 0000:000C89AC       Primary_Open_Loop_Fueling_Compensation_Timing_Compensation_
 0000:000C89B4       CL_to_OL_Transition_with_Delay_Throttle_Y_Axis
 0000:000C89F4       CL_to_OL_Transition_with_Delay_Throttle
 0000:000C8A04       Minimum_Primary_Open_Loop_Enrichment_Throttle_Y_Axis
 0000:000C8A1C       Minimum_Primary_Open_Loop_Enrichment_Throttle
 0000:000C8A24       Minimum_Primary_Open_Loop_Enrichment_Accelerator_Y_Axis
 0000:000C8A3C       Minimum_Primary_Open_Loop_Enrichment_Accelerator
 0000:000C8CF4       aVxnzgbaaaaaaaa
 0000:000C8D2C       Tipin_Enrichment_Compensation_RPM_Y_Axis
 0000:000C8D6C       Tipin_Enrichment_Compensation_RPM
 0000:000C8D7C       Tipin_Enrichment_Compensation_Boost_Error_Y_Axis
 0000:000C8DA0       Tipin_Enrichment_Compensation_Boost_Error
 0000:000C8DA9       Tipin_Enrichment_Compensation_A_ECT
 0000:000C8DB9       Tipin_Enrichment_Disable_Applied_Counter_Threshold_A_ECT
 0000:000C8DC9       Tipin_Enrichment_Disable_Applied_Counter_Threshold_B_ECT
 0000:000C8E39       aDR
 0000:000C8E59       aDjfjfjfjfjfPR
 0000:000C8EB9       aDR_0
 0000:000C8ED9       aDjfjfjfjfjfP_0
 0000:000C8EF9       aDSSSSSSSSS
 0000:000C8F0D       a?_0
 0000:000C8F0F       a?_1
 0000:000C8F11       a?_2
 0000:000C8F13       a?_3
 0000:000C8F15       a?_4
 0000:000C8F17       a?_5
 0000:000C8F3A       Cranking_Fuel_Injector_Pulse_Width_A_ECT
 0000:000C8F5A       Cranking_Fuel_Injector_Pulse_Width_B_ECT
 0000:000C8F7A       Cranking_Fuel_Injector_Pulse_Width_C_ECT
 0000:000C8F9A       Cranking_Fuel_Injector_Pulse_Width_D_ECT
 0000:000C8FBA       Cranking_Fuel_Injector_Pulse_Width_E_ECT
 0000:000C8FDA       Cranking_Fuel_Injector_Pulse_Width_F_ECT
 0000:000C9520       Throttle_Tipin_Enrichment_Y_Axis
 0000:000C9568       Throttle_Tipin_Enrichment
 0000:000C958C       Tipin_Enrichment_Compensation_ECT
 0000:000C95FC       Boost_Limit_Fuel_Cut_Y_Axis
 0000:000C9614       Boost_Limit_Fuel_Cut
 0000:000C96F8       aLSss?l?a
 0000:000C9748       aLSss?l?a_0
 0000:000C9ADC       Min_Primary_Base_Enrichment_1_NonPrimary_OL_X_Axis
 0000:000C9B04       Min_Primary_Base_Enrichment_1_NonPrimary_OL_Y_Axis
 0000:000C9B10       Min_Primary_Base_Enrichment_1_NonPrimary_OL
 0000:000C9B90       a33333333333333
 0000:000C9CDA       aZszszszszszszs
 0000:000C9CEE       aA_4
 0000:000C9CF0       aA_5
 0000:000C9CF2       aA_6
 0000:000C9CF4       aA_7
 0000:000C9CF6       aA_8
 0000:000C9CF8       aA_9
 0000:000C9CFC       a?_6
 0000:000C9F24       aZszszszszsyYYY
 0000:000CA19C       CL_to_OL_Transition_with_Delay_Base_Pulse_Width_Y_Axis
 0000:000CA1DC       CL_to_OL_Transition_with_Delay_Base_Pulse_Width
 0000:000CA1FC       CL_to_OL_Transition_Counter_Step_Value_MAF_Y_Axis
 0000:000CA224       CL_to_OL_Transition_Counter_Step_Value_MAF
 0000:000CA2B0       Primary_Open_Loop_Fueling_Compensation_ECT
 0000:000CA2B8       a1KDzgoqYA
 0000:000CA2C8       aA_10
 0000:000CA2CA       aA_11
 0000:000CA2CC       aA_12
 0000:000CA2CE       aA_13
 0000:000CA330       aL_1
 0000:000CAA8C       Throttle_Tipin_Enrichment_A_Y_Axis
 0000:000CAAD0       Throttle_Tipin_Enrichment_A
 0000:000CAAF4       Throttle_Tipin_Enrichment_B_Y_Axis
 0000:000CAB38       Throttle_Tipin_Enrichment_B
 0000:000CAB5A       Tipin_Enrichment_Compensation_B_ECT
 0000:000CAB7A       Tipin_Enrichment_Compensation_C_ECT
 0000:000CABBA       Tipin_Enrichment_Compensation_D_ECT
 0000:000CABDA       Tipin_Enrichment_Disable_Throttle_Cumulative_Threshold_A_ECT
 0000:000CABFA       Tipin_Enrichment_Disable_Throttle_Cumulative_Threshold_B_ECT
 0000:000CB314       aAaa@@@@@@@@@@@
 0000:000CB374       aAaaasaamf@aamf
 0000:000CB398       aBc
 0000:000CB3C8       aAaaasaamZaazmf
 0000:000CB3EC       Cranking_Fuel_IPW_Compensation_Imm_NonCruise_RPM_X_Axis
 0000:000CB400       Cranking_Fuel_IPW_Compensation_Imm_NonCruise_RPM_Y_Axis
 0000:000CB41C       Cranking_Fuel_IPW_Compensation_Imm_NonCruise_RPM
 0000:000CB440       Cranking_Fuel_IPW_Compensation_Imm_Cruise_RPM_X_Axis
 0000:000CB454       Cranking_Fuel_IPW_Compensation_Imm_Cruise_RPM_Y_Axis
 0000:000CB470       Cranking_Fuel_IPW_Compensation_Imm_Cruise_RPM
 0000:000CB604       Min_Primary_Base_Enrichment_1_NonCruise_Y_Axis
 0000:000CB624       Min_Primary_Base_Enrichment_1_NonCruise
 0000:000CB6A4       Min_Primary_Base_Enrichment_1_Cruise_Y_Axis
 0000:000CB6C4       Min_Primary_Base_Enrichment_1_Cruise
 0000:000CBA28       Primary_Open_Loop_Fueling_X_Axis
 0000:000CBA80       Primary_Open_Loop_Fueling_Y_Axis
 0000:000CBAC8       Primary_Open_Loop_Fueling
 0000:000CBC54       Primary_Open_Loop_Fueling_Failsafe_X_Axis
 0000:000CBCAC       Primary_Open_Loop_Fueling_Failsafe_Y_Axis
 0000:000CBCF4       Primary_Open_Loop_Fueling_Failsafe
 0000:000CC150       Fine_Correction_Minimum_RPM
 0000:000CC2A0       Fine_Correction_Maximum_RPM
 0000:000CC2E4       Timing_Compensation_ECT_Y_Axis
 0000:000CC505       Timing_Compensation_ECT
 0000:000CC798       Per_Injector_Pulse_Width_Compensation_A_X_Axis
 0000:000CC7D8       Per_Injector_Pulse_Width_Compensation_A_Y_Axis
 0000:000CC81C       Per_Injector_Pulse_Width_Compensation_A
 0000:000CC8A4       Rough_Correction_Learning_Delay_Increasing_Y_Axis
 0000:000CC8CC       Rough_Correction_Learning_Delay_Increasing
 0000:000CC92C       Per_Injector_Pulse_Width_Compensation_B_X_Axis
 0000:000CC96C       Per_Injector_Pulse_Width_Compensation_B_Y_Axis
 0000:000CC9B0       Per_Injector_Pulse_Width_Compensation_B
 0000:000CCAC0       Per_Injector_Pulse_Width_Compensation_C_X_Axis
 0000:000CCB00       Per_Injector_Pulse_Width_Compensation_C_Y_Axis
 0000:000CCB44       Per_Injector_Pulse_Width_Compensation_C
 0000:000CCC54       Per_Injector_Pulse_Width_Compensation_D_X_Axis
 0000:000CCC94       Per_Injector_Pulse_Width_Compensation_D_Y_Axis
 0000:000CCCD8       Per_Injector_Pulse_Width_Compensation_D
 0000:000CCFEC       Injector_Latency__X_Axis
 0000:000CD000       Injector_Latency__Y_Axis
 0000:000CD00C       Injector_Latency_
 0000:000CD408       CL_Fueling_Target_Compensation_Imm_Cruise_ECT_Y_Axis
 0000:000CD414       CL_Fueling_Target_Compensation_Imm_Cruise_ECT
 0000:000CD474       CL_Fueling_Target_Compensation_Imm_NonCruise_ECT_Y_Axis
 0000:000CD480       CL_Fueling_Target_Compensation_Imm_NonCruise_ECT
 0000:000CD4E0       CL_Fueling_Target_Compensation_A_Load_X_Axis
 0000:000CD50C       CL_Fueling_Target_Compensation_A_Load_Y_Axis
 0000:000CD534       CL_Fueling_Target_Compensation_A_Load
 0000:000CD740       CL_Fueling_Target_Compensation_B_Load_X_Axis
 0000:000CD76C       CL_Fueling_Target_Compensation_B_Load_Y_Axis
 0000:000CD794       CL_Fueling_Target_Compensation_B_Load
 0000:000CD7F0       Timing_Compensation_MRP_X_Axis
 0000:000CD804       Timing_Compensation_MRP_Y_Axis
 0000:000CD810       Timing_Compensation_MRP
 0000:000CD86E       aYLSss?
 0000:000CE37C       Boost_Limit_Fuel_Cut__X_Axis
 0000:000CE394       Boost_Limit_Fuel_Cut__Y_Axis
 0000:000CE3C0       Boost_Limit_Fuel_Cut_
 0000:000CE4A8       Feedback_Correction_Negative_Advance_Delay
 0000:000CE4B8       Fine_Correction_Advance_Delay
 0000:000CE5A4       Base_Timing_Idle_Minimum_Vehicle_Speed_Enable
 0000:000CE73C       Timing_Compensation_B_IAT_Max_Additive
 0000:000CE758       Timing_Compensation_B_IAT_IAM_Activation
 0000:000CE7D0       Timing_Comp_Maximum_RPM_Per_Cylinder
 0000:000CE7D4       Timing_Comp_Minimum_Load_Per_Cylinder
 0000:000CE7D8       Timing_Comp_Minimum_Coolant_Temp_Per_Cylinder
 0000:000CE7DC       Feedback_Correction_Minimum_Load
 0000:000CE7E4       Feedback_Correction_Range_RPM
 0000:000CE800       Feedback_Correction_Retard_Limit
 0000:000CE804       Feedback_Correction_Retard_Value
 0000:000CE808       Feedback_Correction_Negative_Advance_Value
 0000:000CE810       Extended_Feedback_Correction_High_RPM_Compensation
 0000:000CE8F4       Rough_Correction_Range_RPM
 0000:000CE904       Rough_Correction_Range_Load
 0000:000CE914       Rough_Correction_Minimum_KC_Advance_Map_Value
 0000:000CE918       Advance_Multiplier_Initial
 0000:000CE91C       Advance_Multiplier_Step_Value
 0000:000CE94C       Fine_Correction_Rows_RPM
 0000:000CE968       Fine_Correction_Columns_Load
 0000:000CE984       Fine_Correction_Advance_Limit
 0000:000CE988       Fine_Correction_Advance_Value
 0000:000CE98C       Fine_Correction_Retard_Limit
 0000:000CE990       Fine_Correction_Retard_Value
 0000:000CE9AC       Fine_Correction_Range_RPM
 0000:000CE9BC       Fine_Correction_Range_Load
 0000:000CE9F8       Timing_Compensation_Imm_NonCruise_B_ECT_Y_Axis
 0000:000CEA78       Base_Timing_Idle_Minimum_Y_Axis
 0000:000CEB14       aRrrrrrrrdug
 0000:000CEC09       Base_Timing_Idle_Minimum
 0000:000CEC12       Base_Timing_Idle_A_InGear
 0000:000CEC22       Base_Timing_Idle_B_InGear
 0000:000CEC32       Base_Timing_Idle_A_Neutral
 0000:000CEC42       Base_Timing_Idle_B_Neutral
 0000:000CEC72       Timing_Compensation_Imm_NonCruise_A_ECT
 0000:000CEC82       Timing_Compensation_Imm_NonCruise_B_ECT
 0000:000CEC92       Timing_Compensation_Imm_Cruise_A_ECT
 0000:000CECA2       Timing_Compensation_Imm_Cruise_B_ECT
 0000:000CECB4       Timing_Compensation_A_IAT_Y_Axis
 0000:000CECF4       Timing_Compensation_A_IAT
 0000:000CF060       aGggggggg
 0000:000CF100       a99999999
 0000:000CF150       aUuggg999
 0000:000CF1F0       aAaaaaaaa3@Aaaa
 0000:000CF3C8       Timing_Compensation_B_IAT_Y_Axis
 0000:000CF3CC       Requested_Torque_Base_RPM__Y_Axis
 0000:000CF408       Timing_Compensation_B_IAT
 0000:000CF40C       Requested_Torque_Base_RPM_
 0000:000CF594       aGGGGGGGGGGGGGG
 0000:000CF5D5       aS
 0000:000CF5D7       aS_0
 0000:000CF5D9       aS_1
 0000:000CF5DB       aS_2
 0000:000CF5DD       aS_3
 0000:000CF5DF       aS_4
 0000:000CF5E1       aT
 0000:000CF5E3       aT_0
 0000:000CF6AC       Rough_Correction_Learning_Delay_Increasing__Y_Axis
 0000:000CF6D4       Rough_Correction_Learning_Delay_Increasing_
 0000:000D0090       aAaPdRiiff
 0000:000D00C4       aAaaRjaaaaxpaaa
 0000:000D00D8       Base_Timing_Primary_Cruise_X_Axis
 0000:000D0130       Base_Timing_Primary_Cruise_Y_Axis
 0000:000D0178       Base_Timing_Primary_Cruise
 0000:000D0304       Base_Timing_Primary_NonCruise_X_Axis
 0000:000D035C       Base_Timing_Primary_NonCruise_Y_Axis
 0000:000D03A4       Base_Timing_Primary_NonCruise
 0000:000D0530       Base_Timing_Reference_Cruise_AVCS_related_X_Axis
 0000:000D0588       Base_Timing_Reference_Cruise_AVCS_related_Y_Axis
 0000:000D05D0       Base_Timing_Reference_Cruise_AVCS_related
 0000:000D075C       Base_Timing_Reference_NonCruise_AVCS_related_X_Axis
 0000:000D07B4       Base_Timing_Reference_NonCruise_AVCS_related_Y_Axis
 0000:000D07FC       Base_Timing_Reference_NonCruise_AVCS_related
 0000:000D0988       Timing_Compensation_A_IAT_Activation_X_Axis
 0000:000D09A8       Timing_Compensation_A_IAT_Activation_Y_Axis
 0000:000D09C8       Timing_Compensation_A_IAT_Activation
 0000:000D09D8       aAaaaaaaaaaaa_3
 0000:000D0A38       aSvzAjnucfmszak
 0000:000D0A54       aH
 0000:000D0A84       aSvzAjnucfmsz_0
 0000:000D0AA0       aC_0
 0000:000D0C08       aAmvAvdinjszAve
 0000:000D0C24       aC_1
 0000:000D0C54       aHqxaisuGovAjlu
 0000:000D0C70       a?m?
 0000:000D0D4C       aAaaaaaaaaaaaaa
 0000:000D0E34       Timing_Compensation_Per_Cylinder_A_X_Axis
 0000:000D0E6C       Timing_Compensation_Per_Cylinder_A_Y_Axis
 0000:000D0E7C       Timing_Compensation_Per_Cylinder_A
 0000:000D0EB4       Timing_Compensation_Per_Cylinder_B_X_Axis
 0000:000D0EEC       Timing_Compensation_Per_Cylinder_B_Y_Axis
 0000:000D0EFC       Timing_Compensation_Per_Cylinder_B
 0000:000D0F34       Timing_Compensation_Per_Cylinder_C_X_Axis
 0000:000D0F6C       Timing_Compensation_Per_Cylinder_C_Y_Axis
 0000:000D0F7C       Timing_Compensation_Per_Cylinder_C
 0000:000D0FB4       Timing_Compensation_Per_Cylinder_D_X_Axis
 0000:000D0FEC       Timing_Compensation_Per_Cylinder_D_Y_Axis
 0000:000D0FFC       Timing_Compensation_Per_Cylinder_D
 0000:000D1240       Knock_Correction_Advance_Max_Cruise_X_Axis
 0000:000D1298       Knock_Correction_Advance_Max_Cruise_Y_Axis
 0000:000D12E0       Knock_Correction_Advance_Max_Cruise
 0000:000D146C       Knock_Correction_Advance_Max_NonCruise_X_Axis
 0000:000D14C4       Knock_Correction_Advance_Max_NonCruise_Y_Axis
 0000:000D150C       Knock_Correction_Advance_Max_NonCruise
 0000:000D1FFC       aBbBbB8ffb8ff6f
 0000:000D2018       aA@
 0000:000D2668       aP
 0000:000D267C       a@
 0000:000D2684       aBa
 0000:000D2688       aL
 0000:000D2694       aBh
 0000:000D2698       aB
 0000:000D269C       aC
 0000:000D26A0       aA
 0000:000D26A4       a@a
 0000:000D278C       Idle_Speed_Target_C_Y_Axis
 0000:000D28A0       aAaaaaaaaaaaa_0
 0000:000D2E1E       Idle_Speed_Target_A
 0000:000D2E5E       Idle_Speed_Target_B
 0000:000D2E9E       Idle_Speed_Target_C
 0000:000D3588       aAjffbFfbyssbjf
 0000:000D3614       aDsiieatEgEs0
 0000:000D3624       aEjQeEpe
 0000:000D3680       aDh_0
 0000:000D4690       a33333
 0000:000D4698       aDc
 0000:000D4754       aLSss?_0
 0000:000D47F1       aAz1g301f_0
 0000:000D496E       Manifold_Pressure_Sensor_Limits_CEL
 0000:000D49C0       Manifold_Pressure_Sensor_Scaling_
 0000:000D49F4       Coolant_Temp_Sensor_Scaling_Y_Axis
 0000:000D4A64       Coolant_Temp_Sensor_Scaling
 0000:000D4AD4       Intake_Temp_Sensor_Scaling_Y_Axis
 0000:000D4B4C       Intake_Temp_Sensor_Scaling
 0000:000D4C44       MAF_Sensor_Scaling_Y_Axis
 0000:000D4D1C       MAF_Sensor_Scaling
 0000:000D4DF4       Front_Oxygen_Sensor_Scaling_Y_Axis
 0000:000D4E28       Front_Oxygen_Sensor_Scaling
 0000:000D51DC       Radiator_Fan_Modes_A_ECT
 0000:000D51EC       Radiator_Fan_Modes_B_ECT
 0000:000D51FC       Radiator_Fan_Modes_Veh_Speed
 0000:000D569C       dEcuId
 0000:000D5C3C       aFffff
 0000:000D66B8       aGI_@eqBnqA1nSA
 0000:000D66CE       aA_14
 0000:000D66D0       aA_15
 0000:000D66D2       aA_16
 0000:000D66D4       aA_17
 0000:000D66D6       aA_18
 0000:000D66D8       aA_19
 0000:000D66DA       aA_20
 0000:000D66DC       aA_21
 0000:000D66DE       aA_22
 0000:000D66E0       aA_23
 0000:000D66E2       aA_24
 0000:000D66E4       aA_25
 0000:000D66E6       aA_26
 0000:000D66E8       aA_27
 0000:000D66EA       aA_28
 0000:000D66EC       aA_29
 0000:000D66EE       aA_30
 0000:000D66F0       aA_31
 0000:000D66F2       aA_32
 0000:000D66F4       aA_33
 0000:000D66F6       aA_34
 0000:000D66F8       aA_35
 0000:000D66FA       aA_36
 0000:000D66FC       aA_37
 0000:000D66FE       aA_38
 0000:000D6700       aA_39
 0000:000D6702       aA_40
 0000:000D6704       aA_41
 0000:000D6706       aA_42
 0000:000D6708       aA_43
 0000:000D670A       aA_44
 0000:000D6CE0       Exhaust_Cam_Retard_Angle_Cruise_AVCS_X_Axis
 0000:000D6D34       Exhaust_Cam_Retard_Angle_Cruise_AVCS_Y_Axis
 0000:000D6D7C       Exhaust_Cam_Retard_Angle_Cruise_AVCS
 0000:000D7070       Exhaust_Cam_Retard_Angle_NonCruise_AVCS_X_Axis
 0000:000D70C4       Exhaust_Cam_Retard_Angle_NonCruise_AVCS_Y_Axis
 0000:000D710C       Exhaust_Cam_Retard_Angle_NonCruise_AVCS
 0000:000D7868       Intake_Cam_Advance_Angle_Cruise_AVCS_X_Axis
 0000:000D78B4       Intake_Cam_Advance_Angle_Cruise_AVCS_Y_Axis
 0000:000D78FC       Intake_Cam_Advance_Angle_Cruise_AVCS
 0000:000D7BA8       Intake_Cam_Advance_Angle_NonCruise_AVCS_X_Axis
 0000:000D7BF4       Intake_Cam_Advance_Angle_NonCruise_AVCS_Y_Axis
 0000:000D7C3C       Intake_Cam_Advance_Angle_NonCruise_AVCS
 0000:000DC644       Speed_Limiting_A_Throttle_SIDRIVE_SportSport_Sharp
 0000:000DC650       Speed_Limiting_Throttle_SIDRIVE_Intelligent
 0000:000DC65C       Speed_Limiting_B_Throttle_SIDRIVE_SportSport_Sharp
 0000:000DC7FC       Requested_Torque_Base_RPM_Y_Axis
 0000:000DC844       Requested_Torque_Base_RPM
 0000:000DCA08       aGLLUPG?a
 0000:000DCB38       aAaaaaaaaaaaa_1
 0000:000DCBB8       aAaaaaaaaaaaa_2
 0000:000DCC78       Target_Throttle_Plate_Position_Cruise_Requested_Torque_Ratio_X_Axis
 0000:000DCCD4       Target_Throttle_Plate_Position_Cruise_Requested_Torque_Ratio_Y_Axis
 0000:000DCD1C       Target_Throttle_Plate_Position_Cruise_Requested_Torque_Ratio
 0000:000DD058       Target_Throttle_Plate_Position_NonCruise_Requested_Torque_Ratio_X_Axis
 0000:000DD0B4       Target_Throttle_Plate_Position_NonCruise_Requested_Torque_Ratio_Y_Axis
 0000:000DD0FC       Target_Throttle_Plate_Position_NonCruise_Requested_Torque_Ratio
 0000:000DD438       Target_Throttle_Plate_Position_Maximum_Requested_Torque_Ratio_X_Axis
 0000:000DD494       Target_Throttle_Plate_Position_Maximum_Requested_Torque_Ratio_Y_Axis
 0000:000DD4DC       Target_Throttle_Plate_Position_Maximum_Requested_Torque_Ratio
 0000:000DD954       Requested_Torque_Accelerator_Pedal_SIDRIVE_Sport_X_Axis
 0000:000DD994       Requested_Torque_Accelerator_Pedal_SIDRIVE_Sport_Y_Axis
 0000:000DD9E4       Requested_Torque_Accelerator_Pedal_SIDRIVE_Sport
 0000:000DDC64       Requested_Torque_Accelerator_Pedal_SIDRIVE_Sport_Sharp_X_Axis
 0000:000DDCA4       Requested_Torque_Accelerator_Pedal_SIDRIVE_Sport_Sharp_Y_Axis
 0000:000DDCF4       Requested_Torque_Accelerator_Pedal_SIDRIVE_Sport_Sharp
 0000:000DDD00       aMMsmsmsmsmsmsm
 0000:000DDF74       Requested_Torque_Accelerator_Pedal_SIDRIVE_Intelligent_X_Axis
 0000:000DDFB4       Requested_Torque_Accelerator_Pedal_SIDRIVE_Intelligent_Y_Axis
 0000:000DE004       Requested_Torque_Accelerator_Pedal_SIDRIVE_Intelligent
 0000:000E1000       dRomHoleStart
 0000:000FFB80       Checksum_Fix
 0000:FFFF2C84       E_AF_Learning_1_A_StoredExt_E44
 0000:FFFF2C8C       E_AF_Learning_1_B_StoredExt_E45
 0000:FFFF2C94       E_AF_Learning_1_C_StoredExt_E46
 0000:FFFF2C9C       E_AF_Learning_1_D_StoredExt_E47
 0000:FFFF2D10       E_IAM_4byteExt_E31
 0000:FFFF4046       pMafSensorVoltage
 0000:FFFF40B4       pMassAirFlow
 0000:FFFF40C8       pAf1Res
 0000:FFFF4124       pIntakeAirTemp
 0000:FFFF5EE4       E_Boost_ErrorExt_E35
 0000:FFFF5EE8       E_Target_Boost_Relative_4byteExt_E120
 0000:FFFF5EEC       E_Target_Boost_4byteExt_E36
 0000:FFFF5EF0       E_Turbo_Dynamics_Proportional_4byteExt_E37
 0000:FFFF5EF4       E_Turbo_Dynamics_Integral_4byteExt_E34
 0000:FFFF5F08       E_Primary_Wastegate_Duty_MaximumExt_4byteExt__E77
 0000:FFFF61DC       E_Manifold_Relative_Sea_Level_Pressure_4byteExt_E52
 0000:FFFF61E0       E_Manifold_Relative_Pressure_4byteExt_E113
 0000:FFFF62A4       E_Throttle_Plate_Opening_Angle_4byteExt_E38
 0000:FFFF62B4       E_Tipin_ThrottleExt_E54
 0000:FFFF63B4       E_Engine_Load_4ByteExt_E32
 0000:FFFF6510       E_AF_Sensor_1_4byteExt_E91
 0000:FFFF659F       pClutchFlags
 0000:FFFF65CC       pVehicleSpeed
 0000:FFFF65F0       pEngineSpeed
 0000:FFFF67DD       E_Gear_CalculatedExt_E59
 0000:FFFF67F0       E_Manifold_Relative_Sea_Level_Pressure_2byteExtExt_E89
 0000:FFFF67F2       E_Throttle_Plate_Opening_Angle_2byteExtExt_E93
 0000:FFFF67F8       E_AF_Sensor_1_2byteExtExt_E92
 0000:FFFF6806       E_Final_Fueling_Base_2byteExt_E124
 0000:FFFF680A       E_AF_Correction_1_2byteExtExt_E82
 0000:FFFF680C       E_Closed_Loop_Fueling_Target_2byteExt_E122
 0000:FFFF680E       E_AF_Learning_1_2byteExtExt_E83
 0000:FFFF6812       E_Primary_Open_Loop_Map_Enrichment_2byteExtExt_E85
 0000:FFFF681E       E_Target_Boost_2byteExtExt_E90
 0000:FFFF6823       E_Engine_Load_1byteExtExt_E86
 0000:FFFF682D       E_Feedback_Knock_Correction_1byteExtExt_E94
 0000:FFFF682F       E_IAM_1byteExtExt_E96
 0000:FFFF6830       E_Fine_Learning_Knock_Correction_1byteExtExt_E95
 0000:FFFF6839       E_Primary_WGDC_Maximum_1byteExtExt_E112
 0000:FFFF6850       pAtmoPress
 0000:FFFF6C48       E_Final_Fueling_Base_4byteExt_E123
 0000:FFFF6C88       E_Fuel_Injector_1_Latency_4byteExt_E50
 0000:FFFF6F54       E_AF_Correction_1_4byteExt_E81
 0000:FFFF703C       E_Closed_Loop_Fueling_Target_4byteExt_E121
 0000:FFFF70D4       E_AF_Learning_1_4byteExt_E48
 0000:FFFF70DB       E_AF_Learning_Airflow_Range_CurrentExt_E61
 0000:FFFF719C       E_Primary_Open_Loop_Map_Enrichment_4byteExt_E84
 0000:FFFF7420       E_Tipin_Enrichment_Last_CalculatedExt_E55
 0000:FFFF74AC       pFlagsRevLim
 0000:FFFF7570       E_Fuel_Injector_1_Pulse_Width_4byteExt_E60
 0000:FFFF76CC       E_Ignition_Base_TimingExt_E53
 0000:FFFF798C       E_Knock_Correction_Advance_4byteExt_E43
 0000:FFFF7990       E_Feedback_Knock_Correction_4byteExt_E39
 0000:FFFF79F8       E_Knock_Correction_Advance_Max_PrimaryExt_E118
 0000:FFFF7A00       E_Knock_Correction_Advance_IAM_onlyExt_E40
 0000:FFFF7A2C       E_Fine_Learning_Knock_Correction_4byteExt_E41
 0000:FFFF7A38       E_Fine_Learning_Table_OffsetExt_E58
 0000:FFFF7CF8       E_Target_Throttle_Plate_PositionExt_E57
 0000:FFFF7D00       E_Requested_TorqueExt_E56
 0000:FFFF80A8       E_Idle_Speed_Map_SelectionExt_E49
 0000:FFFF9852       sCelSignalOem
 0000:FFFF9A09       E_CLOL_FuelingExt_E33
 0000:FFFFA570       pRamHoleStart
 0000:FFFFBF9F       pMemoryResetLimit
